	.file	"main.cpp"
__SP_H__ = 0x3e
__SP_L__ = 0x3d
__SREG__ = 0x3f
__tmp_reg__ = 0
__zero_reg__ = 1
	.text
.Ltext0:
	.cfi_sections	.debug_frame
	.section	.text._Z10runprogramv,"ax",@progbits
.global	_Z10runprogramv
	.type	_Z10runprogramv, @function
_Z10runprogramv:
.LFB26:
	.file 1 ".././main.cpp"
	.loc 1 86 0
	.cfi_startproc
/* prologue: function */
/* frame size = 0 */
/* stack size = 0 */
.L__stack_usage = 0
	.loc 1 87 0
	ldi r24,lo8(_ZL9interpret)
	ldi r25,hi8(_ZL9interpret)
	call _ZN11interpreter3runEv
.LVL0:
	ret
	.cfi_endproc
.LFE26:
	.size	_Z10runprogramv, .-_Z10runprogramv
	.section	.text._Z11storememoryyc,"ax",@progbits
.global	_Z11storememoryyc
	.type	_Z11storememoryyc, @function
_Z11storememoryyc:
.LFB27:
	.loc 1 90 0
	.cfi_startproc
.LVL1:
	push r6
.LCFI0:
	.cfi_def_cfa_offset 3
	.cfi_offset 6, -2
	push r7
.LCFI1:
	.cfi_def_cfa_offset 4
	.cfi_offset 7, -3
	push r8
.LCFI2:
	.cfi_def_cfa_offset 5
	.cfi_offset 8, -4
	push r9
.LCFI3:
	.cfi_def_cfa_offset 6
	.cfi_offset 9, -5
	push r10
.LCFI4:
	.cfi_def_cfa_offset 7
	.cfi_offset 10, -6
	push r11
.LCFI5:
	.cfi_def_cfa_offset 8
	.cfi_offset 11, -7
	push r12
.LCFI6:
	.cfi_def_cfa_offset 9
	.cfi_offset 12, -8
	push r13
.LCFI7:
	.cfi_def_cfa_offset 10
	.cfi_offset 13, -9
	push r14
.LCFI8:
	.cfi_def_cfa_offset 11
	.cfi_offset 14, -10
	push r15
.LCFI9:
	.cfi_def_cfa_offset 12
	.cfi_offset 15, -11
	push r16
.LCFI10:
	.cfi_def_cfa_offset 13
	.cfi_offset 16, -12
	push r17
.LCFI11:
	.cfi_def_cfa_offset 14
	.cfi_offset 17, -13
	push r28
.LCFI12:
	.cfi_def_cfa_offset 15
	.cfi_offset 28, -14
	push r29
.LCFI13:
	.cfi_def_cfa_offset 16
	.cfi_offset 29, -15
/* prologue: function */
/* frame size = 0 */
/* stack size = 14 */
.L__stack_usage = 14
	mov r13,r18
	mov r15,r19
	mov r29,r20
	mov r28,r21
	mov r27,r22
	mov r26,r23
	mov r31,r24
	mov r30,r25
	mov r14,r16
	.loc 1 91 0
	cpi r18,-1
	ldi r17,31
	cpc r19,r17
	cpc r20,__zero_reg__
	cpc r21,__zero_reg__
	cpc r22,__zero_reg__
	cpc r23,__zero_reg__
	cpc r24,__zero_reg__
	cpc r25,__zero_reg__
	breq .+2
	brsh .L3
	.loc 1 93 0
	mov r16,r18
.LVL2:
	mov r17,r19
	mov r18,r20
.LVL3:
	mov r19,r21
	mov r20,r22
	mov r21,r23
	mov r22,r24
	mov r23,r25
	ldi r24,lo8(_ZL5bank0)
	ldi r25,hi8(_ZL5bank0)
	call _ZN3ram5writeEyc
.LVL4:
	rjmp .L2
.LVL5:
.L3:
	.loc 1 95 0
	subi r19,32
	sbc r20,__zero_reg__
	sbc r21,__zero_reg__
	sbc r22,__zero_reg__
	sbc r23,__zero_reg__
	sbc r24,__zero_reg__
	sbc r25,__zero_reg__
.LVL6:
	mov r16,r18
	cpi r18,-1
	ldi r17,31
	cpc r19,r17
	cpc r20,__zero_reg__
	cpc r21,__zero_reg__
	cpc r22,__zero_reg__
	cpc r23,__zero_reg__
	cpc r24,__zero_reg__
	cpc r25,__zero_reg__
	breq .+2
	brsh .L5
	.loc 1 97 0
	mov r17,r19
	mov r18,r20
.LVL7:
	mov r19,r21
	mov r20,r22
	mov r21,r23
	mov r22,r24
	mov r23,r25
	ldi r24,lo8(_ZL5bank1)
	ldi r25,hi8(_ZL5bank1)
	call _ZN3ram5writeEyc
.LVL8:
	rjmp .L2
.L5:
	.loc 1 99 0
	mov r18,r13
	mov r19,r15
	mov r20,r29
	mov r21,r28
	mov r22,r27
	mov r23,r26
	mov r24,r31
	mov r25,r30
	subi r19,64
	sbc r20,__zero_reg__
	sbc r21,__zero_reg__
	sbc r22,__zero_reg__
	sbc r23,__zero_reg__
	sbc r24,__zero_reg__
	sbc r25,__zero_reg__
	mov r16,r18
	cpi r18,-1
	ldi r17,31
	cpc r19,r17
	cpc r20,__zero_reg__
	cpc r21,__zero_reg__
	cpc r22,__zero_reg__
	cpc r23,__zero_reg__
	cpc r24,__zero_reg__
	cpc r25,__zero_reg__
	breq .+2
	brsh .L6
	.loc 1 101 0
	mov r17,r19
	mov r18,r20
	mov r19,r21
	mov r20,r22
	mov r21,r23
	mov r22,r24
	mov r23,r25
	ldi r24,lo8(_ZL5bank2)
	ldi r25,hi8(_ZL5bank2)
	call _ZN3ram5writeEyc
.LVL9:
	rjmp .L2
.L6:
	.loc 1 103 0
	mov r18,r13
	mov r19,r15
	mov r20,r29
	mov r21,r28
	mov r22,r27
	mov r23,r26
	mov r24,r31
	mov r25,r30
	subi r19,96
	sbc r20,__zero_reg__
	sbc r21,__zero_reg__
	sbc r22,__zero_reg__
	sbc r23,__zero_reg__
	sbc r24,__zero_reg__
	sbc r25,__zero_reg__
	mov r16,r18
	cpi r18,-1
	ldi r17,31
	cpc r19,r17
	cpc r20,__zero_reg__
	cpc r21,__zero_reg__
	cpc r22,__zero_reg__
	cpc r23,__zero_reg__
	cpc r24,__zero_reg__
	cpc r25,__zero_reg__
	breq .+2
	brsh .L7
	.loc 1 105 0
	mov r17,r19
	mov r18,r20
	mov r19,r21
	mov r20,r22
	mov r21,r23
	mov r22,r24
	mov r23,r25
	ldi r24,lo8(_ZL5bank3)
	ldi r25,hi8(_ZL5bank3)
	call _ZN3ram5writeEyc
.LVL10:
	rjmp .L2
.L7:
	.loc 1 107 0
	cpi r18,-1
	sbci r19,63
	cpc r20,__zero_reg__
	cpc r21,__zero_reg__
	cpc r22,__zero_reg__
	cpc r23,__zero_reg__
	cpc r24,__zero_reg__
	cpc r25,__zero_reg__
	breq .+2
	brsh .L2
	.loc 1 109 0
	mov r18,r13
	mov r19,r15
	mov r20,r29
	mov r21,r28
	mov r22,r27
	mov r23,r26
	mov r24,r31
	mov r25,r30
	subi r19,-128
	sbc r20,__zero_reg__
	sbc r21,__zero_reg__
	sbc r22,__zero_reg__
	sbc r23,__zero_reg__
	sbc r24,__zero_reg__
	sbc r25,__zero_reg__
	mov r16,r18
	mov r17,r19
	mov r18,r20
	mov r19,r21
	mov r20,r22
	mov r21,r23
	mov r22,r24
	mov r23,r25
	ldi r24,lo8(_ZL5bank4)
	ldi r25,hi8(_ZL5bank4)
	call _ZN3ram5writeEyc
.LVL11:
.L2:
/* epilogue start */
	.loc 1 113 0
	pop r29
	pop r28
	pop r17
	pop r16
	pop r15
	pop r14
.LVL12:
	pop r13
	pop r12
	pop r11
	pop r10
	pop r9
	pop r8
	pop r7
	pop r6
	ret
	.cfi_endproc
.LFE27:
	.size	_Z11storememoryyc, .-_Z11storememoryyc
	.section	.text._Z22loadmainprogramfromromcb,"ax",@progbits
.global	_Z22loadmainprogramfromromcb
	.type	_Z22loadmainprogramfromromcb, @function
_Z22loadmainprogramfromromcb:
.LFB28:
	.loc 1 115 0
	.cfi_startproc
.LVL13:
	push r14
.LCFI14:
	.cfi_def_cfa_offset 3
	.cfi_offset 14, -2
	push r15
.LCFI15:
	.cfi_def_cfa_offset 4
	.cfi_offset 15, -3
	push r16
.LCFI16:
	.cfi_def_cfa_offset 5
	.cfi_offset 16, -4
	push r17
.LCFI17:
	.cfi_def_cfa_offset 6
	.cfi_offset 17, -5
	push r28
.LCFI18:
	.cfi_def_cfa_offset 7
	.cfi_offset 28, -6
	push r29
.LCFI19:
	.cfi_def_cfa_offset 8
	.cfi_offset 29, -7
/* prologue: function */
/* frame size = 0 */
/* stack size = 6 */
.L__stack_usage = 6
	.loc 1 117 0
	cpse r22,__zero_reg__
	rjmp .L13
	.loc 1 123 0
	ldi r16,lo8(_ZL5bank3)
	ldi r17,hi8(_ZL5bank3)
	rjmp .L9
.L13:
	.loc 1 119 0
	ldi r16,lo8(_ZL5bank1)
	ldi r17,hi8(_ZL5bank1)
.L9:
.LVL14:
	.loc 1 126 0
	tst r24
	breq .L14
	.loc 1 130 0
	cpi r24,lo8(1)
	breq .L15
	.loc 1 135 0
	cpi r24,lo8(2)
	breq .L16
	.loc 1 140 0
	cpi r24,lo8(3)
	brne .L17
	.loc 1 142 0
	mov __tmp_reg__,r31
	ldi r31,lo8(_ZL8program3)
	mov r14,r31
	ldi r31,hi8(_ZL8program3)
	mov r15,r31
	mov r31,__tmp_reg__
	rjmp .L10
.L14:
	.loc 1 128 0
	mov __tmp_reg__,r31
	ldi r31,lo8(_ZL8program0)
	mov r14,r31
	ldi r31,hi8(_ZL8program0)
	mov r15,r31
	mov r31,__tmp_reg__
	rjmp .L10
.L15:
	.loc 1 132 0
	mov __tmp_reg__,r31
	ldi r31,lo8(_ZL8program1)
	mov r14,r31
	ldi r31,hi8(_ZL8program1)
	mov r15,r31
	mov r31,__tmp_reg__
	rjmp .L10
.L16:
	.loc 1 137 0
	mov __tmp_reg__,r31
	ldi r31,lo8(_ZL8program2)
	mov r14,r31
	ldi r31,hi8(_ZL8program2)
	mov r15,r31
	mov r31,__tmp_reg__
.L10:
.LVL15:
.LBB2:
	.loc 1 148 0
	ldi r28,0
	ldi r29,0
.LVL16:
.L12:
	.loc 1 150 0 discriminator 2
	movw r22,r28
	movw r24,r14
	call _ZN3rom4readEi
.LVL17:
	mov r20,r24
	movw r22,r28
	movw r24,r16
	call _ZN3ram5writeEjc
.LVL18:
	.loc 1 148 0 discriminator 2
	adiw r28,1
.LVL19:
	cpi r28,-1
	ldi r24,31
	cpc r29,r24
	brne .L12
.LBE2:
	.loc 1 153 0
	ldi r24,lo8(116)
.LBB3:
	rjmp .L11
.LVL20:
.L17:
.LBE3:
	.loc 1 146 0
	ldi r24,lo8(101)
.LVL21:
.L11:
/* epilogue start */
	.loc 1 154 0
	pop r29
	pop r28
	pop r17
	pop r16
.LVL22:
	pop r15
	pop r14
	ret
	.cfi_endproc
.LFE28:
	.size	_Z22loadmainprogramfromromcb, .-_Z22loadmainprogramfromromcb
	.section	.text._Z12readKeyboardPci,"ax",@progbits
.global	_Z12readKeyboardPci
	.type	_Z12readKeyboardPci, @function
_Z12readKeyboardPci:
.LFB29:
	.loc 1 156 0
	.cfi_startproc
.LVL23:
/* prologue: function */
/* frame size = 0 */
/* stack size = 0 */
.L__stack_usage = 0
	ret
	.cfi_endproc
.LFE29:
	.size	_Z12readKeyboardPci, .-_Z12readKeyboardPci
	.section	.text.main,"ax",@progbits
.global	main
	.type	main, @function
main:
.LFB30:
	.loc 1 161 0
	.cfi_startproc
/* prologue: function */
/* frame size = 0 */
/* stack size = 0 */
.L__stack_usage = 0
	.loc 1 166 0
	ldi r22,lo8(-1)
	ldi r24,lo8(_ZL4port)
	ldi r25,hi8(_ZL4port)
	call _ZN14portcontroller9writeddraEc
.LVL24:
	.loc 1 167 0
	ldi r22,lo8(-1)
	ldi r24,lo8(_ZL4port)
	ldi r25,hi8(_ZL4port)
	call _ZN14portcontroller9writeddrcEc
.LVL25:
	.loc 1 171 0
	ldi r22,0
	ldi r24,lo8(_ZL4port)
	ldi r25,hi8(_ZL4port)
	call _ZN14portcontroller9writeddrbEc
.LVL26:
	.loc 1 172 0
	ldi r22,0
	ldi r24,lo8(_ZL4port)
	ldi r25,hi8(_ZL4port)
	call _ZN14portcontroller9writeddrdEc
.LVL27:
	.loc 1 174 0
	ldi r24,lo8(_ZL5bank2)
	ldi r25,hi8(_ZL5bank2)
	sts _ZL9interpret+269+1,r25
	sts _ZL9interpret+269,r24
	.loc 1 175 0
	ldi r24,lo8(_ZL5bank9)
	ldi r25,hi8(_ZL5bank9)
	sts _ZL9interpret+271+1,r25
	sts _ZL9interpret+271,r24
	.loc 1 176 0
	ldi r24,lo8(_ZL6vbank0)
	ldi r25,hi8(_ZL6vbank0)
	sts _ZL9interpret+273+1,r25
	sts _ZL9interpret+273,r24
	.loc 1 177 0
	ldi r24,lo8(_ZL6vbank1)
	ldi r25,hi8(_ZL6vbank1)
	sts _ZL9interpret+275+1,r25
	sts _ZL9interpret+275,r24
	.loc 1 178 0
	ldi r24,lo8(_ZL6vbank2)
	ldi r25,hi8(_ZL6vbank2)
	sts _ZL9interpret+277+1,r25
	sts _ZL9interpret+277,r24
.LVL28:
	.loc 1 180 0
	mov r5,__zero_reg__
.LBB4:
.LBB5:
	.loc 1 186 0
	ldi r16,lo8(_ZL7command)
	ldi r17,hi8(_ZL7command)
.LBE5:
.LBB6:
.LBB7:
.LBB8:
	.loc 1 191 0
	mov __tmp_reg__,r31
	ldi r31,lo8(_ZL7command+2)
	mov r14,r31
	ldi r31,hi8(_ZL7command+2)
	mov r15,r31
	mov r31,__tmp_reg__
.LBE8:
.LBB9:
.LBB10:
	.loc 1 195 0
	mov __tmp_reg__,r31
	ldi r31,lo8(_ZL7command+4)
	mov r12,r31
	ldi r31,hi8(_ZL7command+4)
	mov r13,r31
	mov r31,__tmp_reg__
.LBE10:
.LBB11:
.LBB12:
	.loc 1 199 0
	mov __tmp_reg__,r31
	ldi r31,lo8(_ZL7command+6)
	mov r10,r31
	ldi r31,hi8(_ZL7command+6)
	mov r11,r31
	mov r31,__tmp_reg__
.LBE12:
.LBB13:
.LBB14:
	.loc 1 204 0
	mov __tmp_reg__,r31
	ldi r31,lo8(_ZL7command+8)
	mov r6,r31
	ldi r31,hi8(_ZL7command+8)
	mov r7,r31
	mov r31,__tmp_reg__
.LBE14:
.LBE13:
.LBE11:
.LBE9:
.LBE7:
.LBE6:
	.loc 1 218 0
	mov __tmp_reg__,r31
	ldi r31,lo8(_ZL9interpret+269)
	mov r8,r31
	ldi r31,hi8(_ZL9interpret+269)
	mov r9,r31
	mov r31,__tmp_reg__
.LVL29:
.L24:
	.loc 1 185 0
	ldi r24,lo8(_ZL2kb)
	ldi r25,hi8(_ZL2kb)
	call _ZN8keyboard7getsizeEv
.LVL30:
	ldi r22,lo8(1)
	ldi r23,0
	ldi r25,0
	call calloc
.LVL31:
	movw r28,r24
.LVL32:
.LBB24:
	.loc 1 186 0
	movw r30,r16
/* #APP */
 ;  186 ".././main.cpp" 1
	lpm r22, Z+
	lpm r23, Z
	
 ;  0 "" 2
.LVL33:
/* #NOAPP */
.LBE24:
	.loc 1 186 0
	call strcpy_P
.LVL34:
.LBB25:
.LBB22:
	.loc 1 187 0
	movw r30,r16
/* #APP */
 ;  187 ".././main.cpp" 1
	lpm r22, Z+
	lpm r23, Z
	
 ;  0 "" 2
.LVL35:
/* #NOAPP */
.LBE22:
	.loc 1 187 0
	movw r24,r28
	call strcasecmp_P
.LVL36:
	or r24,r25
	brne .L21
	.loc 1 189 0
	ldi r24,lo8(_ZL9interpret)
	ldi r25,hi8(_ZL9interpret)
	call _ZN11interpreter3runEv
.LVL37:
	mov r5,r24
.LVL38:
	rjmp .L22
.L21:
.LVL39:
.LBB23:
.LBB20:
	.loc 1 191 0
	movw r30,r14
/* #APP */
 ;  191 ".././main.cpp" 1
	lpm r22, Z+
	lpm r23, Z
	
 ;  0 "" 2
.LVL40:
/* #NOAPP */
.LBE20:
	.loc 1 191 0
	movw r24,r28
	call strcasecmp_P
.LVL41:
	or r24,r25
	breq .L22
.LVL42:
.LBB21:
.LBB18:
	.loc 1 195 0
	movw r30,r12
/* #APP */
 ;  195 ".././main.cpp" 1
	lpm r22, Z+
	lpm r23, Z
	
 ;  0 "" 2
.LVL43:
/* #NOAPP */
.LBE18:
	.loc 1 195 0
	movw r24,r28
	call strcasecmp_P
.LVL44:
	or r24,r25
	breq .L22
.LVL45:
.LBB19:
.LBB16:
	.loc 1 199 0
	movw r30,r10
/* #APP */
 ;  199 ".././main.cpp" 1
	lpm r22, Z+
	lpm r23, Z
	
 ;  0 "" 2
.LVL46:
/* #NOAPP */
.LBE16:
	.loc 1 199 0
	movw r24,r28
	call strcasecmp_P
.LVL47:
	or r24,r25
	breq .L22
.LVL48:
.LBB17:
.LBB15:
	.loc 1 204 0
	movw r30,r6
/* #APP */
 ;  204 ".././main.cpp" 1
	lpm r24, Z+
	lpm r25, Z
	
 ;  0 "" 2
.LVL49:
/* #NOAPP */
.L22:
.LBE15:
.LBE17:
.LBE19:
.LBE21:
.LBE23:
.LBE25:
	.loc 1 211 0
	ldi r24,lo8(98)
	cpse r5,r24
	rjmp .L23
	.loc 1 216 0
	lds r24,_ZL9interpret
	cpi r24,lo8(4)
	brne .L23
	.loc 1 218 0
	lds r30,_ZL9interpret+1
	ldi r31,0
	lsl r30
	rol r31
	subi r30,lo8(-(_ZL11rambanklist+4))
	sbci r31,hi8(-(_ZL11rambanklist+4))
	ld r24,Z
	ldd r25,Z+1
	movw r30,r8
	std Z+1,r25
	st Z,r24
.L23:
	.loc 1 228 0
	movw r24,r28
	call free
.LVL50:
.LBE4:
	.loc 1 181 0
	rjmp .L24
	.cfi_endproc
.LFE30:
	.size	main, .-main
	.section	.text._GLOBAL__sub_I__Z10runprogramv,"ax",@progbits
	.type	_GLOBAL__sub_I__Z10runprogramv, @function
_GLOBAL__sub_I__Z10runprogramv:
.LFB32:
	.loc 1 231 0
	.cfi_startproc
	push r8
.LCFI20:
	.cfi_def_cfa_offset 3
	.cfi_offset 8, -2
	push r9
.LCFI21:
	.cfi_def_cfa_offset 4
	.cfi_offset 9, -3
	push r10
.LCFI22:
	.cfi_def_cfa_offset 5
	.cfi_offset 10, -4
	push r11
.LCFI23:
	.cfi_def_cfa_offset 6
	.cfi_offset 11, -5
	push r12
.LCFI24:
	.cfi_def_cfa_offset 7
	.cfi_offset 12, -6
	push r13
.LCFI25:
	.cfi_def_cfa_offset 8
	.cfi_offset 13, -7
	push r14
.LCFI26:
	.cfi_def_cfa_offset 9
	.cfi_offset 14, -8
	push r15
.LCFI27:
	.cfi_def_cfa_offset 10
	.cfi_offset 15, -9
	push r16
.LCFI28:
	.cfi_def_cfa_offset 11
	.cfi_offset 16, -10
	push r17
.LCFI29:
	.cfi_def_cfa_offset 12
	.cfi_offset 17, -11
/* prologue: function */
/* frame size = 0 */
/* stack size = 10 */
.L__stack_usage = 10
.LVL51:
.LBB28:
.LBB29:
	.loc 1 46 0
	ldi r24,lo8(_ZL4port)
	ldi r25,hi8(_ZL4port)
	call _ZN14portcontrollerC1Ev
.LVL52:
	.loc 1 47 0
	ldi r16,lo8(_ZL4port)
	ldi r17,hi8(_ZL4port)
	ldi r18,lo8(38)
	ldi r20,lo8(39)
	ldi r22,lo8(40)
	ldi r24,lo8(_ZL6addreg)
	ldi r25,hi8(_ZL6addreg)
	call _ZN8shiftregC1EhhhP14portcontroller
.LVL53:
	.loc 1 48 0
	ldi r18,lo8(35)
	ldi r20,lo8(36)
	ldi r22,lo8(37)
	ldi r24,lo8(_ZL5csreg)
	ldi r25,hi8(_ZL5csreg)
	call _ZN8shiftregC1EhhhP14portcontroller
.LVL54:
	.loc 1 49 0
	mov __tmp_reg__,r31
	ldi r31,lo8(33)
	mov r14,r31
	mov r31,__tmp_reg__
	ldi r16,lo8(34)
	ldi r18,lo8(3)
	ldi r20,lo8(_ZL4port)
	ldi r21,hi8(_ZL4port)
	ldi r22,lo8(_ZL5csreg)
	ldi r23,hi8(_ZL5csreg)
	ldi r24,lo8(_ZL6serial)
	ldi r25,hi8(_ZL6serial)
	call _ZN6SerialC1EP8shiftregP14portcontrollerccc
.LVL55:
	.loc 1 50 0
	mov r14,__zero_reg__
	mov r15,__zero_reg__
	movw r16,r14
	ldi r18,lo8(1)
	ldi r20,lo8(_ZL6addreg)
	ldi r21,hi8(_ZL6addreg)
	ldi r22,lo8(_ZL4port)
	ldi r23,hi8(_ZL4port)
	ldi r24,lo8(_ZL5bank0)
	ldi r25,hi8(_ZL5bank0)
	call _ZN3ramC1EP14portcontrollerP8shiftreghm
.LVL56:
	.loc 1 51 0
	mov r14,__zero_reg__
	ldi r17,lo8(32)
	mov r15,r17
	ldi r16,0
	ldi r17,0
	ldi r18,lo8(1)
	ldi r20,lo8(_ZL6addreg)
	ldi r21,hi8(_ZL6addreg)
	ldi r22,lo8(_ZL4port)
	ldi r23,hi8(_ZL4port)
	ldi r24,lo8(_ZL5bank1)
	ldi r25,hi8(_ZL5bank1)
	call _ZN3ramC1EP14portcontrollerP8shiftreghm
.LVL57:
	.loc 1 52 0
	mov r14,__zero_reg__
	ldi r17,lo8(64)
	mov r15,r17
	ldi r16,0
	ldi r17,0
	ldi r18,lo8(1)
	ldi r20,lo8(_ZL6addreg)
	ldi r21,hi8(_ZL6addreg)
	ldi r22,lo8(_ZL4port)
	ldi r23,hi8(_ZL4port)
	ldi r24,lo8(_ZL5bank2)
	ldi r25,hi8(_ZL5bank2)
	call _ZN3ramC1EP14portcontrollerP8shiftreghm
.LVL58:
	.loc 1 53 0
	mov r14,__zero_reg__
	ldi r17,lo8(96)
	mov r15,r17
	ldi r16,0
	ldi r17,0
	ldi r18,lo8(1)
	ldi r20,lo8(_ZL6addreg)
	ldi r21,hi8(_ZL6addreg)
	ldi r22,lo8(_ZL4port)
	ldi r23,hi8(_ZL4port)
	ldi r24,lo8(_ZL5bank3)
	ldi r25,hi8(_ZL5bank3)
	call _ZN3ramC1EP14portcontrollerP8shiftreghm
.LVL59:
	.loc 1 54 0
	mov r14,__zero_reg__
	ldi r17,lo8(-128)
	mov r15,r17
	ldi r16,0
	ldi r17,0
	ldi r18,lo8(1)
	ldi r20,lo8(_ZL6addreg)
	ldi r21,hi8(_ZL6addreg)
	ldi r22,lo8(_ZL4port)
	ldi r23,hi8(_ZL4port)
	ldi r24,lo8(_ZL5bank4)
	ldi r25,hi8(_ZL5bank4)
	call _ZN3ramC1EP14portcontrollerP8shiftreghm
.LVL60:
	.loc 1 56 0
	mov r14,__zero_reg__
	ldi r17,lo8(-96)
	mov r15,r17
	ldi r16,0
	ldi r17,0
	ldi r18,lo8(1)
	ldi r20,lo8(_ZL6addreg)
	ldi r21,hi8(_ZL6addreg)
	ldi r22,lo8(_ZL4port)
	ldi r23,hi8(_ZL4port)
	ldi r24,lo8(_ZL5bank5)
	ldi r25,hi8(_ZL5bank5)
	call _ZN3ramC1EP14portcontrollerP8shiftreghm
.LVL61:
	.loc 1 57 0
	mov r14,__zero_reg__
	ldi r17,lo8(-64)
	mov r15,r17
	ldi r16,0
	ldi r17,0
	ldi r18,lo8(1)
	ldi r20,lo8(_ZL6addreg)
	ldi r21,hi8(_ZL6addreg)
	ldi r22,lo8(_ZL4port)
	ldi r23,hi8(_ZL4port)
	ldi r24,lo8(_ZL5bank6)
	ldi r25,hi8(_ZL5bank6)
	call _ZN3ramC1EP14portcontrollerP8shiftreghm
.LVL62:
	.loc 1 58 0
	mov r14,__zero_reg__
	ldi r17,lo8(-32)
	mov r15,r17
	ldi r16,0
	ldi r17,0
	ldi r18,lo8(1)
	ldi r20,lo8(_ZL6addreg)
	ldi r21,hi8(_ZL6addreg)
	ldi r22,lo8(_ZL4port)
	ldi r23,hi8(_ZL4port)
	ldi r24,lo8(_ZL5bank7)
	ldi r25,hi8(_ZL5bank7)
	call _ZN3ramC1EP14portcontrollerP8shiftreghm
.LVL63:
	.loc 1 59 0
	mov r14,__zero_reg__
	mov r15,__zero_reg__
	ldi r16,lo8(1)
	ldi r17,0
	ldi r18,lo8(1)
	ldi r20,lo8(_ZL6addreg)
	ldi r21,hi8(_ZL6addreg)
	ldi r22,lo8(_ZL4port)
	ldi r23,hi8(_ZL4port)
	ldi r24,lo8(_ZL5bank8)
	ldi r25,hi8(_ZL5bank8)
	call _ZN3ramC1EP14portcontrollerP8shiftreghm
.LVL64:
	.loc 1 60 0
	mov r14,__zero_reg__
	ldi r17,lo8(32)
	mov r15,r17
	ldi r16,lo8(1)
	ldi r17,0
	ldi r18,lo8(1)
	ldi r20,lo8(_ZL6addreg)
	ldi r21,hi8(_ZL6addreg)
	ldi r22,lo8(_ZL4port)
	ldi r23,hi8(_ZL4port)
	ldi r24,lo8(_ZL5bank9)
	ldi r25,hi8(_ZL5bank9)
	call _ZN3ramC1EP14portcontrollerP8shiftreghm
.LVL65:
	.loc 1 62 0
	mov r12,__zero_reg__
	mov __tmp_reg__,r31
	ldi r31,lo8(96)
	mov r13,r31
	mov r31,__tmp_reg__
	clr r14
	inc r14
	mov r15,__zero_reg__
	ldi r16,0
	ldi r17,0
	ldi r18,0
	ldi r19,0
	ldi r20,lo8(_ZL6addreg)
	ldi r21,hi8(_ZL6addreg)
	ldi r22,lo8(_ZL4port)
	ldi r23,hi8(_ZL4port)
	ldi r24,lo8(_ZL4bios)
	ldi r25,hi8(_ZL4bios)
	call _ZN3romC1EP14portcontrollerP8shiftregy
.LVL66:
	.loc 1 63 0
	set
	clr r13
	bld r13,7
	ldi r18,0
	ldi r19,0
	ldi r20,lo8(_ZL6addreg)
	ldi r21,hi8(_ZL6addreg)
	ldi r22,lo8(_ZL4port)
	ldi r23,hi8(_ZL4port)
	ldi r24,lo8(_ZL8settings)
	ldi r25,hi8(_ZL8settings)
	call _ZN3romC1EP14portcontrollerP8shiftregy
.LVL67:
	.loc 1 64 0
	mov __tmp_reg__,r31
	ldi r31,lo8(-96)
	mov r13,r31
	mov r31,__tmp_reg__
	ldi r18,0
	ldi r19,0
	ldi r20,lo8(_ZL6addreg)
	ldi r21,hi8(_ZL6addreg)
	ldi r22,lo8(_ZL4port)
	ldi r23,hi8(_ZL4port)
	ldi r24,lo8(_ZL8program0)
	ldi r25,hi8(_ZL8program0)
	call _ZN3romC1EP14portcontrollerP8shiftregy
.LVL68:
	.loc 1 65 0
	mov __tmp_reg__,r31
	ldi r31,lo8(-64)
	mov r13,r31
	mov r31,__tmp_reg__
	ldi r18,0
	ldi r19,0
	ldi r20,lo8(_ZL6addreg)
	ldi r21,hi8(_ZL6addreg)
	ldi r22,lo8(_ZL4port)
	ldi r23,hi8(_ZL4port)
	ldi r24,lo8(_ZL8program1)
	ldi r25,hi8(_ZL8program1)
	call _ZN3romC1EP14portcontrollerP8shiftregy
.LVL69:
	.loc 1 66 0
	mov __tmp_reg__,r31
	ldi r31,lo8(-32)
	mov r13,r31
	mov r31,__tmp_reg__
	ldi r18,0
	ldi r19,0
	ldi r20,lo8(_ZL6addreg)
	ldi r21,hi8(_ZL6addreg)
	ldi r22,lo8(_ZL4port)
	ldi r23,hi8(_ZL4port)
	ldi r24,lo8(_ZL8program2)
	ldi r25,hi8(_ZL8program2)
	call _ZN3romC1EP14portcontrollerP8shiftregy
.LVL70:
	.loc 1 67 0
	mov r13,__zero_reg__
	set
	clr r14
	bld r14,1
	ldi r18,0
	ldi r19,0
	ldi r20,lo8(_ZL6addreg)
	ldi r21,hi8(_ZL6addreg)
	ldi r22,lo8(_ZL4port)
	ldi r23,hi8(_ZL4port)
	ldi r24,lo8(_ZL8program3)
	ldi r25,hi8(_ZL8program3)
	call _ZN3romC1EP14portcontrollerP8shiftregy
.LVL71:
	.loc 1 71 0
	mov r8,__zero_reg__
	mov r9,__zero_reg__
	mov r10,__zero_reg__
	mov r11,__zero_reg__
	mov r14,__zero_reg__
	ldi r16,lo8(2)
	ldi r18,lo8(1)
	ldi r20,lo8(_ZL6addreg)
	ldi r21,hi8(_ZL6addreg)
	ldi r22,lo8(_ZL4port)
	ldi r23,hi8(_ZL4port)
	ldi r24,lo8(_ZL6vbank0)
	ldi r25,hi8(_ZL6vbank0)
	call _ZN4VramC1EP14portcontrollerP8shiftreghhy
.LVL72:
	.loc 1 72 0
	set
	clr r9
	bld r9,5
	ldi r18,lo8(1)
	ldi r20,lo8(_ZL6addreg)
	ldi r21,hi8(_ZL6addreg)
	ldi r22,lo8(_ZL4port)
	ldi r23,hi8(_ZL4port)
	ldi r24,lo8(_ZL6vbank1)
	ldi r25,hi8(_ZL6vbank1)
	call _ZN4VramC1EP14portcontrollerP8shiftreghhy
.LVL73:
	.loc 1 73 0
	set
	clr r9
	bld r9,6
	ldi r18,lo8(1)
	ldi r20,lo8(_ZL6addreg)
	ldi r21,hi8(_ZL6addreg)
	ldi r22,lo8(_ZL4port)
	ldi r23,hi8(_ZL4port)
	ldi r24,lo8(_ZL6vbank2)
	ldi r25,hi8(_ZL6vbank2)
	call _ZN4VramC1EP14portcontrollerP8shiftreghhy
.LVL74:
	.loc 1 76 0
	ldi r24,lo8(16)
	ldi r30,lo8(_ZL6vbank0)
	ldi r31,hi8(_ZL6vbank0)
	ldi r26,lo8(_ZL12vrambanklist)
	ldi r27,hi8(_ZL12vrambanklist)
	0:
	ld r0,Z+
	st X+,r0
	dec r24
	brne 0b
	ldi r24,lo8(16)
	ldi r30,lo8(_ZL6vbank1)
	ldi r31,hi8(_ZL6vbank1)
	ldi r26,lo8(_ZL12vrambanklist+16)
	ldi r27,hi8(_ZL12vrambanklist+16)
	0:
	ld r0,Z+
	st X+,r0
	dec r24
	brne 0b
	ldi r24,lo8(16)
	ldi r30,lo8(_ZL6vbank2)
	ldi r31,hi8(_ZL6vbank2)
	ldi r26,lo8(_ZL12vrambanklist+32)
	ldi r27,hi8(_ZL12vrambanklist+32)
	0:
	ld r0,Z+
	st X+,r0
	dec r24
	brne 0b
	.loc 1 80 0
	ldi r24,lo8(_ZL10irqhandler)
	ldi r25,hi8(_ZL10irqhandler)
	call _ZN10interruptsC1Ev
.LVL75:
	.loc 1 81 0
	ldi r24,lo8(_ZL9interpret)
	ldi r25,hi8(_ZL9interpret)
	call _ZN11interpreterC1Ev
.LVL76:
	.loc 1 82 0
	ldi r24,lo8(_ZL2kb)
	ldi r25,hi8(_ZL2kb)
	call _ZN8keyboardC1Ev
.LVL77:
/* epilogue start */
.LBE29:
.LBE28:
	.loc 1 231 0
	pop r17
	pop r16
	pop r15
	pop r14
	pop r13
	pop r12
	pop r11
	pop r10
	pop r9
	pop r8
	ret
	.cfi_endproc
.LFE32:
	.size	_GLOBAL__sub_I__Z10runprogramv, .-_GLOBAL__sub_I__Z10runprogramv
	.global __do_global_ctors
	.section .ctors,"a",@progbits
	.p2align	1
	.word	gs(_GLOBAL__sub_I__Z10runprogramv)
	.section	.text._GLOBAL__sub_D__Z10runprogramv,"ax",@progbits
	.type	_GLOBAL__sub_D__Z10runprogramv, @function
_GLOBAL__sub_D__Z10runprogramv:
.LFB33:
	.loc 1 231 0
	.cfi_startproc
/* prologue: function */
/* frame size = 0 */
/* stack size = 0 */
.L__stack_usage = 0
.LVL78:
.LBB32:
.LBB33:
	.loc 1 82 0
	ldi r24,lo8(_ZL2kb)
	ldi r25,hi8(_ZL2kb)
	call _ZN8keyboardD1Ev
.LVL79:
	.loc 1 81 0
	ldi r24,lo8(_ZL9interpret)
	ldi r25,hi8(_ZL9interpret)
	call _ZN11interpreterD1Ev
.LVL80:
	.loc 1 80 0
	ldi r24,lo8(_ZL10irqhandler)
	ldi r25,hi8(_ZL10irqhandler)
	call _ZN10interruptsD1Ev
.LVL81:
	.loc 1 76 0
	ldi r24,lo8(_ZL12vrambanklist+32)
	ldi r25,hi8(_ZL12vrambanklist+32)
	call _ZN4VramD1Ev
.LVL82:
	ldi r24,lo8(_ZL12vrambanklist+16)
	ldi r25,hi8(_ZL12vrambanklist+16)
	call _ZN4VramD1Ev
.LVL83:
	ldi r24,lo8(_ZL12vrambanklist)
	ldi r25,hi8(_ZL12vrambanklist)
	call _ZN4VramD1Ev
.LVL84:
	.loc 1 73 0
	ldi r24,lo8(_ZL6vbank2)
	ldi r25,hi8(_ZL6vbank2)
	call _ZN4VramD1Ev
.LVL85:
	.loc 1 72 0
	ldi r24,lo8(_ZL6vbank1)
	ldi r25,hi8(_ZL6vbank1)
	call _ZN4VramD1Ev
.LVL86:
	.loc 1 71 0
	ldi r24,lo8(_ZL6vbank0)
	ldi r25,hi8(_ZL6vbank0)
	call _ZN4VramD1Ev
.LVL87:
	.loc 1 67 0
	ldi r24,lo8(_ZL8program3)
	ldi r25,hi8(_ZL8program3)
	call _ZN3romD1Ev
.LVL88:
	.loc 1 66 0
	ldi r24,lo8(_ZL8program2)
	ldi r25,hi8(_ZL8program2)
	call _ZN3romD1Ev
.LVL89:
	.loc 1 65 0
	ldi r24,lo8(_ZL8program1)
	ldi r25,hi8(_ZL8program1)
	call _ZN3romD1Ev
.LVL90:
	.loc 1 64 0
	ldi r24,lo8(_ZL8program0)
	ldi r25,hi8(_ZL8program0)
	call _ZN3romD1Ev
.LVL91:
	.loc 1 63 0
	ldi r24,lo8(_ZL8settings)
	ldi r25,hi8(_ZL8settings)
	call _ZN3romD1Ev
.LVL92:
	.loc 1 62 0
	ldi r24,lo8(_ZL4bios)
	ldi r25,hi8(_ZL4bios)
	call _ZN3romD1Ev
.LVL93:
	.loc 1 60 0
	ldi r24,lo8(_ZL5bank9)
	ldi r25,hi8(_ZL5bank9)
	call _ZN3ramD1Ev
.LVL94:
	.loc 1 59 0
	ldi r24,lo8(_ZL5bank8)
	ldi r25,hi8(_ZL5bank8)
	call _ZN3ramD1Ev
.LVL95:
	.loc 1 58 0
	ldi r24,lo8(_ZL5bank7)
	ldi r25,hi8(_ZL5bank7)
	call _ZN3ramD1Ev
.LVL96:
	.loc 1 57 0
	ldi r24,lo8(_ZL5bank6)
	ldi r25,hi8(_ZL5bank6)
	call _ZN3ramD1Ev
.LVL97:
	.loc 1 56 0
	ldi r24,lo8(_ZL5bank5)
	ldi r25,hi8(_ZL5bank5)
	call _ZN3ramD1Ev
.LVL98:
	.loc 1 54 0
	ldi r24,lo8(_ZL5bank4)
	ldi r25,hi8(_ZL5bank4)
	call _ZN3ramD1Ev
.LVL99:
	.loc 1 53 0
	ldi r24,lo8(_ZL5bank3)
	ldi r25,hi8(_ZL5bank3)
	call _ZN3ramD1Ev
.LVL100:
	.loc 1 52 0
	ldi r24,lo8(_ZL5bank2)
	ldi r25,hi8(_ZL5bank2)
	call _ZN3ramD1Ev
.LVL101:
	.loc 1 51 0
	ldi r24,lo8(_ZL5bank1)
	ldi r25,hi8(_ZL5bank1)
	call _ZN3ramD1Ev
.LVL102:
	.loc 1 50 0
	ldi r24,lo8(_ZL5bank0)
	ldi r25,hi8(_ZL5bank0)
	call _ZN3ramD1Ev
.LVL103:
	.loc 1 49 0
	ldi r24,lo8(_ZL6serial)
	ldi r25,hi8(_ZL6serial)
	call _ZN6SerialD1Ev
.LVL104:
	.loc 1 48 0
	ldi r24,lo8(_ZL5csreg)
	ldi r25,hi8(_ZL5csreg)
	call _ZN8shiftregD1Ev
.LVL105:
	.loc 1 47 0
	ldi r24,lo8(_ZL6addreg)
	ldi r25,hi8(_ZL6addreg)
	call _ZN8shiftregD1Ev
.LVL106:
	.loc 1 46 0
	ldi r24,lo8(_ZL4port)
	ldi r25,hi8(_ZL4port)
	call _ZN14portcontrollerD1Ev
.LVL107:
	ret
.LBE33:
.LBE32:
	.cfi_endproc
.LFE33:
	.size	_GLOBAL__sub_D__Z10runprogramv, .-_GLOBAL__sub_D__Z10runprogramv
	.global __do_global_dtors
	.section .dtors,"a",@progbits
	.p2align	1
	.word	gs(_GLOBAL__sub_D__Z10runprogramv)
	.section	.bss._ZL2kb,"aw",@nobits
	.type	_ZL2kb, @object
	.size	_ZL2kb, 10
_ZL2kb:
	.zero	10
	.section	.bss._ZL9interpret,"aw",@nobits
	.type	_ZL9interpret, @object
	.size	_ZL9interpret, 290
_ZL9interpret:
	.zero	290
	.section	.bss._ZL10irqhandler,"aw",@nobits
	.type	_ZL10irqhandler, @object
	.size	_ZL10irqhandler, 2
_ZL10irqhandler:
	.zero	2
	.section	.bss._ZL12vrambanklist,"aw",@nobits
	.type	_ZL12vrambanklist, @object
	.size	_ZL12vrambanklist, 48
_ZL12vrambanklist:
	.zero	48
	.section	.rodata._ZL11rambanklist,"a",@progbits
	.type	_ZL11rambanklist, @object
	.size	_ZL11rambanklist, 20
_ZL11rambanklist:
	.word	_ZL5bank0
	.word	_ZL5bank1
	.word	_ZL5bank2
	.word	_ZL5bank3
	.word	_ZL5bank4
	.word	_ZL5bank5
	.word	_ZL5bank6
	.word	_ZL5bank7
	.word	_ZL5bank8
	.word	_ZL5bank9
	.section	.bss._ZL6vbank2,"aw",@nobits
	.type	_ZL6vbank2, @object
	.size	_ZL6vbank2, 16
_ZL6vbank2:
	.zero	16
	.section	.bss._ZL6vbank1,"aw",@nobits
	.type	_ZL6vbank1, @object
	.size	_ZL6vbank1, 16
_ZL6vbank1:
	.zero	16
	.section	.bss._ZL6vbank0,"aw",@nobits
	.type	_ZL6vbank0, @object
	.size	_ZL6vbank0, 16
_ZL6vbank0:
	.zero	16
	.section	.bss._ZL8program3,"aw",@nobits
	.type	_ZL8program3, @object
	.size	_ZL8program3, 8
_ZL8program3:
	.zero	8
	.section	.bss._ZL8program2,"aw",@nobits
	.type	_ZL8program2, @object
	.size	_ZL8program2, 8
_ZL8program2:
	.zero	8
	.section	.bss._ZL8program1,"aw",@nobits
	.type	_ZL8program1, @object
	.size	_ZL8program1, 8
_ZL8program1:
	.zero	8
	.section	.bss._ZL8program0,"aw",@nobits
	.type	_ZL8program0, @object
	.size	_ZL8program0, 8
_ZL8program0:
	.zero	8
	.section	.bss._ZL8settings,"aw",@nobits
	.type	_ZL8settings, @object
	.size	_ZL8settings, 8
_ZL8settings:
	.zero	8
	.section	.bss._ZL4bios,"aw",@nobits
	.type	_ZL4bios, @object
	.size	_ZL4bios, 8
_ZL4bios:
	.zero	8
	.section	.bss._ZL5bank9,"aw",@nobits
	.type	_ZL5bank9, @object
	.size	_ZL5bank9, 12
_ZL5bank9:
	.zero	12
	.section	.bss._ZL5bank8,"aw",@nobits
	.type	_ZL5bank8, @object
	.size	_ZL5bank8, 12
_ZL5bank8:
	.zero	12
	.section	.bss._ZL5bank7,"aw",@nobits
	.type	_ZL5bank7, @object
	.size	_ZL5bank7, 12
_ZL5bank7:
	.zero	12
	.section	.bss._ZL5bank6,"aw",@nobits
	.type	_ZL5bank6, @object
	.size	_ZL5bank6, 12
_ZL5bank6:
	.zero	12
	.section	.bss._ZL5bank5,"aw",@nobits
	.type	_ZL5bank5, @object
	.size	_ZL5bank5, 12
_ZL5bank5:
	.zero	12
	.section	.bss._ZL5bank4,"aw",@nobits
	.type	_ZL5bank4, @object
	.size	_ZL5bank4, 12
_ZL5bank4:
	.zero	12
	.section	.bss._ZL5bank3,"aw",@nobits
	.type	_ZL5bank3, @object
	.size	_ZL5bank3, 12
_ZL5bank3:
	.zero	12
	.section	.bss._ZL5bank2,"aw",@nobits
	.type	_ZL5bank2, @object
	.size	_ZL5bank2, 12
_ZL5bank2:
	.zero	12
	.section	.bss._ZL5bank1,"aw",@nobits
	.type	_ZL5bank1, @object
	.size	_ZL5bank1, 12
_ZL5bank1:
	.zero	12
	.section	.bss._ZL5bank0,"aw",@nobits
	.type	_ZL5bank0, @object
	.size	_ZL5bank0, 12
_ZL5bank0:
	.zero	12
	.section	.bss._ZL6serial,"aw",@nobits
	.type	_ZL6serial, @object
	.size	_ZL6serial, 8
_ZL6serial:
	.zero	8
	.section	.bss._ZL5csreg,"aw",@nobits
	.type	_ZL5csreg, @object
	.size	_ZL5csreg, 13
_ZL5csreg:
	.zero	13
	.section	.bss._ZL6addreg,"aw",@nobits
	.type	_ZL6addreg, @object
	.size	_ZL6addreg, 13
_ZL6addreg:
	.zero	13
	.section	.bss._ZL4port,"aw",@nobits
	.type	_ZL4port, @object
	.size	_ZL4port, 1
_ZL4port:
	.zero	1
	.section	.progmem.data._ZL7command,"a",@progbits
	.type	_ZL7command, @object
	.size	_ZL7command, 8
_ZL7command:
	.word	_ZL3run
	.word	_ZL2cd
	.word	_ZL2ls
	.word	_ZL4load
	.section	.progmem.data._ZL4load,"a",@progbits
	.type	_ZL4load, @object
	.size	_ZL4load, 5
_ZL4load:
	.string	"load"
	.section	.progmem.data._ZL2ls,"a",@progbits
	.type	_ZL2ls, @object
	.size	_ZL2ls, 3
_ZL2ls:
	.string	"ls"
	.section	.progmem.data._ZL2cd,"a",@progbits
	.type	_ZL2cd, @object
	.size	_ZL2cd, 3
_ZL2cd:
	.string	"cd"
	.section	.progmem.data._ZL3run,"a",@progbits
	.type	_ZL3run, @object
	.size	_ZL3run, 3
_ZL3run:
	.string	"./"
	.text
.Letext0:
	.file 2 "c:\\program files (x86)\\atmel\\studio\\7.0\\toolchain\\avr8\\avr8-gnu-toolchain\\avr\\include\\stdint.h"
	.file 3 ".././drivers/io/port controller/portcontroller.h"
	.file 4 ".././drivers/io/shift register/shiftreg.h"
	.file 5 ".././drivers/io/keyboard/../../../cpu/communication/Serial.h"
	.file 6 ".././drivers/io/keyboard/keyboard.h"
	.file 7 ".././drivers/mem/volatile/ram.h"
	.file 8 ".././drivers/mem/volatile/Vram.h"
	.file 9 ".././drivers/mem/rom.h"
	.file 10 ".././cpu/interrupts/interrupts.h"
	.file 11 ".././cpu/interpreter/interpreter.h"
	.file 12 ".././constants.h"
	.file 13 "c:\\program files (x86)\\atmel\\studio\\7.0\\toolchain\\avr8\\avr8-gnu-toolchain\\avr\\include\\stdlib.h"
	.file 14 "c:\\program files (x86)\\atmel\\studio\\7.0\\toolchain\\avr8\\avr8-gnu-toolchain\\avr\\include\\avr\\pgmspace.h"