
os.elf:     file format elf32-avr

Sections:
Idx Name          Size      VMA       LMA       File off  Algn
  0 .data         00000006  00800100  00006160  000061f4  2**0
                  CONTENTS, ALLOC, LOAD, DATA
  1 .text         00006160  00000000  00000000  00000094  2**1
                  CONTENTS, ALLOC, LOAD, READONLY, CODE
  2 .bss          0000023d  00800106  00800106  000061fa  2**0
                  ALLOC
  3 .comment      0000005c  00000000  00000000  000061fa  2**0
                  CONTENTS, READONLY
  4 .note.gnu.avr.deviceinfo 00000040  00000000  00000000  00006258  2**2
                  CONTENTS, READONLY
  5 .debug_aranges 000005e8  00000000  00000000  00006298  2**0
                  CONTENTS, READONLY, DEBUGGING
  6 .debug_info   00009d89  00000000  00000000  00006880  2**0
                  CONTENTS, READONLY, DEBUGGING
  7 .debug_abbrev 00001d4a  00000000  00000000  00010609  2**0
                  CONTENTS, READONLY, DEBUGGING
  8 .debug_line   000034ad  00000000  00000000  00012353  2**0
                  CONTENTS, READONLY, DEBUGGING
  9 .debug_frame  00001630  00000000  00000000  00015800  2**2
                  CONTENTS, READONLY, DEBUGGING
 10 .debug_str    00002100  00000000  00000000  00016e30  2**0
                  CONTENTS, READONLY, DEBUGGING
 11 .debug_loc    0000303c  00000000  00000000  00018f30  2**0
                  CONTENTS, READONLY, DEBUGGING
 12 .debug_ranges 00000548  00000000  00000000  0001bf6c  2**0
                  CONTENTS, READONLY, DEBUGGING

Disassembly of section .text:

00000000 <__vectors>:
       0:	0c 94 6e 00 	jmp	0xdc	; 0xdc <__dtors_end>
       4:	0c 94 96 00 	jmp	0x12c	; 0x12c <__bad_interrupt>
       8:	0c 94 96 00 	jmp	0x12c	; 0x12c <__bad_interrupt>
       c:	0c 94 96 00 	jmp	0x12c	; 0x12c <__bad_interrupt>
      10:	0c 94 96 00 	jmp	0x12c	; 0x12c <__bad_interrupt>
      14:	0c 94 96 00 	jmp	0x12c	; 0x12c <__bad_interrupt>
      18:	0c 94 96 00 	jmp	0x12c	; 0x12c <__bad_interrupt>
      1c:	0c 94 96 00 	jmp	0x12c	; 0x12c <__bad_interrupt>
      20:	0c 94 96 00 	jmp	0x12c	; 0x12c <__bad_interrupt>
      24:	0c 94 96 00 	jmp	0x12c	; 0x12c <__bad_interrupt>
      28:	0c 94 96 00 	jmp	0x12c	; 0x12c <__bad_interrupt>
      2c:	0c 94 96 00 	jmp	0x12c	; 0x12c <__bad_interrupt>
      30:	0c 94 96 00 	jmp	0x12c	; 0x12c <__bad_interrupt>
      34:	0c 94 96 00 	jmp	0x12c	; 0x12c <__bad_interrupt>
      38:	0c 94 96 00 	jmp	0x12c	; 0x12c <__bad_interrupt>
      3c:	0c 94 96 00 	jmp	0x12c	; 0x12c <__bad_interrupt>
      40:	0c 94 96 00 	jmp	0x12c	; 0x12c <__bad_interrupt>
      44:	0c 94 96 00 	jmp	0x12c	; 0x12c <__bad_interrupt>
      48:	0c 94 96 00 	jmp	0x12c	; 0x12c <__bad_interrupt>
      4c:	0c 94 96 00 	jmp	0x12c	; 0x12c <__bad_interrupt>
      50:	0c 94 96 00 	jmp	0x12c	; 0x12c <__bad_interrupt>
      54:	0c 94 96 00 	jmp	0x12c	; 0x12c <__bad_interrupt>
      58:	0c 94 96 00 	jmp	0x12c	; 0x12c <__bad_interrupt>
      5c:	0c 94 96 00 	jmp	0x12c	; 0x12c <__bad_interrupt>
      60:	0c 94 96 00 	jmp	0x12c	; 0x12c <__bad_interrupt>
      64:	0c 94 96 00 	jmp	0x12c	; 0x12c <__bad_interrupt>
      68:	0c 94 96 00 	jmp	0x12c	; 0x12c <__bad_interrupt>
      6c:	0c 94 96 00 	jmp	0x12c	; 0x12c <__bad_interrupt>
      70:	0c 94 96 00 	jmp	0x12c	; 0x12c <__bad_interrupt>
      74:	0c 94 96 00 	jmp	0x12c	; 0x12c <__bad_interrupt>
      78:	0c 94 96 00 	jmp	0x12c	; 0x12c <__bad_interrupt>
      7c:	a4 01       	movw	r20, r8
      7e:	bd 01       	movw	r22, r26
      80:	d0 01       	movw	r26, r0
      82:	e3 01       	movw	r28, r6
      84:	f5 01       	movw	r30, r10
      86:	08 02       	muls	r16, r24
      88:	1b 02       	muls	r17, r27
      8a:	2e 02       	muls	r18, r30

0000008c <__trampolines_end>:
      8c:	63 64       	ori	r22, 0x43	; 67
      8e:	69 6e       	ori	r22, 0xE9	; 233
      90:	6f 70       	andi	r22, 0x0F	; 15
      92:	73 75       	andi	r23, 0x53	; 83
      94:	78 58       	subi	r23, 0x88	; 136
      96:	5b 00       	.word	0x005b	; ????

00000098 <_ZL3run>:
      98:	72 75 6e 00                                         run.

0000009c <_ZL4run2>:
      9c:	2e 2f 00                                            ./.

0000009f <_ZL2cd>:
      9f:	63 64 00                                            cd.

000000a2 <_ZL9cartridge>:
      a2:	63 61 72 74 72 69 64 67 65 00                       cartridge.

000000ac <_ZL4load>:
      ac:	6c 6f 61 64 00                                      load.

000000b1 <_ZL14loadcartridge1>:
      b1:	6c 6f 61 64 20 63 61 72 74 72 69 64 67 65 20 31     load cartridge 1
	...

000000c2 <_ZL11rambanklist>:
      c2:	29 01 35 01 41 01 4d 01 59 01 65 01 71 01 7d 01     ).5.A.M.Y.e.q.}.
      d2:	89 01 95 01 a1 01                                   ......

000000d8 <__ctors_start>:
      d8:	7f 2a       	or	r7, r31

000000da <__ctors_end>:
      da:	8c 2a       	or	r8, r28

000000dc <__dtors_end>:
      dc:	11 24       	eor	r1, r1
      de:	1f be       	out	0x3f, r1	; 63
      e0:	cf ef       	ldi	r28, 0xFF	; 255
      e2:	d0 e1       	ldi	r29, 0x10	; 16
      e4:	de bf       	out	0x3e, r29	; 62
      e6:	cd bf       	out	0x3d, r28	; 61

000000e8 <__do_clear_bss>:
      e8:	23 e0       	ldi	r18, 0x03	; 3
      ea:	a6 e0       	ldi	r26, 0x06	; 6
      ec:	b1 e0       	ldi	r27, 0x01	; 1
      ee:	01 c0       	rjmp	.+2      	; 0xf2 <.do_clear_bss_start>

000000f0 <.do_clear_bss_loop>:
      f0:	1d 92       	st	X+, r1

000000f2 <.do_clear_bss_start>:
      f2:	a3 34       	cpi	r26, 0x43	; 67
      f4:	b2 07       	cpc	r27, r18
      f6:	e1 f7       	brne	.-8      	; 0xf0 <.do_clear_bss_loop>

000000f8 <__do_copy_data>:
      f8:	11 e0       	ldi	r17, 0x01	; 1
      fa:	a0 e0       	ldi	r26, 0x00	; 0
      fc:	b1 e0       	ldi	r27, 0x01	; 1
      fe:	e0 e6       	ldi	r30, 0x60	; 96
     100:	f1 e6       	ldi	r31, 0x61	; 97
     102:	02 c0       	rjmp	.+4      	; 0x108 <__do_copy_data+0x10>
     104:	05 90       	lpm	r0, Z+
     106:	0d 92       	st	X+, r0
     108:	a6 30       	cpi	r26, 0x06	; 6
     10a:	b1 07       	cpc	r27, r17
     10c:	d9 f7       	brne	.-10     	; 0x104 <__do_copy_data+0xc>

0000010e <__do_global_ctors>:
     10e:	10 e0       	ldi	r17, 0x00	; 0
     110:	cd e6       	ldi	r28, 0x6D	; 109
     112:	d0 e0       	ldi	r29, 0x00	; 0
     114:	04 c0       	rjmp	.+8      	; 0x11e <__do_global_ctors+0x10>
     116:	21 97       	sbiw	r28, 0x01	; 1
     118:	fe 01       	movw	r30, r28
     11a:	0e 94 c0 2b 	call	0x5780	; 0x5780 <__tablejump2__>
     11e:	cc 36       	cpi	r28, 0x6C	; 108
     120:	d1 07       	cpc	r29, r17
     122:	c9 f7       	brne	.-14     	; 0x116 <__do_global_ctors+0x8>
     124:	0e 94 4e 27 	call	0x4e9c	; 0x4e9c <main>
     128:	0c 94 a3 30 	jmp	0x6146	; 0x6146 <__do_global_dtors>

0000012c <__bad_interrupt>:
     12c:	0c 94 00 00 	jmp	0	; 0x0 <__vectors>

00000130 <_ZN6SerialC1EP8shiftregP14portcontrollerccc>:
	csreg->shiftout8(cs);
	char r=0;
	send(reqid,cs);
	r=recive(cs);
	return r;
}
     130:	ef 92       	push	r14
     132:	0f 93       	push	r16
     134:	cf 93       	push	r28
     136:	df 93       	push	r29
     138:	cd b7       	in	r28, 0x3d	; 61
     13a:	de b7       	in	r29, 0x3e	; 62
     13c:	29 97       	sbiw	r28, 0x09	; 9
     13e:	0f b6       	in	r0, 0x3f	; 63
     140:	f8 94       	cli
     142:	de bf       	out	0x3e, r29	; 62
     144:	0f be       	out	0x3f, r0	; 63
     146:	cd bf       	out	0x3d, r28	; 61
     148:	9a 83       	std	Y+2, r25	; 0x02
     14a:	89 83       	std	Y+1, r24	; 0x01
     14c:	7c 83       	std	Y+4, r23	; 0x04
     14e:	6b 83       	std	Y+3, r22	; 0x03
     150:	5e 83       	std	Y+6, r21	; 0x06
     152:	4d 83       	std	Y+5, r20	; 0x05
     154:	2f 83       	std	Y+7, r18	; 0x07
     156:	08 87       	std	Y+8, r16	; 0x08
     158:	e9 86       	std	Y+9, r14	; 0x09
     15a:	89 81       	ldd	r24, Y+1	; 0x01
     15c:	9a 81       	ldd	r25, Y+2	; 0x02
     15e:	2b 81       	ldd	r18, Y+3	; 0x03
     160:	3c 81       	ldd	r19, Y+4	; 0x04
     162:	fc 01       	movw	r30, r24
     164:	33 83       	std	Z+3, r19	; 0x03
     166:	22 83       	std	Z+2, r18	; 0x02
     168:	89 81       	ldd	r24, Y+1	; 0x01
     16a:	9a 81       	ldd	r25, Y+2	; 0x02
     16c:	2d 81       	ldd	r18, Y+5	; 0x05
     16e:	3e 81       	ldd	r19, Y+6	; 0x06
     170:	fc 01       	movw	r30, r24
     172:	31 83       	std	Z+1, r19	; 0x01
     174:	20 83       	st	Z, r18
     176:	89 81       	ldd	r24, Y+1	; 0x01
     178:	9a 81       	ldd	r25, Y+2	; 0x02
     17a:	2f 81       	ldd	r18, Y+7	; 0x07
     17c:	fc 01       	movw	r30, r24
     17e:	25 83       	std	Z+5, r18	; 0x05
     180:	89 81       	ldd	r24, Y+1	; 0x01
     182:	9a 81       	ldd	r25, Y+2	; 0x02
     184:	28 85       	ldd	r18, Y+8	; 0x08
     186:	fc 01       	movw	r30, r24
     188:	26 83       	std	Z+6, r18	; 0x06
     18a:	89 81       	ldd	r24, Y+1	; 0x01
     18c:	9a 81       	ldd	r25, Y+2	; 0x02
     18e:	29 85       	ldd	r18, Y+9	; 0x09
     190:	fc 01       	movw	r30, r24
     192:	27 83       	std	Z+7, r18	; 0x07
     194:	00 00       	nop
     196:	29 96       	adiw	r28, 0x09	; 9
     198:	0f b6       	in	r0, 0x3f	; 63
     19a:	f8 94       	cli
     19c:	de bf       	out	0x3e, r29	; 62
     19e:	0f be       	out	0x3f, r0	; 63
     1a0:	cd bf       	out	0x3d, r28	; 61
     1a2:	df 91       	pop	r29
     1a4:	cf 91       	pop	r28
     1a6:	0f 91       	pop	r16
     1a8:	ef 90       	pop	r14
     1aa:	08 95       	ret

000001ac <_ZN6SerialD1Ev>:
// default destructor
Serial::~Serial()
     1ac:	cf 93       	push	r28
     1ae:	df 93       	push	r29
     1b0:	00 d0       	rcall	.+0      	; 0x1b2 <_ZN6SerialD1Ev+0x6>
     1b2:	cd b7       	in	r28, 0x3d	; 61
     1b4:	de b7       	in	r29, 0x3e	; 62
     1b6:	9a 83       	std	Y+2, r25	; 0x02
     1b8:	89 83       	std	Y+1, r24	; 0x01
{
} //~serial
     1ba:	00 00       	nop
     1bc:	0f 90       	pop	r0
     1be:	0f 90       	pop	r0
     1c0:	df 91       	pop	r29
     1c2:	cf 91       	pop	r28
     1c4:	08 95       	ret

000001c6 <_ZN11interpreter8indexregC1Ev>:
	addressptr+=offset;
}
void interpreter::jmppcb(uint16_t offset)
{
	addressptr-=offset;
}
     1c6:	cf 93       	push	r28
     1c8:	df 93       	push	r29
     1ca:	00 d0       	rcall	.+0      	; 0x1cc <_ZN11interpreter8indexregC1Ev+0x6>
     1cc:	cd b7       	in	r28, 0x3d	; 61
     1ce:	de b7       	in	r29, 0x3e	; 62
     1d0:	9a 83       	std	Y+2, r25	; 0x02
     1d2:	89 83       	std	Y+1, r24	; 0x01
     1d4:	89 81       	ldd	r24, Y+1	; 0x01
     1d6:	9a 81       	ldd	r25, Y+2	; 0x02
     1d8:	fc 01       	movw	r30, r24
     1da:	11 82       	std	Z+1, r1	; 0x01
     1dc:	10 82       	st	Z, r1
     1de:	89 81       	ldd	r24, Y+1	; 0x01
     1e0:	9a 81       	ldd	r25, Y+2	; 0x02
     1e2:	fc 01       	movw	r30, r24
     1e4:	13 82       	std	Z+3, r1	; 0x03
     1e6:	12 82       	std	Z+2, r1	; 0x02
     1e8:	00 00       	nop
     1ea:	0f 90       	pop	r0
     1ec:	0f 90       	pop	r0
     1ee:	df 91       	pop	r29
     1f0:	cf 91       	pop	r28
     1f2:	08 95       	ret

000001f4 <_ZN11interpreter8indexregC1EPcS1_>:
     1f4:	cf 93       	push	r28
     1f6:	df 93       	push	r29
     1f8:	00 d0       	rcall	.+0      	; 0x1fa <_ZN11interpreter8indexregC1EPcS1_+0x6>
     1fa:	00 d0       	rcall	.+0      	; 0x1fc <_ZN11interpreter8indexregC1EPcS1_+0x8>
     1fc:	00 d0       	rcall	.+0      	; 0x1fe <_ZN11interpreter8indexregC1EPcS1_+0xa>
     1fe:	cd b7       	in	r28, 0x3d	; 61
     200:	de b7       	in	r29, 0x3e	; 62
     202:	9a 83       	std	Y+2, r25	; 0x02
     204:	89 83       	std	Y+1, r24	; 0x01
     206:	7c 83       	std	Y+4, r23	; 0x04
     208:	6b 83       	std	Y+3, r22	; 0x03
     20a:	5e 83       	std	Y+6, r21	; 0x06
     20c:	4d 83       	std	Y+5, r20	; 0x05
     20e:	89 81       	ldd	r24, Y+1	; 0x01
     210:	9a 81       	ldd	r25, Y+2	; 0x02
     212:	2b 81       	ldd	r18, Y+3	; 0x03
     214:	3c 81       	ldd	r19, Y+4	; 0x04
     216:	fc 01       	movw	r30, r24
     218:	31 83       	std	Z+1, r19	; 0x01
     21a:	20 83       	st	Z, r18
     21c:	89 81       	ldd	r24, Y+1	; 0x01
     21e:	9a 81       	ldd	r25, Y+2	; 0x02
     220:	2d 81       	ldd	r18, Y+5	; 0x05
     222:	3e 81       	ldd	r19, Y+6	; 0x06
     224:	fc 01       	movw	r30, r24
     226:	33 83       	std	Z+3, r19	; 0x03
     228:	22 83       	std	Z+2, r18	; 0x02
     22a:	00 00       	nop
     22c:	26 96       	adiw	r28, 0x06	; 6
     22e:	0f b6       	in	r0, 0x3f	; 63
     230:	f8 94       	cli
     232:	de bf       	out	0x3e, r29	; 62
     234:	0f be       	out	0x3f, r0	; 63
     236:	cd bf       	out	0x3d, r28	; 61
     238:	df 91       	pop	r29
     23a:	cf 91       	pop	r28
     23c:	08 95       	ret

0000023e <_ZN11interpreter8indexreg6getValEv>:
     23e:	cf 93       	push	r28
     240:	df 93       	push	r29
     242:	00 d0       	rcall	.+0      	; 0x244 <_ZN11interpreter8indexreg6getValEv+0x6>
     244:	cd b7       	in	r28, 0x3d	; 61
     246:	de b7       	in	r29, 0x3e	; 62
     248:	9a 83       	std	Y+2, r25	; 0x02
     24a:	89 83       	std	Y+1, r24	; 0x01
     24c:	89 81       	ldd	r24, Y+1	; 0x01
     24e:	9a 81       	ldd	r25, Y+2	; 0x02
     250:	fc 01       	movw	r30, r24
     252:	82 81       	ldd	r24, Z+2	; 0x02
     254:	93 81       	ldd	r25, Z+3	; 0x03
     256:	fc 01       	movw	r30, r24
     258:	80 81       	ld	r24, Z
     25a:	88 2f       	mov	r24, r24
     25c:	90 e0       	ldi	r25, 0x00	; 0
     25e:	38 2f       	mov	r19, r24
     260:	22 27       	eor	r18, r18
     262:	89 81       	ldd	r24, Y+1	; 0x01
     264:	9a 81       	ldd	r25, Y+2	; 0x02
     266:	fc 01       	movw	r30, r24
     268:	80 81       	ld	r24, Z
     26a:	91 81       	ldd	r25, Z+1	; 0x01
     26c:	fc 01       	movw	r30, r24
     26e:	80 81       	ld	r24, Z
     270:	88 2f       	mov	r24, r24
     272:	90 e0       	ldi	r25, 0x00	; 0
     274:	82 2b       	or	r24, r18
     276:	93 2b       	or	r25, r19
     278:	0f 90       	pop	r0
     27a:	0f 90       	pop	r0
     27c:	df 91       	pop	r29
     27e:	cf 91       	pop	r28
     280:	08 95       	ret

00000282 <_ZN11interpreter8indexreg8setValueEj>:
     282:	cf 93       	push	r28
     284:	df 93       	push	r29
     286:	00 d0       	rcall	.+0      	; 0x288 <_ZN11interpreter8indexreg8setValueEj+0x6>
     288:	00 d0       	rcall	.+0      	; 0x28a <_ZN11interpreter8indexreg8setValueEj+0x8>
     28a:	cd b7       	in	r28, 0x3d	; 61
     28c:	de b7       	in	r29, 0x3e	; 62
     28e:	9a 83       	std	Y+2, r25	; 0x02
     290:	89 83       	std	Y+1, r24	; 0x01
     292:	7c 83       	std	Y+4, r23	; 0x04
     294:	6b 83       	std	Y+3, r22	; 0x03
     296:	89 81       	ldd	r24, Y+1	; 0x01
     298:	9a 81       	ldd	r25, Y+2	; 0x02
     29a:	fc 01       	movw	r30, r24
     29c:	82 81       	ldd	r24, Z+2	; 0x02
     29e:	93 81       	ldd	r25, Z+3	; 0x03
     2a0:	2b 81       	ldd	r18, Y+3	; 0x03
     2a2:	3c 81       	ldd	r19, Y+4	; 0x04
     2a4:	23 2f       	mov	r18, r19
     2a6:	33 27       	eor	r19, r19
     2a8:	fc 01       	movw	r30, r24
     2aa:	20 83       	st	Z, r18
     2ac:	89 81       	ldd	r24, Y+1	; 0x01
     2ae:	9a 81       	ldd	r25, Y+2	; 0x02
     2b0:	fc 01       	movw	r30, r24
     2b2:	80 81       	ld	r24, Z
     2b4:	91 81       	ldd	r25, Z+1	; 0x01
     2b6:	2b 81       	ldd	r18, Y+3	; 0x03
     2b8:	fc 01       	movw	r30, r24
     2ba:	20 83       	st	Z, r18
     2bc:	00 00       	nop
     2be:	0f 90       	pop	r0
     2c0:	0f 90       	pop	r0
     2c2:	0f 90       	pop	r0
     2c4:	0f 90       	pop	r0
     2c6:	df 91       	pop	r29
     2c8:	cf 91       	pop	r28
     2ca:	08 95       	ret

000002cc <_ZN11interpreter8cpuflags7getflagENS0_8bitflagsE>:
     2cc:	cf 93       	push	r28
     2ce:	df 93       	push	r29
     2d0:	00 d0       	rcall	.+0      	; 0x2d2 <_ZN11interpreter8cpuflags7getflagENS0_8bitflagsE+0x6>
     2d2:	1f 92       	push	r1
     2d4:	cd b7       	in	r28, 0x3d	; 61
     2d6:	de b7       	in	r29, 0x3e	; 62
     2d8:	9a 83       	std	Y+2, r25	; 0x02
     2da:	89 83       	std	Y+1, r24	; 0x01
     2dc:	6b 83       	std	Y+3, r22	; 0x03
     2de:	89 81       	ldd	r24, Y+1	; 0x01
     2e0:	9a 81       	ldd	r25, Y+2	; 0x02
     2e2:	fc 01       	movw	r30, r24
     2e4:	80 81       	ld	r24, Z
     2e6:	88 2f       	mov	r24, r24
     2e8:	90 e0       	ldi	r25, 0x00	; 0
     2ea:	2b 81       	ldd	r18, Y+3	; 0x03
     2ec:	22 2f       	mov	r18, r18
     2ee:	30 e0       	ldi	r19, 0x00	; 0
     2f0:	02 c0       	rjmp	.+4      	; 0x2f6 <_ZN11interpreter8cpuflags7getflagENS0_8bitflagsE+0x2a>
     2f2:	95 95       	asr	r25
     2f4:	87 95       	ror	r24
     2f6:	2a 95       	dec	r18
     2f8:	e2 f7       	brpl	.-8      	; 0x2f2 <_ZN11interpreter8cpuflags7getflagENS0_8bitflagsE+0x26>
     2fa:	81 70       	andi	r24, 0x01	; 1
     2fc:	0f 90       	pop	r0
     2fe:	0f 90       	pop	r0
     300:	0f 90       	pop	r0
     302:	df 91       	pop	r29
     304:	cf 91       	pop	r28
     306:	08 95       	ret

00000308 <_ZN11interpreter8cpuflags7setflagENS0_8bitflagsEb>:
     308:	cf 93       	push	r28
     30a:	df 93       	push	r29
     30c:	00 d0       	rcall	.+0      	; 0x30e <_ZN11interpreter8cpuflags7setflagENS0_8bitflagsEb+0x6>
     30e:	00 d0       	rcall	.+0      	; 0x310 <_ZN11interpreter8cpuflags7setflagENS0_8bitflagsEb+0x8>
     310:	cd b7       	in	r28, 0x3d	; 61
     312:	de b7       	in	r29, 0x3e	; 62
     314:	9a 83       	std	Y+2, r25	; 0x02
     316:	89 83       	std	Y+1, r24	; 0x01
     318:	6b 83       	std	Y+3, r22	; 0x03
     31a:	4c 83       	std	Y+4, r20	; 0x04
     31c:	8b 81       	ldd	r24, Y+3	; 0x03
     31e:	88 2f       	mov	r24, r24
     320:	90 e0       	ldi	r25, 0x00	; 0
     322:	09 2e       	mov	r0, r25
     324:	00 0c       	add	r0, r0
     326:	aa 0b       	sbc	r26, r26
     328:	bb 0b       	sbc	r27, r27
     32a:	40 e0       	ldi	r20, 0x00	; 0
     32c:	50 e0       	ldi	r21, 0x00	; 0
     32e:	27 e0       	ldi	r18, 0x07	; 7
     330:	30 e0       	ldi	r19, 0x00	; 0
     332:	84 1b       	sub	r24, r20
     334:	95 0b       	sbc	r25, r21
     336:	28 17       	cp	r18, r24
     338:	39 07       	cpc	r19, r25
     33a:	08 f4       	brcc	.+2      	; 0x33e <_ZN11interpreter8cpuflags7setflagENS0_8bitflagsEb+0x36>
     33c:	a2 c0       	rjmp	.+324    	; 0x482 <__LOCK_REGION_LENGTH__+0x82>
     33e:	82 5c       	subi	r24, 0xC2	; 194
     340:	9f 4f       	sbci	r25, 0xFF	; 255
     342:	fc 01       	movw	r30, r24
     344:	0c 94 c0 2b 	jmp	0x5780	; 0x5780 <__tablejump2__>
     348:	8c 81       	ldd	r24, Y+4	; 0x04
     34a:	88 23       	and	r24, r24
     34c:	59 f0       	breq	.+22     	; 0x364 <_ZN11interpreter8cpuflags7setflagENS0_8bitflagsEb+0x5c>
     34e:	89 81       	ldd	r24, Y+1	; 0x01
     350:	9a 81       	ldd	r25, Y+2	; 0x02
     352:	fc 01       	movw	r30, r24
     354:	80 81       	ld	r24, Z
     356:	28 2f       	mov	r18, r24
     358:	21 60       	ori	r18, 0x01	; 1
     35a:	89 81       	ldd	r24, Y+1	; 0x01
     35c:	9a 81       	ldd	r25, Y+2	; 0x02
     35e:	fc 01       	movw	r30, r24
     360:	20 83       	st	Z, r18
     362:	8f c0       	rjmp	.+286    	; 0x482 <__LOCK_REGION_LENGTH__+0x82>
     364:	89 81       	ldd	r24, Y+1	; 0x01
     366:	9a 81       	ldd	r25, Y+2	; 0x02
     368:	fc 01       	movw	r30, r24
     36a:	80 81       	ld	r24, Z
     36c:	28 2f       	mov	r18, r24
     36e:	2e 7f       	andi	r18, 0xFE	; 254
     370:	89 81       	ldd	r24, Y+1	; 0x01
     372:	9a 81       	ldd	r25, Y+2	; 0x02
     374:	fc 01       	movw	r30, r24
     376:	20 83       	st	Z, r18
     378:	84 c0       	rjmp	.+264    	; 0x482 <__LOCK_REGION_LENGTH__+0x82>
     37a:	8c 81       	ldd	r24, Y+4	; 0x04
     37c:	88 23       	and	r24, r24
     37e:	59 f0       	breq	.+22     	; 0x396 <_ZN11interpreter8cpuflags7setflagENS0_8bitflagsEb+0x8e>
     380:	89 81       	ldd	r24, Y+1	; 0x01
     382:	9a 81       	ldd	r25, Y+2	; 0x02
     384:	fc 01       	movw	r30, r24
     386:	80 81       	ld	r24, Z
     388:	28 2f       	mov	r18, r24
     38a:	22 60       	ori	r18, 0x02	; 2
     38c:	89 81       	ldd	r24, Y+1	; 0x01
     38e:	9a 81       	ldd	r25, Y+2	; 0x02
     390:	fc 01       	movw	r30, r24
     392:	20 83       	st	Z, r18
     394:	76 c0       	rjmp	.+236    	; 0x482 <__LOCK_REGION_LENGTH__+0x82>
     396:	89 81       	ldd	r24, Y+1	; 0x01
     398:	9a 81       	ldd	r25, Y+2	; 0x02
     39a:	fc 01       	movw	r30, r24
     39c:	10 82       	st	Z, r1
     39e:	71 c0       	rjmp	.+226    	; 0x482 <__LOCK_REGION_LENGTH__+0x82>
     3a0:	8c 81       	ldd	r24, Y+4	; 0x04
     3a2:	88 23       	and	r24, r24
     3a4:	59 f0       	breq	.+22     	; 0x3bc <_ZN11interpreter8cpuflags7setflagENS0_8bitflagsEb+0xb4>
     3a6:	89 81       	ldd	r24, Y+1	; 0x01
     3a8:	9a 81       	ldd	r25, Y+2	; 0x02
     3aa:	fc 01       	movw	r30, r24
     3ac:	80 81       	ld	r24, Z
     3ae:	28 2f       	mov	r18, r24
     3b0:	24 60       	ori	r18, 0x04	; 4
     3b2:	89 81       	ldd	r24, Y+1	; 0x01
     3b4:	9a 81       	ldd	r25, Y+2	; 0x02
     3b6:	fc 01       	movw	r30, r24
     3b8:	20 83       	st	Z, r18
     3ba:	63 c0       	rjmp	.+198    	; 0x482 <__LOCK_REGION_LENGTH__+0x82>
     3bc:	89 81       	ldd	r24, Y+1	; 0x01
     3be:	9a 81       	ldd	r25, Y+2	; 0x02
     3c0:	fc 01       	movw	r30, r24
     3c2:	10 82       	st	Z, r1
     3c4:	5e c0       	rjmp	.+188    	; 0x482 <__LOCK_REGION_LENGTH__+0x82>
     3c6:	8c 81       	ldd	r24, Y+4	; 0x04
     3c8:	88 23       	and	r24, r24
     3ca:	59 f0       	breq	.+22     	; 0x3e2 <_ZN11interpreter8cpuflags7setflagENS0_8bitflagsEb+0xda>
     3cc:	89 81       	ldd	r24, Y+1	; 0x01
     3ce:	9a 81       	ldd	r25, Y+2	; 0x02
     3d0:	fc 01       	movw	r30, r24
     3d2:	80 81       	ld	r24, Z
     3d4:	28 2f       	mov	r18, r24
     3d6:	28 60       	ori	r18, 0x08	; 8
     3d8:	89 81       	ldd	r24, Y+1	; 0x01
     3da:	9a 81       	ldd	r25, Y+2	; 0x02
     3dc:	fc 01       	movw	r30, r24
     3de:	20 83       	st	Z, r18
     3e0:	04 c0       	rjmp	.+8      	; 0x3ea <_ZN11interpreter8cpuflags7setflagENS0_8bitflagsEb+0xe2>
     3e2:	89 81       	ldd	r24, Y+1	; 0x01
     3e4:	9a 81       	ldd	r25, Y+2	; 0x02
     3e6:	fc 01       	movw	r30, r24
     3e8:	10 82       	st	Z, r1
     3ea:	8c 81       	ldd	r24, Y+4	; 0x04
     3ec:	88 23       	and	r24, r24
     3ee:	59 f0       	breq	.+22     	; 0x406 <__LOCK_REGION_LENGTH__+0x6>
     3f0:	89 81       	ldd	r24, Y+1	; 0x01
     3f2:	9a 81       	ldd	r25, Y+2	; 0x02
     3f4:	fc 01       	movw	r30, r24
     3f6:	80 81       	ld	r24, Z
     3f8:	28 2f       	mov	r18, r24
     3fa:	20 61       	ori	r18, 0x10	; 16
     3fc:	89 81       	ldd	r24, Y+1	; 0x01
     3fe:	9a 81       	ldd	r25, Y+2	; 0x02
     400:	fc 01       	movw	r30, r24
     402:	20 83       	st	Z, r18
     404:	3e c0       	rjmp	.+124    	; 0x482 <__LOCK_REGION_LENGTH__+0x82>
     406:	89 81       	ldd	r24, Y+1	; 0x01
     408:	9a 81       	ldd	r25, Y+2	; 0x02
     40a:	fc 01       	movw	r30, r24
     40c:	10 82       	st	Z, r1
     40e:	39 c0       	rjmp	.+114    	; 0x482 <__LOCK_REGION_LENGTH__+0x82>
     410:	8c 81       	ldd	r24, Y+4	; 0x04
     412:	88 23       	and	r24, r24
     414:	59 f0       	breq	.+22     	; 0x42c <__LOCK_REGION_LENGTH__+0x2c>
     416:	89 81       	ldd	r24, Y+1	; 0x01
     418:	9a 81       	ldd	r25, Y+2	; 0x02
     41a:	fc 01       	movw	r30, r24
     41c:	80 81       	ld	r24, Z
     41e:	28 2f       	mov	r18, r24
     420:	20 62       	ori	r18, 0x20	; 32
     422:	89 81       	ldd	r24, Y+1	; 0x01
     424:	9a 81       	ldd	r25, Y+2	; 0x02
     426:	fc 01       	movw	r30, r24
     428:	20 83       	st	Z, r18
     42a:	2b c0       	rjmp	.+86     	; 0x482 <__LOCK_REGION_LENGTH__+0x82>
     42c:	89 81       	ldd	r24, Y+1	; 0x01
     42e:	9a 81       	ldd	r25, Y+2	; 0x02
     430:	fc 01       	movw	r30, r24
     432:	10 82       	st	Z, r1
     434:	26 c0       	rjmp	.+76     	; 0x482 <__LOCK_REGION_LENGTH__+0x82>
     436:	8c 81       	ldd	r24, Y+4	; 0x04
     438:	88 23       	and	r24, r24
     43a:	59 f0       	breq	.+22     	; 0x452 <__LOCK_REGION_LENGTH__+0x52>
     43c:	89 81       	ldd	r24, Y+1	; 0x01
     43e:	9a 81       	ldd	r25, Y+2	; 0x02
     440:	fc 01       	movw	r30, r24
     442:	80 81       	ld	r24, Z
     444:	28 2f       	mov	r18, r24
     446:	20 64       	ori	r18, 0x40	; 64
     448:	89 81       	ldd	r24, Y+1	; 0x01
     44a:	9a 81       	ldd	r25, Y+2	; 0x02
     44c:	fc 01       	movw	r30, r24
     44e:	20 83       	st	Z, r18
     450:	18 c0       	rjmp	.+48     	; 0x482 <__LOCK_REGION_LENGTH__+0x82>
     452:	89 81       	ldd	r24, Y+1	; 0x01
     454:	9a 81       	ldd	r25, Y+2	; 0x02
     456:	fc 01       	movw	r30, r24
     458:	10 82       	st	Z, r1
     45a:	13 c0       	rjmp	.+38     	; 0x482 <__LOCK_REGION_LENGTH__+0x82>
     45c:	8c 81       	ldd	r24, Y+4	; 0x04
     45e:	88 23       	and	r24, r24
     460:	59 f0       	breq	.+22     	; 0x478 <__LOCK_REGION_LENGTH__+0x78>
     462:	89 81       	ldd	r24, Y+1	; 0x01
     464:	9a 81       	ldd	r25, Y+2	; 0x02
     466:	fc 01       	movw	r30, r24
     468:	80 81       	ld	r24, Z
     46a:	28 2f       	mov	r18, r24
     46c:	20 68       	ori	r18, 0x80	; 128
     46e:	89 81       	ldd	r24, Y+1	; 0x01
     470:	9a 81       	ldd	r25, Y+2	; 0x02
     472:	fc 01       	movw	r30, r24
     474:	20 83       	st	Z, r18
     476:	04 c0       	rjmp	.+8      	; 0x480 <__LOCK_REGION_LENGTH__+0x80>
     478:	89 81       	ldd	r24, Y+1	; 0x01
     47a:	9a 81       	ldd	r25, Y+2	; 0x02
     47c:	fc 01       	movw	r30, r24
     47e:	10 82       	st	Z, r1
     480:	00 00       	nop
     482:	00 00       	nop
     484:	0f 90       	pop	r0
     486:	0f 90       	pop	r0
     488:	0f 90       	pop	r0
     48a:	0f 90       	pop	r0
     48c:	df 91       	pop	r29
     48e:	cf 91       	pop	r28
     490:	08 95       	ret

00000492 <_ZN11interpreter8cpuflags5clearEv>:
     492:	cf 93       	push	r28
     494:	df 93       	push	r29
     496:	00 d0       	rcall	.+0      	; 0x498 <_ZN11interpreter8cpuflags5clearEv+0x6>
     498:	cd b7       	in	r28, 0x3d	; 61
     49a:	de b7       	in	r29, 0x3e	; 62
     49c:	9a 83       	std	Y+2, r25	; 0x02
     49e:	89 83       	std	Y+1, r24	; 0x01
     4a0:	89 81       	ldd	r24, Y+1	; 0x01
     4a2:	9a 81       	ldd	r25, Y+2	; 0x02
     4a4:	fc 01       	movw	r30, r24
     4a6:	10 82       	st	Z, r1
     4a8:	00 00       	nop
     4aa:	0f 90       	pop	r0
     4ac:	0f 90       	pop	r0
     4ae:	df 91       	pop	r29
     4b0:	cf 91       	pop	r28
     4b2:	08 95       	ret

000004b4 <_ZN11interpreter8cpuflagsC1Ev>:
     4b4:	cf 93       	push	r28
     4b6:	df 93       	push	r29
     4b8:	00 d0       	rcall	.+0      	; 0x4ba <_ZN11interpreter8cpuflagsC1Ev+0x6>
     4ba:	cd b7       	in	r28, 0x3d	; 61
     4bc:	de b7       	in	r29, 0x3e	; 62
     4be:	9a 83       	std	Y+2, r25	; 0x02
     4c0:	89 83       	std	Y+1, r24	; 0x01
     4c2:	89 81       	ldd	r24, Y+1	; 0x01
     4c4:	9a 81       	ldd	r25, Y+2	; 0x02
     4c6:	fc 01       	movw	r30, r24
     4c8:	10 82       	st	Z, r1
     4ca:	00 00       	nop
     4cc:	0f 90       	pop	r0
     4ce:	0f 90       	pop	r0
     4d0:	df 91       	pop	r29
     4d2:	cf 91       	pop	r28
     4d4:	08 95       	ret

000004d6 <_ZN11interpreterC1Ev>:
     4d6:	cf 93       	push	r28
     4d8:	df 93       	push	r29
     4da:	cd b7       	in	r28, 0x3d	; 61
     4dc:	de b7       	in	r29, 0x3e	; 62
     4de:	2e 97       	sbiw	r28, 0x0e	; 14
     4e0:	0f b6       	in	r0, 0x3f	; 63
     4e2:	f8 94       	cli
     4e4:	de bf       	out	0x3e, r29	; 62
     4e6:	0f be       	out	0x3f, r0	; 63
     4e8:	cd bf       	out	0x3d, r28	; 61
     4ea:	9e 87       	std	Y+14, r25	; 0x0e
     4ec:	8d 87       	std	Y+13, r24	; 0x0d
     4ee:	8d 85       	ldd	r24, Y+13	; 0x0d
     4f0:	9e 85       	ldd	r25, Y+14	; 0x0e
     4f2:	81 50       	subi	r24, 0x01	; 1
     4f4:	9f 4f       	sbci	r25, 0xFF	; 255
     4f6:	0e 94 e3 00 	call	0x1c6	; 0x1c6 <_ZN11interpreter8indexregC1Ev>
     4fa:	8d 85       	ldd	r24, Y+13	; 0x0d
     4fc:	9e 85       	ldd	r25, Y+14	; 0x0e
     4fe:	8d 5f       	subi	r24, 0xFD	; 253
     500:	9e 4f       	sbci	r25, 0xFE	; 254
     502:	0e 94 e3 00 	call	0x1c6	; 0x1c6 <_ZN11interpreter8indexregC1Ev>
     506:	8d 85       	ldd	r24, Y+13	; 0x0d
     508:	9e 85       	ldd	r25, Y+14	; 0x0e
     50a:	89 5f       	subi	r24, 0xF9	; 249
     50c:	9e 4f       	sbci	r25, 0xFE	; 254
     50e:	0e 94 e3 00 	call	0x1c6	; 0x1c6 <_ZN11interpreter8indexregC1Ev>
     512:	8d 85       	ldd	r24, Y+13	; 0x0d
     514:	9e 85       	ldd	r25, Y+14	; 0x0e
     516:	9c 01       	movw	r18, r24
     518:	21 50       	subi	r18, 0x01	; 1
     51a:	3f 4f       	sbci	r19, 0xFF	; 255
     51c:	8d 85       	ldd	r24, Y+13	; 0x0d
     51e:	9e 85       	ldd	r25, Y+14	; 0x0e
     520:	85 5e       	subi	r24, 0xE5	; 229
     522:	9e 4f       	sbci	r25, 0xFE	; 254
     524:	fc 01       	movw	r30, r24
     526:	31 83       	std	Z+1, r19	; 0x01
     528:	20 83       	st	Z, r18
     52a:	8d 85       	ldd	r24, Y+13	; 0x0d
     52c:	9e 85       	ldd	r25, Y+14	; 0x0e
     52e:	9c 01       	movw	r18, r24
     530:	2d 5f       	subi	r18, 0xFD	; 253
     532:	3e 4f       	sbci	r19, 0xFE	; 254
     534:	8d 85       	ldd	r24, Y+13	; 0x0d
     536:	9e 85       	ldd	r25, Y+14	; 0x0e
     538:	83 5e       	subi	r24, 0xE3	; 227
     53a:	9e 4f       	sbci	r25, 0xFE	; 254
     53c:	fc 01       	movw	r30, r24
     53e:	31 83       	std	Z+1, r19	; 0x01
     540:	20 83       	st	Z, r18
     542:	8d 85       	ldd	r24, Y+13	; 0x0d
     544:	9e 85       	ldd	r25, Y+14	; 0x0e
     546:	9c 01       	movw	r18, r24
     548:	29 5f       	subi	r18, 0xF9	; 249
     54a:	3e 4f       	sbci	r19, 0xFE	; 254
     54c:	8d 85       	ldd	r24, Y+13	; 0x0d
     54e:	9e 85       	ldd	r25, Y+14	; 0x0e
     550:	81 5e       	subi	r24, 0xE1	; 225
     552:	9e 4f       	sbci	r25, 0xFE	; 254
     554:	fc 01       	movw	r30, r24
     556:	31 83       	std	Z+1, r19	; 0x01
     558:	20 83       	st	Z, r18
     55a:	8d 85       	ldd	r24, Y+13	; 0x0d
     55c:	9e 85       	ldd	r25, Y+14	; 0x0e
     55e:	8f 5d       	subi	r24, 0xDF	; 223
     560:	9e 4f       	sbci	r25, 0xFE	; 254
     562:	0e 94 5a 02 	call	0x4b4	; 0x4b4 <_ZN11interpreter8cpuflagsC1Ev>
     566:	8d 85       	ldd	r24, Y+13	; 0x0d
     568:	9e 85       	ldd	r25, Y+14	; 0x0e
     56a:	89 5e       	subi	r24, 0xE9	; 233
     56c:	9e 4f       	sbci	r25, 0xFE	; 254
     56e:	2f ef       	ldi	r18, 0xFF	; 255
     570:	3f e1       	ldi	r19, 0x1F	; 31
     572:	fc 01       	movw	r30, r24
     574:	31 83       	std	Z+1, r19	; 0x01
     576:	20 83       	st	Z, r18
     578:	8d 85       	ldd	r24, Y+13	; 0x0d
     57a:	9e 85       	ldd	r25, Y+14	; 0x0e
     57c:	87 5e       	subi	r24, 0xE7	; 231
     57e:	9e 4f       	sbci	r25, 0xFE	; 254
     580:	fc 01       	movw	r30, r24
     582:	11 82       	std	Z+1, r1	; 0x01
     584:	10 82       	st	Z, r1
     586:	8d 85       	ldd	r24, Y+13	; 0x0d
     588:	9e 85       	ldd	r25, Y+14	; 0x0e
     58a:	ac 01       	movw	r20, r24
     58c:	41 50       	subi	r20, 0x01	; 1
     58e:	5f 4f       	sbci	r21, 0xFF	; 255
     590:	8d 85       	ldd	r24, Y+13	; 0x0d
     592:	9e 85       	ldd	r25, Y+14	; 0x0e
     594:	9c 01       	movw	r18, r24
     596:	22 50       	subi	r18, 0x02	; 2
     598:	3f 4f       	sbci	r19, 0xFF	; 255
     59a:	ce 01       	movw	r24, r28
     59c:	09 96       	adiw	r24, 0x09	; 9
     59e:	b9 01       	movw	r22, r18
     5a0:	0e 94 fa 00 	call	0x1f4	; 0x1f4 <_ZN11interpreter8indexregC1EPcS1_>
     5a4:	8d 85       	ldd	r24, Y+13	; 0x0d
     5a6:	9e 85       	ldd	r25, Y+14	; 0x0e
     5a8:	9c 01       	movw	r18, r24
     5aa:	29 5f       	subi	r18, 0xF9	; 249
     5ac:	3e 4f       	sbci	r19, 0xFE	; 254
     5ae:	89 85       	ldd	r24, Y+9	; 0x09
     5b0:	9a 85       	ldd	r25, Y+10	; 0x0a
     5b2:	ab 85       	ldd	r26, Y+11	; 0x0b
     5b4:	bc 85       	ldd	r27, Y+12	; 0x0c
     5b6:	f9 01       	movw	r30, r18
     5b8:	80 83       	st	Z, r24
     5ba:	91 83       	std	Z+1, r25	; 0x01
     5bc:	a2 83       	std	Z+2, r26	; 0x02
     5be:	b3 83       	std	Z+3, r27	; 0x03
     5c0:	8d 85       	ldd	r24, Y+13	; 0x0d
     5c2:	9e 85       	ldd	r25, Y+14	; 0x0e
     5c4:	ac 01       	movw	r20, r24
     5c6:	43 50       	subi	r20, 0x03	; 3
     5c8:	5f 4f       	sbci	r21, 0xFF	; 255
     5ca:	8d 85       	ldd	r24, Y+13	; 0x0d
     5cc:	9e 85       	ldd	r25, Y+14	; 0x0e
     5ce:	9c 01       	movw	r18, r24
     5d0:	24 50       	subi	r18, 0x04	; 4
     5d2:	3f 4f       	sbci	r19, 0xFF	; 255
     5d4:	ce 01       	movw	r24, r28
     5d6:	05 96       	adiw	r24, 0x05	; 5
     5d8:	b9 01       	movw	r22, r18
     5da:	0e 94 fa 00 	call	0x1f4	; 0x1f4 <_ZN11interpreter8indexregC1EPcS1_>
     5de:	8d 85       	ldd	r24, Y+13	; 0x0d
     5e0:	9e 85       	ldd	r25, Y+14	; 0x0e
     5e2:	9c 01       	movw	r18, r24
     5e4:	2d 5f       	subi	r18, 0xFD	; 253
     5e6:	3e 4f       	sbci	r19, 0xFE	; 254
     5e8:	8d 81       	ldd	r24, Y+5	; 0x05
     5ea:	9e 81       	ldd	r25, Y+6	; 0x06
     5ec:	af 81       	ldd	r26, Y+7	; 0x07
     5ee:	b8 85       	ldd	r27, Y+8	; 0x08
     5f0:	f9 01       	movw	r30, r18
     5f2:	80 83       	st	Z, r24
     5f4:	91 83       	std	Z+1, r25	; 0x01
     5f6:	a2 83       	std	Z+2, r26	; 0x02
     5f8:	b3 83       	std	Z+3, r27	; 0x03
     5fa:	8d 85       	ldd	r24, Y+13	; 0x0d
     5fc:	9e 85       	ldd	r25, Y+14	; 0x0e
     5fe:	9c 01       	movw	r18, r24
     600:	25 50       	subi	r18, 0x05	; 5
     602:	3f 4f       	sbci	r19, 0xFF	; 255
     604:	8d 85       	ldd	r24, Y+13	; 0x0d
     606:	9e 85       	ldd	r25, Y+14	; 0x0e
     608:	86 50       	subi	r24, 0x06	; 6
     60a:	9f 4f       	sbci	r25, 0xFF	; 255
     60c:	a9 01       	movw	r20, r18
     60e:	bc 01       	movw	r22, r24
     610:	ce 01       	movw	r24, r28
     612:	01 96       	adiw	r24, 0x01	; 1
     614:	0e 94 fa 00 	call	0x1f4	; 0x1f4 <_ZN11interpreter8indexregC1EPcS1_>
     618:	8d 85       	ldd	r24, Y+13	; 0x0d
     61a:	9e 85       	ldd	r25, Y+14	; 0x0e
     61c:	9c 01       	movw	r18, r24
     61e:	21 50       	subi	r18, 0x01	; 1
     620:	3f 4f       	sbci	r19, 0xFF	; 255
     622:	89 81       	ldd	r24, Y+1	; 0x01
     624:	9a 81       	ldd	r25, Y+2	; 0x02
     626:	ab 81       	ldd	r26, Y+3	; 0x03
     628:	bc 81       	ldd	r27, Y+4	; 0x04
     62a:	f9 01       	movw	r30, r18
     62c:	80 83       	st	Z, r24
     62e:	91 83       	std	Z+1, r25	; 0x01
     630:	a2 83       	std	Z+2, r26	; 0x02
     632:	b3 83       	std	Z+3, r27	; 0x03
     634:	00 00       	nop
     636:	2e 96       	adiw	r28, 0x0e	; 14
     638:	0f b6       	in	r0, 0x3f	; 63
     63a:	f8 94       	cli
     63c:	de bf       	out	0x3e, r29	; 62
     63e:	0f be       	out	0x3f, r0	; 63
     640:	cd bf       	out	0x3d, r28	; 61
     642:	df 91       	pop	r29
     644:	cf 91       	pop	r28
     646:	08 95       	ret

00000648 <_ZN11interpreter3incEc>:
     648:	cf 93       	push	r28
     64a:	df 93       	push	r29
     64c:	00 d0       	rcall	.+0      	; 0x64e <_ZN11interpreter3incEc+0x6>
     64e:	1f 92       	push	r1
     650:	cd b7       	in	r28, 0x3d	; 61
     652:	de b7       	in	r29, 0x3e	; 62
     654:	9a 83       	std	Y+2, r25	; 0x02
     656:	89 83       	std	Y+1, r24	; 0x01
     658:	6b 83       	std	Y+3, r22	; 0x03
     65a:	8b 81       	ldd	r24, Y+3	; 0x03
     65c:	88 2f       	mov	r24, r24
     65e:	90 e0       	ldi	r25, 0x00	; 0
     660:	2b 81       	ldd	r18, Y+3	; 0x03
     662:	22 2f       	mov	r18, r18
     664:	30 e0       	ldi	r19, 0x00	; 0
     666:	49 81       	ldd	r20, Y+1	; 0x01
     668:	5a 81       	ldd	r21, Y+2	; 0x02
     66a:	24 0f       	add	r18, r20
     66c:	35 1f       	adc	r19, r21
     66e:	f9 01       	movw	r30, r18
     670:	20 81       	ld	r18, Z
     672:	41 e0       	ldi	r20, 0x01	; 1
     674:	42 0f       	add	r20, r18
     676:	29 81       	ldd	r18, Y+1	; 0x01
     678:	3a 81       	ldd	r19, Y+2	; 0x02
     67a:	82 0f       	add	r24, r18
     67c:	93 1f       	adc	r25, r19
     67e:	fc 01       	movw	r30, r24
     680:	40 83       	st	Z, r20
     682:	00 00       	nop
     684:	0f 90       	pop	r0
     686:	0f 90       	pop	r0
     688:	0f 90       	pop	r0
     68a:	df 91       	pop	r29
     68c:	cf 91       	pop	r28
     68e:	08 95       	ret

00000690 <_ZN11interpreter3incEj>:
     690:	cf 93       	push	r28
     692:	df 93       	push	r29
     694:	00 d0       	rcall	.+0      	; 0x696 <_ZN11interpreter3incEj+0x6>
     696:	00 d0       	rcall	.+0      	; 0x698 <_ZN11interpreter3incEj+0x8>
     698:	1f 92       	push	r1
     69a:	cd b7       	in	r28, 0x3d	; 61
     69c:	de b7       	in	r29, 0x3e	; 62
     69e:	9b 83       	std	Y+3, r25	; 0x03
     6a0:	8a 83       	std	Y+2, r24	; 0x02
     6a2:	7d 83       	std	Y+5, r23	; 0x05
     6a4:	6c 83       	std	Y+4, r22	; 0x04
     6a6:	2c 81       	ldd	r18, Y+4	; 0x04
     6a8:	3d 81       	ldd	r19, Y+5	; 0x05
     6aa:	8a 81       	ldd	r24, Y+2	; 0x02
     6ac:	9b 81       	ldd	r25, Y+3	; 0x03
     6ae:	83 5f       	subi	r24, 0xF3	; 243
     6b0:	9e 4f       	sbci	r25, 0xFE	; 254
     6b2:	fc 01       	movw	r30, r24
     6b4:	80 81       	ld	r24, Z
     6b6:	91 81       	ldd	r25, Z+1	; 0x01
     6b8:	b9 01       	movw	r22, r18
     6ba:	0e 94 ac 25 	call	0x4b58	; 0x4b58 <_ZN3ram4readEi>
     6be:	89 83       	std	Y+1, r24	; 0x01
     6c0:	89 81       	ldd	r24, Y+1	; 0x01
     6c2:	8f 5f       	subi	r24, 0xFF	; 255
     6c4:	89 83       	std	Y+1, r24	; 0x01
     6c6:	8a 81       	ldd	r24, Y+2	; 0x02
     6c8:	9b 81       	ldd	r25, Y+3	; 0x03
     6ca:	83 5f       	subi	r24, 0xF3	; 243
     6cc:	9e 4f       	sbci	r25, 0xFE	; 254
     6ce:	fc 01       	movw	r30, r24
     6d0:	80 81       	ld	r24, Z
     6d2:	91 81       	ldd	r25, Z+1	; 0x01
     6d4:	2c 81       	ldd	r18, Y+4	; 0x04
     6d6:	3d 81       	ldd	r19, Y+5	; 0x05
     6d8:	49 81       	ldd	r20, Y+1	; 0x01
     6da:	b9 01       	movw	r22, r18
     6dc:	0e 94 ce 25 	call	0x4b9c	; 0x4b9c <_ZN3ram5writeEjc>
     6e0:	00 00       	nop
     6e2:	0f 90       	pop	r0
     6e4:	0f 90       	pop	r0
     6e6:	0f 90       	pop	r0
     6e8:	0f 90       	pop	r0
     6ea:	0f 90       	pop	r0
     6ec:	df 91       	pop	r29
     6ee:	cf 91       	pop	r28
     6f0:	08 95       	ret

000006f2 <_ZN11interpreter3decEc>:
     6f2:	cf 93       	push	r28
     6f4:	df 93       	push	r29
     6f6:	00 d0       	rcall	.+0      	; 0x6f8 <_ZN11interpreter3decEc+0x6>
     6f8:	1f 92       	push	r1
     6fa:	cd b7       	in	r28, 0x3d	; 61
     6fc:	de b7       	in	r29, 0x3e	; 62
     6fe:	9a 83       	std	Y+2, r25	; 0x02
     700:	89 83       	std	Y+1, r24	; 0x01
     702:	6b 83       	std	Y+3, r22	; 0x03
     704:	8b 81       	ldd	r24, Y+3	; 0x03
     706:	88 2f       	mov	r24, r24
     708:	90 e0       	ldi	r25, 0x00	; 0
     70a:	2b 81       	ldd	r18, Y+3	; 0x03
     70c:	22 2f       	mov	r18, r18
     70e:	30 e0       	ldi	r19, 0x00	; 0
     710:	49 81       	ldd	r20, Y+1	; 0x01
     712:	5a 81       	ldd	r21, Y+2	; 0x02
     714:	24 0f       	add	r18, r20
     716:	35 1f       	adc	r19, r21
     718:	f9 01       	movw	r30, r18
     71a:	20 81       	ld	r18, Z
     71c:	4f ef       	ldi	r20, 0xFF	; 255
     71e:	42 0f       	add	r20, r18
     720:	29 81       	ldd	r18, Y+1	; 0x01
     722:	3a 81       	ldd	r19, Y+2	; 0x02
     724:	82 0f       	add	r24, r18
     726:	93 1f       	adc	r25, r19
     728:	fc 01       	movw	r30, r24
     72a:	40 83       	st	Z, r20
     72c:	00 00       	nop
     72e:	0f 90       	pop	r0
     730:	0f 90       	pop	r0
     732:	0f 90       	pop	r0
     734:	df 91       	pop	r29
     736:	cf 91       	pop	r28
     738:	08 95       	ret

0000073a <_ZN11interpreter3decEj>:
     73a:	cf 93       	push	r28
     73c:	df 93       	push	r29
     73e:	00 d0       	rcall	.+0      	; 0x740 <_ZN11interpreter3decEj+0x6>
     740:	00 d0       	rcall	.+0      	; 0x742 <_ZN11interpreter3decEj+0x8>
     742:	1f 92       	push	r1
     744:	cd b7       	in	r28, 0x3d	; 61
     746:	de b7       	in	r29, 0x3e	; 62
     748:	9b 83       	std	Y+3, r25	; 0x03
     74a:	8a 83       	std	Y+2, r24	; 0x02
     74c:	7d 83       	std	Y+5, r23	; 0x05
     74e:	6c 83       	std	Y+4, r22	; 0x04
     750:	2c 81       	ldd	r18, Y+4	; 0x04
     752:	3d 81       	ldd	r19, Y+5	; 0x05
     754:	8a 81       	ldd	r24, Y+2	; 0x02
     756:	9b 81       	ldd	r25, Y+3	; 0x03
     758:	83 5f       	subi	r24, 0xF3	; 243
     75a:	9e 4f       	sbci	r25, 0xFE	; 254
     75c:	fc 01       	movw	r30, r24
     75e:	80 81       	ld	r24, Z
     760:	91 81       	ldd	r25, Z+1	; 0x01
     762:	b9 01       	movw	r22, r18
     764:	0e 94 ac 25 	call	0x4b58	; 0x4b58 <_ZN3ram4readEi>
     768:	89 83       	std	Y+1, r24	; 0x01
     76a:	89 81       	ldd	r24, Y+1	; 0x01
     76c:	81 50       	subi	r24, 0x01	; 1
     76e:	89 83       	std	Y+1, r24	; 0x01
     770:	8a 81       	ldd	r24, Y+2	; 0x02
     772:	9b 81       	ldd	r25, Y+3	; 0x03
     774:	83 5f       	subi	r24, 0xF3	; 243
     776:	9e 4f       	sbci	r25, 0xFE	; 254
     778:	fc 01       	movw	r30, r24
     77a:	80 81       	ld	r24, Z
     77c:	91 81       	ldd	r25, Z+1	; 0x01
     77e:	2c 81       	ldd	r18, Y+4	; 0x04
     780:	3d 81       	ldd	r19, Y+5	; 0x05
     782:	49 81       	ldd	r20, Y+1	; 0x01
     784:	b9 01       	movw	r22, r18
     786:	0e 94 ce 25 	call	0x4b9c	; 0x4b9c <_ZN3ram5writeEjc>
     78a:	00 00       	nop
     78c:	0f 90       	pop	r0
     78e:	0f 90       	pop	r0
     790:	0f 90       	pop	r0
     792:	0f 90       	pop	r0
     794:	0f 90       	pop	r0
     796:	df 91       	pop	r29
     798:	cf 91       	pop	r28
     79a:	08 95       	ret

0000079c <_ZN11interpreter3runEv>:
     79c:	0f 93       	push	r16
     79e:	1f 93       	push	r17
     7a0:	cf 93       	push	r28
     7a2:	df 93       	push	r29
     7a4:	cd b7       	in	r28, 0x3d	; 61
     7a6:	de b7       	in	r29, 0x3e	; 62
     7a8:	c4 55       	subi	r28, 0x54	; 84
     7aa:	d1 09       	sbc	r29, r1
     7ac:	0f b6       	in	r0, 0x3f	; 63
     7ae:	f8 94       	cli
     7b0:	de bf       	out	0x3e, r29	; 62
     7b2:	0f be       	out	0x3f, r0	; 63
     7b4:	cd bf       	out	0x3d, r28	; 61
     7b6:	9e 01       	movw	r18, r28
     7b8:	2d 5a       	subi	r18, 0xAD	; 173
     7ba:	3f 4f       	sbci	r19, 0xFF	; 255
     7bc:	f9 01       	movw	r30, r18
     7be:	91 83       	std	Z+1, r25	; 0x01
     7c0:	80 83       	st	Z, r24
     7c2:	19 82       	std	Y+1, r1	; 0x01
     7c4:	89 81       	ldd	r24, Y+1	; 0x01
     7c6:	88 23       	and	r24, r24
     7c8:	11 f0       	breq	.+4      	; 0x7ce <_ZN11interpreter3runEv+0x32>
     7ca:	0c 94 d0 15 	jmp	0x2ba0	; 0x2ba0 <__stack+0x1aa1>
     7ce:	ce 01       	movw	r24, r28
     7d0:	8d 5a       	subi	r24, 0xAD	; 173
     7d2:	9f 4f       	sbci	r25, 0xFF	; 255
     7d4:	fc 01       	movw	r30, r24
     7d6:	80 81       	ld	r24, Z
     7d8:	91 81       	ldd	r25, Z+1	; 0x01
     7da:	87 5e       	subi	r24, 0xE7	; 231
     7dc:	9e 4f       	sbci	r25, 0xFE	; 254
     7de:	fc 01       	movw	r30, r24
     7e0:	80 81       	ld	r24, Z
     7e2:	91 81       	ldd	r25, Z+1	; 0x01
     7e4:	9c 01       	movw	r18, r24
     7e6:	ce 01       	movw	r24, r28
     7e8:	8d 5a       	subi	r24, 0xAD	; 173
     7ea:	9f 4f       	sbci	r25, 0xFF	; 255
     7ec:	fc 01       	movw	r30, r24
     7ee:	80 81       	ld	r24, Z
     7f0:	91 81       	ldd	r25, Z+1	; 0x01
     7f2:	85 5f       	subi	r24, 0xF5	; 245
     7f4:	9e 4f       	sbci	r25, 0xFE	; 254
     7f6:	fc 01       	movw	r30, r24
     7f8:	80 81       	ld	r24, Z
     7fa:	91 81       	ldd	r25, Z+1	; 0x01
     7fc:	b9 01       	movw	r22, r18
     7fe:	0e 94 ac 25 	call	0x4b58	; 0x4b58 <_ZN3ram4readEi>
     802:	8a 83       	std	Y+2, r24	; 0x02
     804:	8a 81       	ldd	r24, Y+2	; 0x02
     806:	88 23       	and	r24, r24
     808:	21 f5       	brne	.+72     	; 0x852 <_ZN11interpreter3runEv+0xb6>
     80a:	8e 01       	movw	r16, r28
     80c:	0e 5a       	subi	r16, 0xAE	; 174
     80e:	1f 4f       	sbci	r17, 0xFF	; 255
     810:	ce 01       	movw	r24, r28
     812:	8d 5a       	subi	r24, 0xAD	; 173
     814:	9f 4f       	sbci	r25, 0xFF	; 255
     816:	fc 01       	movw	r30, r24
     818:	80 81       	ld	r24, Z
     81a:	91 81       	ldd	r25, Z+1	; 0x01
     81c:	0e 94 7e 1f 	call	0x3efc	; 0x3efc <_ZN11interpreter7syscallEv>
     820:	f8 01       	movw	r30, r16
     822:	80 83       	st	Z, r24
     824:	ce 01       	movw	r24, r28
     826:	8e 5a       	subi	r24, 0xAE	; 174
     828:	9f 4f       	sbci	r25, 0xFF	; 255
     82a:	fc 01       	movw	r30, r24
     82c:	80 81       	ld	r24, Z
     82e:	82 36       	cpi	r24, 0x62	; 98
     830:	19 f4       	brne	.+6      	; 0x838 <_ZN11interpreter3runEv+0x9c>
     832:	82 e6       	ldi	r24, 0x62	; 98
     834:	0c 94 dc 15 	jmp	0x2bb8	; 0x2bb8 <__stack+0x1ab9>
     838:	ce 01       	movw	r24, r28
     83a:	8e 5a       	subi	r24, 0xAE	; 174
     83c:	9f 4f       	sbci	r25, 0xFF	; 255
     83e:	fc 01       	movw	r30, r24
     840:	80 81       	ld	r24, Z
     842:	85 36       	cpi	r24, 0x65	; 101
     844:	11 f0       	breq	.+4      	; 0x84a <_ZN11interpreter3runEv+0xae>
     846:	0c 94 b5 15 	jmp	0x2b6a	; 0x2b6a <__stack+0x1a6b>
     84a:	81 e0       	ldi	r24, 0x01	; 1
     84c:	89 83       	std	Y+1, r24	; 0x01
     84e:	0c 94 b5 15 	jmp	0x2b6a	; 0x2b6a <__stack+0x1a6b>
     852:	8a 81       	ldd	r24, Y+2	; 0x02
     854:	81 30       	cpi	r24, 0x01	; 1
     856:	09 f0       	breq	.+2      	; 0x85a <_ZN11interpreter3runEv+0xbe>
     858:	3f c0       	rjmp	.+126    	; 0x8d8 <_ZN11interpreter3runEv+0x13c>
     85a:	ce 01       	movw	r24, r28
     85c:	8d 5a       	subi	r24, 0xAD	; 173
     85e:	9f 4f       	sbci	r25, 0xFF	; 255
     860:	fc 01       	movw	r30, r24
     862:	80 81       	ld	r24, Z
     864:	91 81       	ldd	r25, Z+1	; 0x01
     866:	87 5e       	subi	r24, 0xE7	; 231
     868:	9e 4f       	sbci	r25, 0xFE	; 254
     86a:	fc 01       	movw	r30, r24
     86c:	80 81       	ld	r24, Z
     86e:	91 81       	ldd	r25, Z+1	; 0x01
     870:	9c 01       	movw	r18, r24
     872:	2f 5f       	subi	r18, 0xFF	; 255
     874:	3f 4f       	sbci	r19, 0xFF	; 255
     876:	ce 01       	movw	r24, r28
     878:	8d 5a       	subi	r24, 0xAD	; 173
     87a:	9f 4f       	sbci	r25, 0xFF	; 255
     87c:	fc 01       	movw	r30, r24
     87e:	80 81       	ld	r24, Z
     880:	91 81       	ldd	r25, Z+1	; 0x01
     882:	87 5e       	subi	r24, 0xE7	; 231
     884:	9e 4f       	sbci	r25, 0xFE	; 254
     886:	fc 01       	movw	r30, r24
     888:	31 83       	std	Z+1, r19	; 0x01
     88a:	20 83       	st	Z, r18
     88c:	ce 01       	movw	r24, r28
     88e:	8d 5a       	subi	r24, 0xAD	; 173
     890:	9f 4f       	sbci	r25, 0xFF	; 255
     892:	fc 01       	movw	r30, r24
     894:	80 81       	ld	r24, Z
     896:	91 81       	ldd	r25, Z+1	; 0x01
     898:	87 5e       	subi	r24, 0xE7	; 231
     89a:	9e 4f       	sbci	r25, 0xFE	; 254
     89c:	fc 01       	movw	r30, r24
     89e:	80 81       	ld	r24, Z
     8a0:	91 81       	ldd	r25, Z+1	; 0x01
     8a2:	9c 01       	movw	r18, r24
     8a4:	ce 01       	movw	r24, r28
     8a6:	8d 5a       	subi	r24, 0xAD	; 173
     8a8:	9f 4f       	sbci	r25, 0xFF	; 255
     8aa:	fc 01       	movw	r30, r24
     8ac:	80 81       	ld	r24, Z
     8ae:	91 81       	ldd	r25, Z+1	; 0x01
     8b0:	85 5f       	subi	r24, 0xF5	; 245
     8b2:	9e 4f       	sbci	r25, 0xFE	; 254
     8b4:	fc 01       	movw	r30, r24
     8b6:	80 81       	ld	r24, Z
     8b8:	91 81       	ldd	r25, Z+1	; 0x01
     8ba:	b9 01       	movw	r22, r18
     8bc:	0e 94 ac 25 	call	0x4b58	; 0x4b58 <_ZN3ram4readEi>
     8c0:	8b 83       	std	Y+3, r24	; 0x03
     8c2:	ce 01       	movw	r24, r28
     8c4:	8d 5a       	subi	r24, 0xAD	; 173
     8c6:	9f 4f       	sbci	r25, 0xFF	; 255
     8c8:	fc 01       	movw	r30, r24
     8ca:	80 81       	ld	r24, Z
     8cc:	91 81       	ldd	r25, Z+1	; 0x01
     8ce:	6b 81       	ldd	r22, Y+3	; 0x03
     8d0:	0e 94 24 03 	call	0x648	; 0x648 <_ZN11interpreter3incEc>
     8d4:	0c 94 b5 15 	jmp	0x2b6a	; 0x2b6a <__stack+0x1a6b>
     8d8:	8a 81       	ldd	r24, Y+2	; 0x02
     8da:	82 30       	cpi	r24, 0x02	; 2
     8dc:	09 f0       	breq	.+2      	; 0x8e0 <_ZN11interpreter3runEv+0x144>
     8de:	66 c0       	rjmp	.+204    	; 0x9ac <_ZN11interpreter3runEv+0x210>
     8e0:	ce 01       	movw	r24, r28
     8e2:	8d 5a       	subi	r24, 0xAD	; 173
     8e4:	9f 4f       	sbci	r25, 0xFF	; 255
     8e6:	fc 01       	movw	r30, r24
     8e8:	80 81       	ld	r24, Z
     8ea:	91 81       	ldd	r25, Z+1	; 0x01
     8ec:	87 5e       	subi	r24, 0xE7	; 231
     8ee:	9e 4f       	sbci	r25, 0xFE	; 254
     8f0:	fc 01       	movw	r30, r24
     8f2:	80 81       	ld	r24, Z
     8f4:	91 81       	ldd	r25, Z+1	; 0x01
     8f6:	01 96       	adiw	r24, 0x01	; 1
     8f8:	9c 01       	movw	r18, r24
     8fa:	ce 01       	movw	r24, r28
     8fc:	8d 5a       	subi	r24, 0xAD	; 173
     8fe:	9f 4f       	sbci	r25, 0xFF	; 255
     900:	fc 01       	movw	r30, r24
     902:	80 81       	ld	r24, Z
     904:	91 81       	ldd	r25, Z+1	; 0x01
     906:	85 5f       	subi	r24, 0xF5	; 245
     908:	9e 4f       	sbci	r25, 0xFE	; 254
     90a:	fc 01       	movw	r30, r24
     90c:	80 81       	ld	r24, Z
     90e:	91 81       	ldd	r25, Z+1	; 0x01
     910:	b9 01       	movw	r22, r18
     912:	0e 94 ac 25 	call	0x4b58	; 0x4b58 <_ZN3ram4readEi>
     916:	88 2f       	mov	r24, r24
     918:	90 e0       	ldi	r25, 0x00	; 0
     91a:	18 2f       	mov	r17, r24
     91c:	00 27       	eor	r16, r16
     91e:	ce 01       	movw	r24, r28
     920:	8d 5a       	subi	r24, 0xAD	; 173
     922:	9f 4f       	sbci	r25, 0xFF	; 255
     924:	fc 01       	movw	r30, r24
     926:	80 81       	ld	r24, Z
     928:	91 81       	ldd	r25, Z+1	; 0x01
     92a:	87 5e       	subi	r24, 0xE7	; 231
     92c:	9e 4f       	sbci	r25, 0xFE	; 254
     92e:	fc 01       	movw	r30, r24
     930:	80 81       	ld	r24, Z
     932:	91 81       	ldd	r25, Z+1	; 0x01
     934:	02 96       	adiw	r24, 0x02	; 2
     936:	9c 01       	movw	r18, r24
     938:	ce 01       	movw	r24, r28
     93a:	8d 5a       	subi	r24, 0xAD	; 173
     93c:	9f 4f       	sbci	r25, 0xFF	; 255
     93e:	fc 01       	movw	r30, r24
     940:	80 81       	ld	r24, Z
     942:	91 81       	ldd	r25, Z+1	; 0x01
     944:	85 5f       	subi	r24, 0xF5	; 245
     946:	9e 4f       	sbci	r25, 0xFE	; 254
     948:	fc 01       	movw	r30, r24
     94a:	80 81       	ld	r24, Z
     94c:	91 81       	ldd	r25, Z+1	; 0x01
     94e:	b9 01       	movw	r22, r18
     950:	0e 94 ac 25 	call	0x4b58	; 0x4b58 <_ZN3ram4readEi>
     954:	88 2f       	mov	r24, r24
     956:	90 e0       	ldi	r25, 0x00	; 0
     958:	80 2b       	or	r24, r16
     95a:	91 2b       	or	r25, r17
     95c:	9d 83       	std	Y+5, r25	; 0x05
     95e:	8c 83       	std	Y+4, r24	; 0x04
     960:	2c 81       	ldd	r18, Y+4	; 0x04
     962:	3d 81       	ldd	r19, Y+5	; 0x05
     964:	ce 01       	movw	r24, r28
     966:	8d 5a       	subi	r24, 0xAD	; 173
     968:	9f 4f       	sbci	r25, 0xFF	; 255
     96a:	fc 01       	movw	r30, r24
     96c:	80 81       	ld	r24, Z
     96e:	91 81       	ldd	r25, Z+1	; 0x01
     970:	b9 01       	movw	r22, r18
     972:	0e 94 48 03 	call	0x690	; 0x690 <_ZN11interpreter3incEj>
     976:	ce 01       	movw	r24, r28
     978:	8d 5a       	subi	r24, 0xAD	; 173
     97a:	9f 4f       	sbci	r25, 0xFF	; 255
     97c:	fc 01       	movw	r30, r24
     97e:	80 81       	ld	r24, Z
     980:	91 81       	ldd	r25, Z+1	; 0x01
     982:	87 5e       	subi	r24, 0xE7	; 231
     984:	9e 4f       	sbci	r25, 0xFE	; 254
     986:	fc 01       	movw	r30, r24
     988:	80 81       	ld	r24, Z
     98a:	91 81       	ldd	r25, Z+1	; 0x01
     98c:	9c 01       	movw	r18, r24
     98e:	2e 5f       	subi	r18, 0xFE	; 254
     990:	3f 4f       	sbci	r19, 0xFF	; 255
     992:	ce 01       	movw	r24, r28
     994:	8d 5a       	subi	r24, 0xAD	; 173
     996:	9f 4f       	sbci	r25, 0xFF	; 255
     998:	fc 01       	movw	r30, r24
     99a:	80 81       	ld	r24, Z
     99c:	91 81       	ldd	r25, Z+1	; 0x01
     99e:	87 5e       	subi	r24, 0xE7	; 231
     9a0:	9e 4f       	sbci	r25, 0xFE	; 254
     9a2:	fc 01       	movw	r30, r24
     9a4:	31 83       	std	Z+1, r19	; 0x01
     9a6:	20 83       	st	Z, r18
     9a8:	0c 94 b5 15 	jmp	0x2b6a	; 0x2b6a <__stack+0x1a6b>
     9ac:	8a 81       	ldd	r24, Y+2	; 0x02
     9ae:	83 30       	cpi	r24, 0x03	; 3
     9b0:	09 f0       	breq	.+2      	; 0x9b4 <_ZN11interpreter3runEv+0x218>
     9b2:	40 c0       	rjmp	.+128    	; 0xa34 <_ZN11interpreter3runEv+0x298>
     9b4:	ce 01       	movw	r24, r28
     9b6:	8d 5a       	subi	r24, 0xAD	; 173
     9b8:	9f 4f       	sbci	r25, 0xFF	; 255
     9ba:	fc 01       	movw	r30, r24
     9bc:	80 81       	ld	r24, Z
     9be:	91 81       	ldd	r25, Z+1	; 0x01
     9c0:	87 5e       	subi	r24, 0xE7	; 231
     9c2:	9e 4f       	sbci	r25, 0xFE	; 254
     9c4:	fc 01       	movw	r30, r24
     9c6:	80 81       	ld	r24, Z
     9c8:	91 81       	ldd	r25, Z+1	; 0x01
     9ca:	01 96       	adiw	r24, 0x01	; 1
     9cc:	9c 01       	movw	r18, r24
     9ce:	ce 01       	movw	r24, r28
     9d0:	8d 5a       	subi	r24, 0xAD	; 173
     9d2:	9f 4f       	sbci	r25, 0xFF	; 255
     9d4:	fc 01       	movw	r30, r24
     9d6:	80 81       	ld	r24, Z
     9d8:	91 81       	ldd	r25, Z+1	; 0x01
     9da:	85 5f       	subi	r24, 0xF5	; 245
     9dc:	9e 4f       	sbci	r25, 0xFE	; 254
     9de:	fc 01       	movw	r30, r24
     9e0:	80 81       	ld	r24, Z
     9e2:	91 81       	ldd	r25, Z+1	; 0x01
     9e4:	b9 01       	movw	r22, r18
     9e6:	0e 94 ac 25 	call	0x4b58	; 0x4b58 <_ZN3ram4readEi>
     9ea:	8e 83       	std	Y+6, r24	; 0x06
     9ec:	ce 01       	movw	r24, r28
     9ee:	8d 5a       	subi	r24, 0xAD	; 173
     9f0:	9f 4f       	sbci	r25, 0xFF	; 255
     9f2:	fc 01       	movw	r30, r24
     9f4:	80 81       	ld	r24, Z
     9f6:	91 81       	ldd	r25, Z+1	; 0x01
     9f8:	6e 81       	ldd	r22, Y+6	; 0x06
     9fa:	0e 94 79 03 	call	0x6f2	; 0x6f2 <_ZN11interpreter3decEc>
     9fe:	ce 01       	movw	r24, r28
     a00:	8d 5a       	subi	r24, 0xAD	; 173
     a02:	9f 4f       	sbci	r25, 0xFF	; 255
     a04:	fc 01       	movw	r30, r24
     a06:	80 81       	ld	r24, Z
     a08:	91 81       	ldd	r25, Z+1	; 0x01
     a0a:	87 5e       	subi	r24, 0xE7	; 231
     a0c:	9e 4f       	sbci	r25, 0xFE	; 254
     a0e:	fc 01       	movw	r30, r24
     a10:	80 81       	ld	r24, Z
     a12:	91 81       	ldd	r25, Z+1	; 0x01
     a14:	9c 01       	movw	r18, r24
     a16:	2f 5f       	subi	r18, 0xFF	; 255
     a18:	3f 4f       	sbci	r19, 0xFF	; 255
     a1a:	ce 01       	movw	r24, r28
     a1c:	8d 5a       	subi	r24, 0xAD	; 173
     a1e:	9f 4f       	sbci	r25, 0xFF	; 255
     a20:	fc 01       	movw	r30, r24
     a22:	80 81       	ld	r24, Z
     a24:	91 81       	ldd	r25, Z+1	; 0x01
     a26:	87 5e       	subi	r24, 0xE7	; 231
     a28:	9e 4f       	sbci	r25, 0xFE	; 254
     a2a:	fc 01       	movw	r30, r24
     a2c:	31 83       	std	Z+1, r19	; 0x01
     a2e:	20 83       	st	Z, r18
     a30:	0c 94 b5 15 	jmp	0x2b6a	; 0x2b6a <__stack+0x1a6b>
     a34:	8a 81       	ldd	r24, Y+2	; 0x02
     a36:	84 30       	cpi	r24, 0x04	; 4
     a38:	09 f0       	breq	.+2      	; 0xa3c <_ZN11interpreter3runEv+0x2a0>
     a3a:	66 c0       	rjmp	.+204    	; 0xb08 <_ZN11interpreter3runEv+0x36c>
     a3c:	ce 01       	movw	r24, r28
     a3e:	8d 5a       	subi	r24, 0xAD	; 173
     a40:	9f 4f       	sbci	r25, 0xFF	; 255
     a42:	fc 01       	movw	r30, r24
     a44:	80 81       	ld	r24, Z
     a46:	91 81       	ldd	r25, Z+1	; 0x01
     a48:	87 5e       	subi	r24, 0xE7	; 231
     a4a:	9e 4f       	sbci	r25, 0xFE	; 254
     a4c:	fc 01       	movw	r30, r24
     a4e:	80 81       	ld	r24, Z
     a50:	91 81       	ldd	r25, Z+1	; 0x01
     a52:	01 96       	adiw	r24, 0x01	; 1
     a54:	9c 01       	movw	r18, r24
     a56:	ce 01       	movw	r24, r28
     a58:	8d 5a       	subi	r24, 0xAD	; 173
     a5a:	9f 4f       	sbci	r25, 0xFF	; 255
     a5c:	fc 01       	movw	r30, r24
     a5e:	80 81       	ld	r24, Z
     a60:	91 81       	ldd	r25, Z+1	; 0x01
     a62:	85 5f       	subi	r24, 0xF5	; 245
     a64:	9e 4f       	sbci	r25, 0xFE	; 254
     a66:	fc 01       	movw	r30, r24
     a68:	80 81       	ld	r24, Z
     a6a:	91 81       	ldd	r25, Z+1	; 0x01
     a6c:	b9 01       	movw	r22, r18
     a6e:	0e 94 ac 25 	call	0x4b58	; 0x4b58 <_ZN3ram4readEi>
     a72:	88 2f       	mov	r24, r24
     a74:	90 e0       	ldi	r25, 0x00	; 0
     a76:	18 2f       	mov	r17, r24
     a78:	00 27       	eor	r16, r16
     a7a:	ce 01       	movw	r24, r28
     a7c:	8d 5a       	subi	r24, 0xAD	; 173
     a7e:	9f 4f       	sbci	r25, 0xFF	; 255
     a80:	fc 01       	movw	r30, r24
     a82:	80 81       	ld	r24, Z
     a84:	91 81       	ldd	r25, Z+1	; 0x01
     a86:	87 5e       	subi	r24, 0xE7	; 231
     a88:	9e 4f       	sbci	r25, 0xFE	; 254
     a8a:	fc 01       	movw	r30, r24
     a8c:	80 81       	ld	r24, Z
     a8e:	91 81       	ldd	r25, Z+1	; 0x01
     a90:	02 96       	adiw	r24, 0x02	; 2
     a92:	9c 01       	movw	r18, r24
     a94:	ce 01       	movw	r24, r28
     a96:	8d 5a       	subi	r24, 0xAD	; 173
     a98:	9f 4f       	sbci	r25, 0xFF	; 255
     a9a:	fc 01       	movw	r30, r24
     a9c:	80 81       	ld	r24, Z
     a9e:	91 81       	ldd	r25, Z+1	; 0x01
     aa0:	85 5f       	subi	r24, 0xF5	; 245
     aa2:	9e 4f       	sbci	r25, 0xFE	; 254
     aa4:	fc 01       	movw	r30, r24
     aa6:	80 81       	ld	r24, Z
     aa8:	91 81       	ldd	r25, Z+1	; 0x01
     aaa:	b9 01       	movw	r22, r18
     aac:	0e 94 ac 25 	call	0x4b58	; 0x4b58 <_ZN3ram4readEi>
     ab0:	88 2f       	mov	r24, r24
     ab2:	90 e0       	ldi	r25, 0x00	; 0
     ab4:	80 2b       	or	r24, r16
     ab6:	91 2b       	or	r25, r17
     ab8:	98 87       	std	Y+8, r25	; 0x08
     aba:	8f 83       	std	Y+7, r24	; 0x07
     abc:	2f 81       	ldd	r18, Y+7	; 0x07
     abe:	38 85       	ldd	r19, Y+8	; 0x08
     ac0:	ce 01       	movw	r24, r28
     ac2:	8d 5a       	subi	r24, 0xAD	; 173
     ac4:	9f 4f       	sbci	r25, 0xFF	; 255
     ac6:	fc 01       	movw	r30, r24
     ac8:	80 81       	ld	r24, Z
     aca:	91 81       	ldd	r25, Z+1	; 0x01
     acc:	b9 01       	movw	r22, r18
     ace:	0e 94 9d 03 	call	0x73a	; 0x73a <_ZN11interpreter3decEj>
     ad2:	ce 01       	movw	r24, r28
     ad4:	8d 5a       	subi	r24, 0xAD	; 173
     ad6:	9f 4f       	sbci	r25, 0xFF	; 255
     ad8:	fc 01       	movw	r30, r24
     ada:	80 81       	ld	r24, Z
     adc:	91 81       	ldd	r25, Z+1	; 0x01
     ade:	87 5e       	subi	r24, 0xE7	; 231
     ae0:	9e 4f       	sbci	r25, 0xFE	; 254
     ae2:	fc 01       	movw	r30, r24
     ae4:	80 81       	ld	r24, Z
     ae6:	91 81       	ldd	r25, Z+1	; 0x01
     ae8:	9c 01       	movw	r18, r24
     aea:	2e 5f       	subi	r18, 0xFE	; 254
     aec:	3f 4f       	sbci	r19, 0xFF	; 255
     aee:	ce 01       	movw	r24, r28
     af0:	8d 5a       	subi	r24, 0xAD	; 173
     af2:	9f 4f       	sbci	r25, 0xFF	; 255
     af4:	fc 01       	movw	r30, r24
     af6:	80 81       	ld	r24, Z
     af8:	91 81       	ldd	r25, Z+1	; 0x01
     afa:	87 5e       	subi	r24, 0xE7	; 231
     afc:	9e 4f       	sbci	r25, 0xFE	; 254
     afe:	fc 01       	movw	r30, r24
     b00:	31 83       	std	Z+1, r19	; 0x01
     b02:	20 83       	st	Z, r18
     b04:	0c 94 b5 15 	jmp	0x2b6a	; 0x2b6a <__stack+0x1a6b>
     b08:	8a 81       	ldd	r24, Y+2	; 0x02
     b0a:	85 30       	cpi	r24, 0x05	; 5
     b0c:	09 f0       	breq	.+2      	; 0xb10 <_ZN11interpreter3runEv+0x374>
     b0e:	5d c0       	rjmp	.+186    	; 0xbca <_ZN11interpreter3runEv+0x42e>
     b10:	ce 01       	movw	r24, r28
     b12:	8d 5a       	subi	r24, 0xAD	; 173
     b14:	9f 4f       	sbci	r25, 0xFF	; 255
     b16:	fc 01       	movw	r30, r24
     b18:	80 81       	ld	r24, Z
     b1a:	91 81       	ldd	r25, Z+1	; 0x01
     b1c:	87 5e       	subi	r24, 0xE7	; 231
     b1e:	9e 4f       	sbci	r25, 0xFE	; 254
     b20:	fc 01       	movw	r30, r24
     b22:	80 81       	ld	r24, Z
     b24:	91 81       	ldd	r25, Z+1	; 0x01
     b26:	01 96       	adiw	r24, 0x01	; 1
     b28:	9c 01       	movw	r18, r24
     b2a:	ce 01       	movw	r24, r28
     b2c:	8d 5a       	subi	r24, 0xAD	; 173
     b2e:	9f 4f       	sbci	r25, 0xFF	; 255
     b30:	fc 01       	movw	r30, r24
     b32:	80 81       	ld	r24, Z
     b34:	91 81       	ldd	r25, Z+1	; 0x01
     b36:	85 5f       	subi	r24, 0xF5	; 245
     b38:	9e 4f       	sbci	r25, 0xFE	; 254
     b3a:	fc 01       	movw	r30, r24
     b3c:	80 81       	ld	r24, Z
     b3e:	91 81       	ldd	r25, Z+1	; 0x01
     b40:	b9 01       	movw	r22, r18
     b42:	0e 94 ac 25 	call	0x4b58	; 0x4b58 <_ZN3ram4readEi>
     b46:	89 87       	std	Y+9, r24	; 0x09
     b48:	ce 01       	movw	r24, r28
     b4a:	8d 5a       	subi	r24, 0xAD	; 173
     b4c:	9f 4f       	sbci	r25, 0xFF	; 255
     b4e:	fc 01       	movw	r30, r24
     b50:	80 81       	ld	r24, Z
     b52:	91 81       	ldd	r25, Z+1	; 0x01
     b54:	87 5e       	subi	r24, 0xE7	; 231
     b56:	9e 4f       	sbci	r25, 0xFE	; 254
     b58:	fc 01       	movw	r30, r24
     b5a:	80 81       	ld	r24, Z
     b5c:	91 81       	ldd	r25, Z+1	; 0x01
     b5e:	02 96       	adiw	r24, 0x02	; 2
     b60:	9c 01       	movw	r18, r24
     b62:	ce 01       	movw	r24, r28
     b64:	8d 5a       	subi	r24, 0xAD	; 173
     b66:	9f 4f       	sbci	r25, 0xFF	; 255
     b68:	fc 01       	movw	r30, r24
     b6a:	80 81       	ld	r24, Z
     b6c:	91 81       	ldd	r25, Z+1	; 0x01
     b6e:	85 5f       	subi	r24, 0xF5	; 245
     b70:	9e 4f       	sbci	r25, 0xFE	; 254
     b72:	fc 01       	movw	r30, r24
     b74:	80 81       	ld	r24, Z
     b76:	91 81       	ldd	r25, Z+1	; 0x01
     b78:	b9 01       	movw	r22, r18
     b7a:	0e 94 ac 25 	call	0x4b58	; 0x4b58 <_ZN3ram4readEi>
     b7e:	8a 87       	std	Y+10, r24	; 0x0a
     b80:	ce 01       	movw	r24, r28
     b82:	8d 5a       	subi	r24, 0xAD	; 173
     b84:	9f 4f       	sbci	r25, 0xFF	; 255
     b86:	fc 01       	movw	r30, r24
     b88:	80 81       	ld	r24, Z
     b8a:	91 81       	ldd	r25, Z+1	; 0x01
     b8c:	4a 85       	ldd	r20, Y+10	; 0x0a
     b8e:	69 85       	ldd	r22, Y+9	; 0x09
     b90:	0e 94 e8 15 	call	0x2bd0	; 0x2bd0 <_ZN11interpreter3movEcc>
     b94:	ce 01       	movw	r24, r28
     b96:	8d 5a       	subi	r24, 0xAD	; 173
     b98:	9f 4f       	sbci	r25, 0xFF	; 255
     b9a:	fc 01       	movw	r30, r24
     b9c:	80 81       	ld	r24, Z
     b9e:	91 81       	ldd	r25, Z+1	; 0x01
     ba0:	87 5e       	subi	r24, 0xE7	; 231
     ba2:	9e 4f       	sbci	r25, 0xFE	; 254
     ba4:	fc 01       	movw	r30, r24
     ba6:	80 81       	ld	r24, Z
     ba8:	91 81       	ldd	r25, Z+1	; 0x01
     baa:	9c 01       	movw	r18, r24
     bac:	2e 5f       	subi	r18, 0xFE	; 254
     bae:	3f 4f       	sbci	r19, 0xFF	; 255
     bb0:	ce 01       	movw	r24, r28
     bb2:	8d 5a       	subi	r24, 0xAD	; 173
     bb4:	9f 4f       	sbci	r25, 0xFF	; 255
     bb6:	fc 01       	movw	r30, r24
     bb8:	80 81       	ld	r24, Z
     bba:	91 81       	ldd	r25, Z+1	; 0x01
     bbc:	87 5e       	subi	r24, 0xE7	; 231
     bbe:	9e 4f       	sbci	r25, 0xFE	; 254
     bc0:	fc 01       	movw	r30, r24
     bc2:	31 83       	std	Z+1, r19	; 0x01
     bc4:	20 83       	st	Z, r18
     bc6:	0c 94 b5 15 	jmp	0x2b6a	; 0x2b6a <__stack+0x1a6b>
     bca:	8a 81       	ldd	r24, Y+2	; 0x02
     bcc:	86 30       	cpi	r24, 0x06	; 6
     bce:	09 f0       	breq	.+2      	; 0xbd2 <_ZN11interpreter3runEv+0x436>
     bd0:	83 c0       	rjmp	.+262    	; 0xcd8 <_ZN11interpreter3runEv+0x53c>
     bd2:	ce 01       	movw	r24, r28
     bd4:	8d 5a       	subi	r24, 0xAD	; 173
     bd6:	9f 4f       	sbci	r25, 0xFF	; 255
     bd8:	fc 01       	movw	r30, r24
     bda:	80 81       	ld	r24, Z
     bdc:	91 81       	ldd	r25, Z+1	; 0x01
     bde:	87 5e       	subi	r24, 0xE7	; 231
     be0:	9e 4f       	sbci	r25, 0xFE	; 254
     be2:	fc 01       	movw	r30, r24
     be4:	80 81       	ld	r24, Z
     be6:	91 81       	ldd	r25, Z+1	; 0x01
     be8:	01 96       	adiw	r24, 0x01	; 1
     bea:	9c 01       	movw	r18, r24
     bec:	ce 01       	movw	r24, r28
     bee:	8d 5a       	subi	r24, 0xAD	; 173
     bf0:	9f 4f       	sbci	r25, 0xFF	; 255
     bf2:	fc 01       	movw	r30, r24
     bf4:	80 81       	ld	r24, Z
     bf6:	91 81       	ldd	r25, Z+1	; 0x01
     bf8:	85 5f       	subi	r24, 0xF5	; 245
     bfa:	9e 4f       	sbci	r25, 0xFE	; 254
     bfc:	fc 01       	movw	r30, r24
     bfe:	80 81       	ld	r24, Z
     c00:	91 81       	ldd	r25, Z+1	; 0x01
     c02:	b9 01       	movw	r22, r18
     c04:	0e 94 ac 25 	call	0x4b58	; 0x4b58 <_ZN3ram4readEi>
     c08:	8b 87       	std	Y+11, r24	; 0x0b
     c0a:	ce 01       	movw	r24, r28
     c0c:	8d 5a       	subi	r24, 0xAD	; 173
     c0e:	9f 4f       	sbci	r25, 0xFF	; 255
     c10:	fc 01       	movw	r30, r24
     c12:	80 81       	ld	r24, Z
     c14:	91 81       	ldd	r25, Z+1	; 0x01
     c16:	87 5e       	subi	r24, 0xE7	; 231
     c18:	9e 4f       	sbci	r25, 0xFE	; 254
     c1a:	fc 01       	movw	r30, r24
     c1c:	80 81       	ld	r24, Z
     c1e:	91 81       	ldd	r25, Z+1	; 0x01
     c20:	02 96       	adiw	r24, 0x02	; 2
     c22:	9c 01       	movw	r18, r24
     c24:	ce 01       	movw	r24, r28
     c26:	8d 5a       	subi	r24, 0xAD	; 173
     c28:	9f 4f       	sbci	r25, 0xFF	; 255
     c2a:	fc 01       	movw	r30, r24
     c2c:	80 81       	ld	r24, Z
     c2e:	91 81       	ldd	r25, Z+1	; 0x01
     c30:	85 5f       	subi	r24, 0xF5	; 245
     c32:	9e 4f       	sbci	r25, 0xFE	; 254
     c34:	fc 01       	movw	r30, r24
     c36:	80 81       	ld	r24, Z
     c38:	91 81       	ldd	r25, Z+1	; 0x01
     c3a:	b9 01       	movw	r22, r18
     c3c:	0e 94 ac 25 	call	0x4b58	; 0x4b58 <_ZN3ram4readEi>
     c40:	88 2f       	mov	r24, r24
     c42:	90 e0       	ldi	r25, 0x00	; 0
     c44:	18 2f       	mov	r17, r24
     c46:	00 27       	eor	r16, r16
     c48:	ce 01       	movw	r24, r28
     c4a:	8d 5a       	subi	r24, 0xAD	; 173
     c4c:	9f 4f       	sbci	r25, 0xFF	; 255
     c4e:	fc 01       	movw	r30, r24
     c50:	80 81       	ld	r24, Z
     c52:	91 81       	ldd	r25, Z+1	; 0x01
     c54:	87 5e       	subi	r24, 0xE7	; 231
     c56:	9e 4f       	sbci	r25, 0xFE	; 254
     c58:	fc 01       	movw	r30, r24
     c5a:	80 81       	ld	r24, Z
     c5c:	91 81       	ldd	r25, Z+1	; 0x01
     c5e:	03 96       	adiw	r24, 0x03	; 3
     c60:	9c 01       	movw	r18, r24
     c62:	ce 01       	movw	r24, r28
     c64:	8d 5a       	subi	r24, 0xAD	; 173
     c66:	9f 4f       	sbci	r25, 0xFF	; 255
     c68:	fc 01       	movw	r30, r24
     c6a:	80 81       	ld	r24, Z
     c6c:	91 81       	ldd	r25, Z+1	; 0x01
     c6e:	85 5f       	subi	r24, 0xF5	; 245
     c70:	9e 4f       	sbci	r25, 0xFE	; 254
     c72:	fc 01       	movw	r30, r24
     c74:	80 81       	ld	r24, Z
     c76:	91 81       	ldd	r25, Z+1	; 0x01
     c78:	b9 01       	movw	r22, r18
     c7a:	0e 94 ac 25 	call	0x4b58	; 0x4b58 <_ZN3ram4readEi>
     c7e:	88 2f       	mov	r24, r24
     c80:	90 e0       	ldi	r25, 0x00	; 0
     c82:	80 2b       	or	r24, r16
     c84:	91 2b       	or	r25, r17
     c86:	9d 87       	std	Y+13, r25	; 0x0d
     c88:	8c 87       	std	Y+12, r24	; 0x0c
     c8a:	2c 85       	ldd	r18, Y+12	; 0x0c
     c8c:	3d 85       	ldd	r19, Y+13	; 0x0d
     c8e:	ce 01       	movw	r24, r28
     c90:	8d 5a       	subi	r24, 0xAD	; 173
     c92:	9f 4f       	sbci	r25, 0xFF	; 255
     c94:	fc 01       	movw	r30, r24
     c96:	80 81       	ld	r24, Z
     c98:	91 81       	ldd	r25, Z+1	; 0x01
     c9a:	a9 01       	movw	r20, r18
     c9c:	6b 85       	ldd	r22, Y+11	; 0x0b
     c9e:	0e 94 0c 16 	call	0x2c18	; 0x2c18 <_ZN11interpreter2ldEcj>
     ca2:	ce 01       	movw	r24, r28
     ca4:	8d 5a       	subi	r24, 0xAD	; 173
     ca6:	9f 4f       	sbci	r25, 0xFF	; 255
     ca8:	fc 01       	movw	r30, r24
     caa:	80 81       	ld	r24, Z
     cac:	91 81       	ldd	r25, Z+1	; 0x01
     cae:	87 5e       	subi	r24, 0xE7	; 231
     cb0:	9e 4f       	sbci	r25, 0xFE	; 254
     cb2:	fc 01       	movw	r30, r24
     cb4:	80 81       	ld	r24, Z
     cb6:	91 81       	ldd	r25, Z+1	; 0x01
     cb8:	9c 01       	movw	r18, r24
     cba:	2d 5f       	subi	r18, 0xFD	; 253
     cbc:	3f 4f       	sbci	r19, 0xFF	; 255
     cbe:	ce 01       	movw	r24, r28
     cc0:	8d 5a       	subi	r24, 0xAD	; 173
     cc2:	9f 4f       	sbci	r25, 0xFF	; 255
     cc4:	fc 01       	movw	r30, r24
     cc6:	80 81       	ld	r24, Z
     cc8:	91 81       	ldd	r25, Z+1	; 0x01
     cca:	87 5e       	subi	r24, 0xE7	; 231
     ccc:	9e 4f       	sbci	r25, 0xFE	; 254
     cce:	fc 01       	movw	r30, r24
     cd0:	31 83       	std	Z+1, r19	; 0x01
     cd2:	20 83       	st	Z, r18
     cd4:	0c 94 b5 15 	jmp	0x2b6a	; 0x2b6a <__stack+0x1a6b>
     cd8:	8a 81       	ldd	r24, Y+2	; 0x02
     cda:	87 30       	cpi	r24, 0x07	; 7
     cdc:	09 f0       	breq	.+2      	; 0xce0 <_ZN11interpreter3runEv+0x544>
     cde:	5d c0       	rjmp	.+186    	; 0xd9a <_ZN11interpreter3runEv+0x5fe>
     ce0:	ce 01       	movw	r24, r28
     ce2:	8d 5a       	subi	r24, 0xAD	; 173
     ce4:	9f 4f       	sbci	r25, 0xFF	; 255
     ce6:	fc 01       	movw	r30, r24
     ce8:	80 81       	ld	r24, Z
     cea:	91 81       	ldd	r25, Z+1	; 0x01
     cec:	87 5e       	subi	r24, 0xE7	; 231
     cee:	9e 4f       	sbci	r25, 0xFE	; 254
     cf0:	fc 01       	movw	r30, r24
     cf2:	80 81       	ld	r24, Z
     cf4:	91 81       	ldd	r25, Z+1	; 0x01
     cf6:	01 96       	adiw	r24, 0x01	; 1
     cf8:	9c 01       	movw	r18, r24
     cfa:	ce 01       	movw	r24, r28
     cfc:	8d 5a       	subi	r24, 0xAD	; 173
     cfe:	9f 4f       	sbci	r25, 0xFF	; 255
     d00:	fc 01       	movw	r30, r24
     d02:	80 81       	ld	r24, Z
     d04:	91 81       	ldd	r25, Z+1	; 0x01
     d06:	85 5f       	subi	r24, 0xF5	; 245
     d08:	9e 4f       	sbci	r25, 0xFE	; 254
     d0a:	fc 01       	movw	r30, r24
     d0c:	80 81       	ld	r24, Z
     d0e:	91 81       	ldd	r25, Z+1	; 0x01
     d10:	b9 01       	movw	r22, r18
     d12:	0e 94 ac 25 	call	0x4b58	; 0x4b58 <_ZN3ram4readEi>
     d16:	8e 87       	std	Y+14, r24	; 0x0e
     d18:	ce 01       	movw	r24, r28
     d1a:	8d 5a       	subi	r24, 0xAD	; 173
     d1c:	9f 4f       	sbci	r25, 0xFF	; 255
     d1e:	fc 01       	movw	r30, r24
     d20:	80 81       	ld	r24, Z
     d22:	91 81       	ldd	r25, Z+1	; 0x01
     d24:	87 5e       	subi	r24, 0xE7	; 231
     d26:	9e 4f       	sbci	r25, 0xFE	; 254
     d28:	fc 01       	movw	r30, r24
     d2a:	80 81       	ld	r24, Z
     d2c:	91 81       	ldd	r25, Z+1	; 0x01
     d2e:	02 96       	adiw	r24, 0x02	; 2
     d30:	9c 01       	movw	r18, r24
     d32:	ce 01       	movw	r24, r28
     d34:	8d 5a       	subi	r24, 0xAD	; 173
     d36:	9f 4f       	sbci	r25, 0xFF	; 255
     d38:	fc 01       	movw	r30, r24
     d3a:	80 81       	ld	r24, Z
     d3c:	91 81       	ldd	r25, Z+1	; 0x01
     d3e:	85 5f       	subi	r24, 0xF5	; 245
     d40:	9e 4f       	sbci	r25, 0xFE	; 254
     d42:	fc 01       	movw	r30, r24
     d44:	80 81       	ld	r24, Z
     d46:	91 81       	ldd	r25, Z+1	; 0x01
     d48:	b9 01       	movw	r22, r18
     d4a:	0e 94 ac 25 	call	0x4b58	; 0x4b58 <_ZN3ram4readEi>
     d4e:	8f 87       	std	Y+15, r24	; 0x0f
     d50:	ce 01       	movw	r24, r28
     d52:	8d 5a       	subi	r24, 0xAD	; 173
     d54:	9f 4f       	sbci	r25, 0xFF	; 255
     d56:	fc 01       	movw	r30, r24
     d58:	80 81       	ld	r24, Z
     d5a:	91 81       	ldd	r25, Z+1	; 0x01
     d5c:	4f 85       	ldd	r20, Y+15	; 0x0f
     d5e:	6e 85       	ldd	r22, Y+14	; 0x0e
     d60:	0e 94 3b 16 	call	0x2c76	; 0x2c76 <_ZN11interpreter3ldiEcc>
     d64:	ce 01       	movw	r24, r28
     d66:	8d 5a       	subi	r24, 0xAD	; 173
     d68:	9f 4f       	sbci	r25, 0xFF	; 255
     d6a:	fc 01       	movw	r30, r24
     d6c:	80 81       	ld	r24, Z
     d6e:	91 81       	ldd	r25, Z+1	; 0x01
     d70:	87 5e       	subi	r24, 0xE7	; 231
     d72:	9e 4f       	sbci	r25, 0xFE	; 254
     d74:	fc 01       	movw	r30, r24
     d76:	80 81       	ld	r24, Z
     d78:	91 81       	ldd	r25, Z+1	; 0x01
     d7a:	9c 01       	movw	r18, r24
     d7c:	2e 5f       	subi	r18, 0xFE	; 254
     d7e:	3f 4f       	sbci	r19, 0xFF	; 255
     d80:	ce 01       	movw	r24, r28
     d82:	8d 5a       	subi	r24, 0xAD	; 173
     d84:	9f 4f       	sbci	r25, 0xFF	; 255
     d86:	fc 01       	movw	r30, r24
     d88:	80 81       	ld	r24, Z
     d8a:	91 81       	ldd	r25, Z+1	; 0x01
     d8c:	87 5e       	subi	r24, 0xE7	; 231
     d8e:	9e 4f       	sbci	r25, 0xFE	; 254
     d90:	fc 01       	movw	r30, r24
     d92:	31 83       	std	Z+1, r19	; 0x01
     d94:	20 83       	st	Z, r18
     d96:	0c 94 b5 15 	jmp	0x2b6a	; 0x2b6a <__stack+0x1a6b>
     d9a:	8a 81       	ldd	r24, Y+2	; 0x02
     d9c:	88 30       	cpi	r24, 0x08	; 8
     d9e:	09 f0       	breq	.+2      	; 0xda2 <_ZN11interpreter3runEv+0x606>
     da0:	40 c0       	rjmp	.+128    	; 0xe22 <_ZN11interpreter3runEv+0x686>
     da2:	ce 01       	movw	r24, r28
     da4:	8d 5a       	subi	r24, 0xAD	; 173
     da6:	9f 4f       	sbci	r25, 0xFF	; 255
     da8:	fc 01       	movw	r30, r24
     daa:	80 81       	ld	r24, Z
     dac:	91 81       	ldd	r25, Z+1	; 0x01
     dae:	87 5e       	subi	r24, 0xE7	; 231
     db0:	9e 4f       	sbci	r25, 0xFE	; 254
     db2:	fc 01       	movw	r30, r24
     db4:	80 81       	ld	r24, Z
     db6:	91 81       	ldd	r25, Z+1	; 0x01
     db8:	01 96       	adiw	r24, 0x01	; 1
     dba:	9c 01       	movw	r18, r24
     dbc:	ce 01       	movw	r24, r28
     dbe:	8d 5a       	subi	r24, 0xAD	; 173
     dc0:	9f 4f       	sbci	r25, 0xFF	; 255
     dc2:	fc 01       	movw	r30, r24
     dc4:	80 81       	ld	r24, Z
     dc6:	91 81       	ldd	r25, Z+1	; 0x01
     dc8:	85 5f       	subi	r24, 0xF5	; 245
     dca:	9e 4f       	sbci	r25, 0xFE	; 254
     dcc:	fc 01       	movw	r30, r24
     dce:	80 81       	ld	r24, Z
     dd0:	91 81       	ldd	r25, Z+1	; 0x01
     dd2:	b9 01       	movw	r22, r18
     dd4:	0e 94 ac 25 	call	0x4b58	; 0x4b58 <_ZN3ram4readEi>
     dd8:	88 8b       	std	Y+16, r24	; 0x10
     dda:	ce 01       	movw	r24, r28
     ddc:	8d 5a       	subi	r24, 0xAD	; 173
     dde:	9f 4f       	sbci	r25, 0xFF	; 255
     de0:	fc 01       	movw	r30, r24
     de2:	80 81       	ld	r24, Z
     de4:	91 81       	ldd	r25, Z+1	; 0x01
     de6:	68 89       	ldd	r22, Y+16	; 0x10
     de8:	0e 94 ae 16 	call	0x2d5c	; 0x2d5c <_ZN11interpreter3stxEc>
     dec:	ce 01       	movw	r24, r28
     dee:	8d 5a       	subi	r24, 0xAD	; 173
     df0:	9f 4f       	sbci	r25, 0xFF	; 255
     df2:	fc 01       	movw	r30, r24
     df4:	80 81       	ld	r24, Z
     df6:	91 81       	ldd	r25, Z+1	; 0x01
     df8:	87 5e       	subi	r24, 0xE7	; 231
     dfa:	9e 4f       	sbci	r25, 0xFE	; 254
     dfc:	fc 01       	movw	r30, r24
     dfe:	80 81       	ld	r24, Z
     e00:	91 81       	ldd	r25, Z+1	; 0x01
     e02:	9c 01       	movw	r18, r24
     e04:	2f 5f       	subi	r18, 0xFF	; 255
     e06:	3f 4f       	sbci	r19, 0xFF	; 255
     e08:	ce 01       	movw	r24, r28
     e0a:	8d 5a       	subi	r24, 0xAD	; 173
     e0c:	9f 4f       	sbci	r25, 0xFF	; 255
     e0e:	fc 01       	movw	r30, r24
     e10:	80 81       	ld	r24, Z
     e12:	91 81       	ldd	r25, Z+1	; 0x01
     e14:	87 5e       	subi	r24, 0xE7	; 231
     e16:	9e 4f       	sbci	r25, 0xFE	; 254
     e18:	fc 01       	movw	r30, r24
     e1a:	31 83       	std	Z+1, r19	; 0x01
     e1c:	20 83       	st	Z, r18
     e1e:	0c 94 b5 15 	jmp	0x2b6a	; 0x2b6a <__stack+0x1a6b>
     e22:	8a 81       	ldd	r24, Y+2	; 0x02
     e24:	89 30       	cpi	r24, 0x09	; 9
     e26:	09 f0       	breq	.+2      	; 0xe2a <_ZN11interpreter3runEv+0x68e>
     e28:	40 c0       	rjmp	.+128    	; 0xeaa <_ZN11interpreter3runEv+0x70e>
     e2a:	ce 01       	movw	r24, r28
     e2c:	8d 5a       	subi	r24, 0xAD	; 173
     e2e:	9f 4f       	sbci	r25, 0xFF	; 255
     e30:	fc 01       	movw	r30, r24
     e32:	80 81       	ld	r24, Z
     e34:	91 81       	ldd	r25, Z+1	; 0x01
     e36:	87 5e       	subi	r24, 0xE7	; 231
     e38:	9e 4f       	sbci	r25, 0xFE	; 254
     e3a:	fc 01       	movw	r30, r24
     e3c:	80 81       	ld	r24, Z
     e3e:	91 81       	ldd	r25, Z+1	; 0x01
     e40:	01 96       	adiw	r24, 0x01	; 1
     e42:	9c 01       	movw	r18, r24
     e44:	ce 01       	movw	r24, r28
     e46:	8d 5a       	subi	r24, 0xAD	; 173
     e48:	9f 4f       	sbci	r25, 0xFF	; 255
     e4a:	fc 01       	movw	r30, r24
     e4c:	80 81       	ld	r24, Z
     e4e:	91 81       	ldd	r25, Z+1	; 0x01
     e50:	85 5f       	subi	r24, 0xF5	; 245
     e52:	9e 4f       	sbci	r25, 0xFE	; 254
     e54:	fc 01       	movw	r30, r24
     e56:	80 81       	ld	r24, Z
     e58:	91 81       	ldd	r25, Z+1	; 0x01
     e5a:	b9 01       	movw	r22, r18
     e5c:	0e 94 ac 25 	call	0x4b58	; 0x4b58 <_ZN3ram4readEi>
     e60:	89 8b       	std	Y+17, r24	; 0x11
     e62:	ce 01       	movw	r24, r28
     e64:	8d 5a       	subi	r24, 0xAD	; 173
     e66:	9f 4f       	sbci	r25, 0xFF	; 255
     e68:	fc 01       	movw	r30, r24
     e6a:	80 81       	ld	r24, Z
     e6c:	91 81       	ldd	r25, Z+1	; 0x01
     e6e:	69 89       	ldd	r22, Y+17	; 0x11
     e70:	0e 94 eb 16 	call	0x2dd6	; 0x2dd6 <_ZN11interpreter3styEc>
     e74:	ce 01       	movw	r24, r28
     e76:	8d 5a       	subi	r24, 0xAD	; 173
     e78:	9f 4f       	sbci	r25, 0xFF	; 255
     e7a:	fc 01       	movw	r30, r24
     e7c:	80 81       	ld	r24, Z
     e7e:	91 81       	ldd	r25, Z+1	; 0x01
     e80:	87 5e       	subi	r24, 0xE7	; 231
     e82:	9e 4f       	sbci	r25, 0xFE	; 254
     e84:	fc 01       	movw	r30, r24
     e86:	80 81       	ld	r24, Z
     e88:	91 81       	ldd	r25, Z+1	; 0x01
     e8a:	9c 01       	movw	r18, r24
     e8c:	2f 5f       	subi	r18, 0xFF	; 255
     e8e:	3f 4f       	sbci	r19, 0xFF	; 255
     e90:	ce 01       	movw	r24, r28
     e92:	8d 5a       	subi	r24, 0xAD	; 173
     e94:	9f 4f       	sbci	r25, 0xFF	; 255
     e96:	fc 01       	movw	r30, r24
     e98:	80 81       	ld	r24, Z
     e9a:	91 81       	ldd	r25, Z+1	; 0x01
     e9c:	87 5e       	subi	r24, 0xE7	; 231
     e9e:	9e 4f       	sbci	r25, 0xFE	; 254
     ea0:	fc 01       	movw	r30, r24
     ea2:	31 83       	std	Z+1, r19	; 0x01
     ea4:	20 83       	st	Z, r18
     ea6:	0c 94 b5 15 	jmp	0x2b6a	; 0x2b6a <__stack+0x1a6b>
     eaa:	8a 81       	ldd	r24, Y+2	; 0x02
     eac:	8a 30       	cpi	r24, 0x0A	; 10
     eae:	09 f0       	breq	.+2      	; 0xeb2 <_ZN11interpreter3runEv+0x716>
     eb0:	40 c0       	rjmp	.+128    	; 0xf32 <_ZN11interpreter3runEv+0x796>
     eb2:	ce 01       	movw	r24, r28
     eb4:	8d 5a       	subi	r24, 0xAD	; 173
     eb6:	9f 4f       	sbci	r25, 0xFF	; 255
     eb8:	fc 01       	movw	r30, r24
     eba:	80 81       	ld	r24, Z
     ebc:	91 81       	ldd	r25, Z+1	; 0x01
     ebe:	87 5e       	subi	r24, 0xE7	; 231
     ec0:	9e 4f       	sbci	r25, 0xFE	; 254
     ec2:	fc 01       	movw	r30, r24
     ec4:	80 81       	ld	r24, Z
     ec6:	91 81       	ldd	r25, Z+1	; 0x01
     ec8:	01 96       	adiw	r24, 0x01	; 1
     eca:	9c 01       	movw	r18, r24
     ecc:	ce 01       	movw	r24, r28
     ece:	8d 5a       	subi	r24, 0xAD	; 173
     ed0:	9f 4f       	sbci	r25, 0xFF	; 255
     ed2:	fc 01       	movw	r30, r24
     ed4:	80 81       	ld	r24, Z
     ed6:	91 81       	ldd	r25, Z+1	; 0x01
     ed8:	85 5f       	subi	r24, 0xF5	; 245
     eda:	9e 4f       	sbci	r25, 0xFE	; 254
     edc:	fc 01       	movw	r30, r24
     ede:	80 81       	ld	r24, Z
     ee0:	91 81       	ldd	r25, Z+1	; 0x01
     ee2:	b9 01       	movw	r22, r18
     ee4:	0e 94 ac 25 	call	0x4b58	; 0x4b58 <_ZN3ram4readEi>
     ee8:	8a 8b       	std	Y+18, r24	; 0x12
     eea:	ce 01       	movw	r24, r28
     eec:	8d 5a       	subi	r24, 0xAD	; 173
     eee:	9f 4f       	sbci	r25, 0xFF	; 255
     ef0:	fc 01       	movw	r30, r24
     ef2:	80 81       	ld	r24, Z
     ef4:	91 81       	ldd	r25, Z+1	; 0x01
     ef6:	6a 89       	ldd	r22, Y+18	; 0x12
     ef8:	0e 94 28 17 	call	0x2e50	; 0x2e50 <_ZN11interpreter3stzEc>
     efc:	ce 01       	movw	r24, r28
     efe:	8d 5a       	subi	r24, 0xAD	; 173
     f00:	9f 4f       	sbci	r25, 0xFF	; 255
     f02:	fc 01       	movw	r30, r24
     f04:	80 81       	ld	r24, Z
     f06:	91 81       	ldd	r25, Z+1	; 0x01
     f08:	87 5e       	subi	r24, 0xE7	; 231
     f0a:	9e 4f       	sbci	r25, 0xFE	; 254
     f0c:	fc 01       	movw	r30, r24
     f0e:	80 81       	ld	r24, Z
     f10:	91 81       	ldd	r25, Z+1	; 0x01
     f12:	9c 01       	movw	r18, r24
     f14:	2f 5f       	subi	r18, 0xFF	; 255
     f16:	3f 4f       	sbci	r19, 0xFF	; 255
     f18:	ce 01       	movw	r24, r28
     f1a:	8d 5a       	subi	r24, 0xAD	; 173
     f1c:	9f 4f       	sbci	r25, 0xFF	; 255
     f1e:	fc 01       	movw	r30, r24
     f20:	80 81       	ld	r24, Z
     f22:	91 81       	ldd	r25, Z+1	; 0x01
     f24:	87 5e       	subi	r24, 0xE7	; 231
     f26:	9e 4f       	sbci	r25, 0xFE	; 254
     f28:	fc 01       	movw	r30, r24
     f2a:	31 83       	std	Z+1, r19	; 0x01
     f2c:	20 83       	st	Z, r18
     f2e:	0c 94 b5 15 	jmp	0x2b6a	; 0x2b6a <__stack+0x1a6b>
     f32:	8a 81       	ldd	r24, Y+2	; 0x02
     f34:	8b 30       	cpi	r24, 0x0B	; 11
     f36:	09 f0       	breq	.+2      	; 0xf3a <_ZN11interpreter3runEv+0x79e>
     f38:	83 c0       	rjmp	.+262    	; 0x1040 <_ZN11interpreter3runEv+0x8a4>
     f3a:	ce 01       	movw	r24, r28
     f3c:	8d 5a       	subi	r24, 0xAD	; 173
     f3e:	9f 4f       	sbci	r25, 0xFF	; 255
     f40:	fc 01       	movw	r30, r24
     f42:	80 81       	ld	r24, Z
     f44:	91 81       	ldd	r25, Z+1	; 0x01
     f46:	87 5e       	subi	r24, 0xE7	; 231
     f48:	9e 4f       	sbci	r25, 0xFE	; 254
     f4a:	fc 01       	movw	r30, r24
     f4c:	80 81       	ld	r24, Z
     f4e:	91 81       	ldd	r25, Z+1	; 0x01
     f50:	02 96       	adiw	r24, 0x02	; 2
     f52:	9c 01       	movw	r18, r24
     f54:	ce 01       	movw	r24, r28
     f56:	8d 5a       	subi	r24, 0xAD	; 173
     f58:	9f 4f       	sbci	r25, 0xFF	; 255
     f5a:	fc 01       	movw	r30, r24
     f5c:	80 81       	ld	r24, Z
     f5e:	91 81       	ldd	r25, Z+1	; 0x01
     f60:	85 5f       	subi	r24, 0xF5	; 245
     f62:	9e 4f       	sbci	r25, 0xFE	; 254
     f64:	fc 01       	movw	r30, r24
     f66:	80 81       	ld	r24, Z
     f68:	91 81       	ldd	r25, Z+1	; 0x01
     f6a:	b9 01       	movw	r22, r18
     f6c:	0e 94 ac 25 	call	0x4b58	; 0x4b58 <_ZN3ram4readEi>
     f70:	88 2f       	mov	r24, r24
     f72:	90 e0       	ldi	r25, 0x00	; 0
     f74:	18 2f       	mov	r17, r24
     f76:	00 27       	eor	r16, r16
     f78:	ce 01       	movw	r24, r28
     f7a:	8d 5a       	subi	r24, 0xAD	; 173
     f7c:	9f 4f       	sbci	r25, 0xFF	; 255
     f7e:	fc 01       	movw	r30, r24
     f80:	80 81       	ld	r24, Z
     f82:	91 81       	ldd	r25, Z+1	; 0x01
     f84:	87 5e       	subi	r24, 0xE7	; 231
     f86:	9e 4f       	sbci	r25, 0xFE	; 254
     f88:	fc 01       	movw	r30, r24
     f8a:	80 81       	ld	r24, Z
     f8c:	91 81       	ldd	r25, Z+1	; 0x01
     f8e:	03 96       	adiw	r24, 0x03	; 3
     f90:	9c 01       	movw	r18, r24
     f92:	ce 01       	movw	r24, r28
     f94:	8d 5a       	subi	r24, 0xAD	; 173
     f96:	9f 4f       	sbci	r25, 0xFF	; 255
     f98:	fc 01       	movw	r30, r24
     f9a:	80 81       	ld	r24, Z
     f9c:	91 81       	ldd	r25, Z+1	; 0x01
     f9e:	85 5f       	subi	r24, 0xF5	; 245
     fa0:	9e 4f       	sbci	r25, 0xFE	; 254
     fa2:	fc 01       	movw	r30, r24
     fa4:	80 81       	ld	r24, Z
     fa6:	91 81       	ldd	r25, Z+1	; 0x01
     fa8:	b9 01       	movw	r22, r18
     faa:	0e 94 ac 25 	call	0x4b58	; 0x4b58 <_ZN3ram4readEi>
     fae:	88 2f       	mov	r24, r24
     fb0:	90 e0       	ldi	r25, 0x00	; 0
     fb2:	80 2b       	or	r24, r16
     fb4:	91 2b       	or	r25, r17
     fb6:	9c 8b       	std	Y+20, r25	; 0x14
     fb8:	8b 8b       	std	Y+19, r24	; 0x13
     fba:	ce 01       	movw	r24, r28
     fbc:	8d 5a       	subi	r24, 0xAD	; 173
     fbe:	9f 4f       	sbci	r25, 0xFF	; 255
     fc0:	fc 01       	movw	r30, r24
     fc2:	80 81       	ld	r24, Z
     fc4:	91 81       	ldd	r25, Z+1	; 0x01
     fc6:	87 5e       	subi	r24, 0xE7	; 231
     fc8:	9e 4f       	sbci	r25, 0xFE	; 254
     fca:	fc 01       	movw	r30, r24
     fcc:	80 81       	ld	r24, Z
     fce:	91 81       	ldd	r25, Z+1	; 0x01
     fd0:	01 96       	adiw	r24, 0x01	; 1
     fd2:	9c 01       	movw	r18, r24
     fd4:	ce 01       	movw	r24, r28
     fd6:	8d 5a       	subi	r24, 0xAD	; 173
     fd8:	9f 4f       	sbci	r25, 0xFF	; 255
     fda:	fc 01       	movw	r30, r24
     fdc:	80 81       	ld	r24, Z
     fde:	91 81       	ldd	r25, Z+1	; 0x01
     fe0:	85 5f       	subi	r24, 0xF5	; 245
     fe2:	9e 4f       	sbci	r25, 0xFE	; 254
     fe4:	fc 01       	movw	r30, r24
     fe6:	80 81       	ld	r24, Z
     fe8:	91 81       	ldd	r25, Z+1	; 0x01
     fea:	b9 01       	movw	r22, r18
     fec:	0e 94 ac 25 	call	0x4b58	; 0x4b58 <_ZN3ram4readEi>
     ff0:	8d 8b       	std	Y+21, r24	; 0x15
     ff2:	2b 89       	ldd	r18, Y+19	; 0x13
     ff4:	3c 89       	ldd	r19, Y+20	; 0x14
     ff6:	ce 01       	movw	r24, r28
     ff8:	8d 5a       	subi	r24, 0xAD	; 173
     ffa:	9f 4f       	sbci	r25, 0xFF	; 255
     ffc:	fc 01       	movw	r30, r24
     ffe:	80 81       	ld	r24, Z
    1000:	91 81       	ldd	r25, Z+1	; 0x01
    1002:	4d 89       	ldd	r20, Y+21	; 0x15
    1004:	b9 01       	movw	r22, r18
    1006:	0e 94 65 17 	call	0x2eca	; 0x2eca <_ZN11interpreter3stdEjc>
    100a:	ce 01       	movw	r24, r28
    100c:	8d 5a       	subi	r24, 0xAD	; 173
    100e:	9f 4f       	sbci	r25, 0xFF	; 255
    1010:	fc 01       	movw	r30, r24
    1012:	80 81       	ld	r24, Z
    1014:	91 81       	ldd	r25, Z+1	; 0x01
    1016:	87 5e       	subi	r24, 0xE7	; 231
    1018:	9e 4f       	sbci	r25, 0xFE	; 254
    101a:	fc 01       	movw	r30, r24
    101c:	80 81       	ld	r24, Z
    101e:	91 81       	ldd	r25, Z+1	; 0x01
    1020:	9c 01       	movw	r18, r24
    1022:	2d 5f       	subi	r18, 0xFD	; 253
    1024:	3f 4f       	sbci	r19, 0xFF	; 255
    1026:	ce 01       	movw	r24, r28
    1028:	8d 5a       	subi	r24, 0xAD	; 173
    102a:	9f 4f       	sbci	r25, 0xFF	; 255
    102c:	fc 01       	movw	r30, r24
    102e:	80 81       	ld	r24, Z
    1030:	91 81       	ldd	r25, Z+1	; 0x01
    1032:	87 5e       	subi	r24, 0xE7	; 231
    1034:	9e 4f       	sbci	r25, 0xFE	; 254
    1036:	fc 01       	movw	r30, r24
    1038:	31 83       	std	Z+1, r19	; 0x01
    103a:	20 83       	st	Z, r18
    103c:	0c 94 b5 15 	jmp	0x2b6a	; 0x2b6a <__stack+0x1a6b>
    1040:	8a 81       	ldd	r24, Y+2	; 0x02
    1042:	8c 30       	cpi	r24, 0x0C	; 12
    1044:	09 f0       	breq	.+2      	; 0x1048 <_ZN11interpreter3runEv+0x8ac>
    1046:	83 c0       	rjmp	.+262    	; 0x114e <__stack+0x4f>
    1048:	ce 01       	movw	r24, r28
    104a:	8d 5a       	subi	r24, 0xAD	; 173
    104c:	9f 4f       	sbci	r25, 0xFF	; 255
    104e:	fc 01       	movw	r30, r24
    1050:	80 81       	ld	r24, Z
    1052:	91 81       	ldd	r25, Z+1	; 0x01
    1054:	87 5e       	subi	r24, 0xE7	; 231
    1056:	9e 4f       	sbci	r25, 0xFE	; 254
    1058:	fc 01       	movw	r30, r24
    105a:	80 81       	ld	r24, Z
    105c:	91 81       	ldd	r25, Z+1	; 0x01
    105e:	02 96       	adiw	r24, 0x02	; 2
    1060:	9c 01       	movw	r18, r24
    1062:	ce 01       	movw	r24, r28
    1064:	8d 5a       	subi	r24, 0xAD	; 173
    1066:	9f 4f       	sbci	r25, 0xFF	; 255
    1068:	fc 01       	movw	r30, r24
    106a:	80 81       	ld	r24, Z
    106c:	91 81       	ldd	r25, Z+1	; 0x01
    106e:	85 5f       	subi	r24, 0xF5	; 245
    1070:	9e 4f       	sbci	r25, 0xFE	; 254
    1072:	fc 01       	movw	r30, r24
    1074:	80 81       	ld	r24, Z
    1076:	91 81       	ldd	r25, Z+1	; 0x01
    1078:	b9 01       	movw	r22, r18
    107a:	0e 94 ac 25 	call	0x4b58	; 0x4b58 <_ZN3ram4readEi>
    107e:	88 2f       	mov	r24, r24
    1080:	90 e0       	ldi	r25, 0x00	; 0
    1082:	18 2f       	mov	r17, r24
    1084:	00 27       	eor	r16, r16
    1086:	ce 01       	movw	r24, r28
    1088:	8d 5a       	subi	r24, 0xAD	; 173
    108a:	9f 4f       	sbci	r25, 0xFF	; 255
    108c:	fc 01       	movw	r30, r24
    108e:	80 81       	ld	r24, Z
    1090:	91 81       	ldd	r25, Z+1	; 0x01
    1092:	87 5e       	subi	r24, 0xE7	; 231
    1094:	9e 4f       	sbci	r25, 0xFE	; 254
    1096:	fc 01       	movw	r30, r24
    1098:	80 81       	ld	r24, Z
    109a:	91 81       	ldd	r25, Z+1	; 0x01
    109c:	03 96       	adiw	r24, 0x03	; 3
    109e:	9c 01       	movw	r18, r24
    10a0:	ce 01       	movw	r24, r28
    10a2:	8d 5a       	subi	r24, 0xAD	; 173
    10a4:	9f 4f       	sbci	r25, 0xFF	; 255
    10a6:	fc 01       	movw	r30, r24
    10a8:	80 81       	ld	r24, Z
    10aa:	91 81       	ldd	r25, Z+1	; 0x01
    10ac:	85 5f       	subi	r24, 0xF5	; 245
    10ae:	9e 4f       	sbci	r25, 0xFE	; 254
    10b0:	fc 01       	movw	r30, r24
    10b2:	80 81       	ld	r24, Z
    10b4:	91 81       	ldd	r25, Z+1	; 0x01
    10b6:	b9 01       	movw	r22, r18
    10b8:	0e 94 ac 25 	call	0x4b58	; 0x4b58 <_ZN3ram4readEi>
    10bc:	88 2f       	mov	r24, r24
    10be:	90 e0       	ldi	r25, 0x00	; 0
    10c0:	80 2b       	or	r24, r16
    10c2:	91 2b       	or	r25, r17
    10c4:	9f 8b       	std	Y+23, r25	; 0x17
    10c6:	8e 8b       	std	Y+22, r24	; 0x16
    10c8:	ce 01       	movw	r24, r28
    10ca:	8d 5a       	subi	r24, 0xAD	; 173
    10cc:	9f 4f       	sbci	r25, 0xFF	; 255
    10ce:	fc 01       	movw	r30, r24
    10d0:	80 81       	ld	r24, Z
    10d2:	91 81       	ldd	r25, Z+1	; 0x01
    10d4:	87 5e       	subi	r24, 0xE7	; 231
    10d6:	9e 4f       	sbci	r25, 0xFE	; 254
    10d8:	fc 01       	movw	r30, r24
    10da:	80 81       	ld	r24, Z
    10dc:	91 81       	ldd	r25, Z+1	; 0x01
    10de:	01 96       	adiw	r24, 0x01	; 1
    10e0:	9c 01       	movw	r18, r24
    10e2:	ce 01       	movw	r24, r28
    10e4:	8d 5a       	subi	r24, 0xAD	; 173
    10e6:	9f 4f       	sbci	r25, 0xFF	; 255
    10e8:	fc 01       	movw	r30, r24
    10ea:	80 81       	ld	r24, Z
    10ec:	91 81       	ldd	r25, Z+1	; 0x01
    10ee:	85 5f       	subi	r24, 0xF5	; 245
    10f0:	9e 4f       	sbci	r25, 0xFE	; 254
    10f2:	fc 01       	movw	r30, r24
    10f4:	80 81       	ld	r24, Z
    10f6:	91 81       	ldd	r25, Z+1	; 0x01
    10f8:	b9 01       	movw	r22, r18
    10fa:	0e 94 ac 25 	call	0x4b58	; 0x4b58 <_ZN3ram4readEi>
    10fe:	88 8f       	std	Y+24, r24	; 0x18
    1100:	2e 89       	ldd	r18, Y+22	; 0x16
    1102:	3f 89       	ldd	r19, Y+23	; 0x17
    1104:	ce 01       	movw	r24, r28
    1106:	8d 5a       	subi	r24, 0xAD	; 173
    1108:	9f 4f       	sbci	r25, 0xFF	; 255
    110a:	fc 01       	movw	r30, r24
    110c:	80 81       	ld	r24, Z
    110e:	91 81       	ldd	r25, Z+1	; 0x01
    1110:	48 8d       	ldd	r20, Y+24	; 0x18
    1112:	b9 01       	movw	r22, r18
    1114:	0e 94 87 17 	call	0x2f0e	; 0x2f0e <_ZN11interpreter3svdEjc>
    1118:	ce 01       	movw	r24, r28
    111a:	8d 5a       	subi	r24, 0xAD	; 173
    111c:	9f 4f       	sbci	r25, 0xFF	; 255
    111e:	fc 01       	movw	r30, r24
    1120:	80 81       	ld	r24, Z
    1122:	91 81       	ldd	r25, Z+1	; 0x01
    1124:	87 5e       	subi	r24, 0xE7	; 231
    1126:	9e 4f       	sbci	r25, 0xFE	; 254
    1128:	fc 01       	movw	r30, r24
    112a:	80 81       	ld	r24, Z
    112c:	91 81       	ldd	r25, Z+1	; 0x01
    112e:	9c 01       	movw	r18, r24
    1130:	2d 5f       	subi	r18, 0xFD	; 253
    1132:	3f 4f       	sbci	r19, 0xFF	; 255
    1134:	ce 01       	movw	r24, r28
    1136:	8d 5a       	subi	r24, 0xAD	; 173
    1138:	9f 4f       	sbci	r25, 0xFF	; 255
    113a:	fc 01       	movw	r30, r24
    113c:	80 81       	ld	r24, Z
    113e:	91 81       	ldd	r25, Z+1	; 0x01
    1140:	87 5e       	subi	r24, 0xE7	; 231
    1142:	9e 4f       	sbci	r25, 0xFE	; 254
    1144:	fc 01       	movw	r30, r24
    1146:	31 83       	std	Z+1, r19	; 0x01
    1148:	20 83       	st	Z, r18
    114a:	0c 94 b5 15 	jmp	0x2b6a	; 0x2b6a <__stack+0x1a6b>
    114e:	8a 81       	ldd	r24, Y+2	; 0x02
    1150:	8d 30       	cpi	r24, 0x0D	; 13
    1152:	09 f0       	breq	.+2      	; 0x1156 <__stack+0x57>
    1154:	40 c0       	rjmp	.+128    	; 0x11d6 <__stack+0xd7>
    1156:	ce 01       	movw	r24, r28
    1158:	8d 5a       	subi	r24, 0xAD	; 173
    115a:	9f 4f       	sbci	r25, 0xFF	; 255
    115c:	fc 01       	movw	r30, r24
    115e:	80 81       	ld	r24, Z
    1160:	91 81       	ldd	r25, Z+1	; 0x01
    1162:	87 5e       	subi	r24, 0xE7	; 231
    1164:	9e 4f       	sbci	r25, 0xFE	; 254
    1166:	fc 01       	movw	r30, r24
    1168:	80 81       	ld	r24, Z
    116a:	91 81       	ldd	r25, Z+1	; 0x01
    116c:	01 96       	adiw	r24, 0x01	; 1
    116e:	9c 01       	movw	r18, r24
    1170:	ce 01       	movw	r24, r28
    1172:	8d 5a       	subi	r24, 0xAD	; 173
    1174:	9f 4f       	sbci	r25, 0xFF	; 255
    1176:	fc 01       	movw	r30, r24
    1178:	80 81       	ld	r24, Z
    117a:	91 81       	ldd	r25, Z+1	; 0x01
    117c:	85 5f       	subi	r24, 0xF5	; 245
    117e:	9e 4f       	sbci	r25, 0xFE	; 254
    1180:	fc 01       	movw	r30, r24
    1182:	80 81       	ld	r24, Z
    1184:	91 81       	ldd	r25, Z+1	; 0x01
    1186:	b9 01       	movw	r22, r18
    1188:	0e 94 ac 25 	call	0x4b58	; 0x4b58 <_ZN3ram4readEi>
    118c:	89 8f       	std	Y+25, r24	; 0x19
    118e:	ce 01       	movw	r24, r28
    1190:	8d 5a       	subi	r24, 0xAD	; 173
    1192:	9f 4f       	sbci	r25, 0xFF	; 255
    1194:	fc 01       	movw	r30, r24
    1196:	80 81       	ld	r24, Z
    1198:	91 81       	ldd	r25, Z+1	; 0x01
    119a:	69 8d       	ldd	r22, Y+25	; 0x19
    119c:	0e 94 ab 17 	call	0x2f56	; 0x2f56 <_ZN11interpreter3svxEc>
    11a0:	ce 01       	movw	r24, r28
    11a2:	8d 5a       	subi	r24, 0xAD	; 173
    11a4:	9f 4f       	sbci	r25, 0xFF	; 255
    11a6:	fc 01       	movw	r30, r24
    11a8:	80 81       	ld	r24, Z
    11aa:	91 81       	ldd	r25, Z+1	; 0x01
    11ac:	87 5e       	subi	r24, 0xE7	; 231
    11ae:	9e 4f       	sbci	r25, 0xFE	; 254
    11b0:	fc 01       	movw	r30, r24
    11b2:	80 81       	ld	r24, Z
    11b4:	91 81       	ldd	r25, Z+1	; 0x01
    11b6:	9c 01       	movw	r18, r24
    11b8:	2f 5f       	subi	r18, 0xFF	; 255
    11ba:	3f 4f       	sbci	r19, 0xFF	; 255
    11bc:	ce 01       	movw	r24, r28
    11be:	8d 5a       	subi	r24, 0xAD	; 173
    11c0:	9f 4f       	sbci	r25, 0xFF	; 255
    11c2:	fc 01       	movw	r30, r24
    11c4:	80 81       	ld	r24, Z
    11c6:	91 81       	ldd	r25, Z+1	; 0x01
    11c8:	87 5e       	subi	r24, 0xE7	; 231
    11ca:	9e 4f       	sbci	r25, 0xFE	; 254
    11cc:	fc 01       	movw	r30, r24
    11ce:	31 83       	std	Z+1, r19	; 0x01
    11d0:	20 83       	st	Z, r18
    11d2:	0c 94 b5 15 	jmp	0x2b6a	; 0x2b6a <__stack+0x1a6b>
    11d6:	8a 81       	ldd	r24, Y+2	; 0x02
    11d8:	8e 30       	cpi	r24, 0x0E	; 14
    11da:	09 f0       	breq	.+2      	; 0x11de <__stack+0xdf>
    11dc:	40 c0       	rjmp	.+128    	; 0x125e <__stack+0x15f>
    11de:	ce 01       	movw	r24, r28
    11e0:	8d 5a       	subi	r24, 0xAD	; 173
    11e2:	9f 4f       	sbci	r25, 0xFF	; 255
    11e4:	fc 01       	movw	r30, r24
    11e6:	80 81       	ld	r24, Z
    11e8:	91 81       	ldd	r25, Z+1	; 0x01
    11ea:	87 5e       	subi	r24, 0xE7	; 231
    11ec:	9e 4f       	sbci	r25, 0xFE	; 254
    11ee:	fc 01       	movw	r30, r24
    11f0:	80 81       	ld	r24, Z
    11f2:	91 81       	ldd	r25, Z+1	; 0x01
    11f4:	01 96       	adiw	r24, 0x01	; 1
    11f6:	9c 01       	movw	r18, r24
    11f8:	ce 01       	movw	r24, r28
    11fa:	8d 5a       	subi	r24, 0xAD	; 173
    11fc:	9f 4f       	sbci	r25, 0xFF	; 255
    11fe:	fc 01       	movw	r30, r24
    1200:	80 81       	ld	r24, Z
    1202:	91 81       	ldd	r25, Z+1	; 0x01
    1204:	85 5f       	subi	r24, 0xF5	; 245
    1206:	9e 4f       	sbci	r25, 0xFE	; 254
    1208:	fc 01       	movw	r30, r24
    120a:	80 81       	ld	r24, Z
    120c:	91 81       	ldd	r25, Z+1	; 0x01
    120e:	b9 01       	movw	r22, r18
    1210:	0e 94 ac 25 	call	0x4b58	; 0x4b58 <_ZN3ram4readEi>
    1214:	8a 8f       	std	Y+26, r24	; 0x1a
    1216:	ce 01       	movw	r24, r28
    1218:	8d 5a       	subi	r24, 0xAD	; 173
    121a:	9f 4f       	sbci	r25, 0xFF	; 255
    121c:	fc 01       	movw	r30, r24
    121e:	80 81       	ld	r24, Z
    1220:	91 81       	ldd	r25, Z+1	; 0x01
    1222:	6a 8d       	ldd	r22, Y+26	; 0x1a
    1224:	0e 94 cd 17 	call	0x2f9a	; 0x2f9a <_ZN11interpreter3svyEc>
    1228:	ce 01       	movw	r24, r28
    122a:	8d 5a       	subi	r24, 0xAD	; 173
    122c:	9f 4f       	sbci	r25, 0xFF	; 255
    122e:	fc 01       	movw	r30, r24
    1230:	80 81       	ld	r24, Z
    1232:	91 81       	ldd	r25, Z+1	; 0x01
    1234:	87 5e       	subi	r24, 0xE7	; 231
    1236:	9e 4f       	sbci	r25, 0xFE	; 254
    1238:	fc 01       	movw	r30, r24
    123a:	80 81       	ld	r24, Z
    123c:	91 81       	ldd	r25, Z+1	; 0x01
    123e:	9c 01       	movw	r18, r24
    1240:	2f 5f       	subi	r18, 0xFF	; 255
    1242:	3f 4f       	sbci	r19, 0xFF	; 255
    1244:	ce 01       	movw	r24, r28
    1246:	8d 5a       	subi	r24, 0xAD	; 173
    1248:	9f 4f       	sbci	r25, 0xFF	; 255
    124a:	fc 01       	movw	r30, r24
    124c:	80 81       	ld	r24, Z
    124e:	91 81       	ldd	r25, Z+1	; 0x01
    1250:	87 5e       	subi	r24, 0xE7	; 231
    1252:	9e 4f       	sbci	r25, 0xFE	; 254
    1254:	fc 01       	movw	r30, r24
    1256:	31 83       	std	Z+1, r19	; 0x01
    1258:	20 83       	st	Z, r18
    125a:	0c 94 b5 15 	jmp	0x2b6a	; 0x2b6a <__stack+0x1a6b>
    125e:	8a 81       	ldd	r24, Y+2	; 0x02
    1260:	8f 30       	cpi	r24, 0x0F	; 15
    1262:	09 f0       	breq	.+2      	; 0x1266 <__stack+0x167>
    1264:	40 c0       	rjmp	.+128    	; 0x12e6 <__stack+0x1e7>
    1266:	ce 01       	movw	r24, r28
    1268:	8d 5a       	subi	r24, 0xAD	; 173
    126a:	9f 4f       	sbci	r25, 0xFF	; 255
    126c:	fc 01       	movw	r30, r24
    126e:	80 81       	ld	r24, Z
    1270:	91 81       	ldd	r25, Z+1	; 0x01
    1272:	87 5e       	subi	r24, 0xE7	; 231
    1274:	9e 4f       	sbci	r25, 0xFE	; 254
    1276:	fc 01       	movw	r30, r24
    1278:	80 81       	ld	r24, Z
    127a:	91 81       	ldd	r25, Z+1	; 0x01
    127c:	01 96       	adiw	r24, 0x01	; 1
    127e:	9c 01       	movw	r18, r24
    1280:	ce 01       	movw	r24, r28
    1282:	8d 5a       	subi	r24, 0xAD	; 173
    1284:	9f 4f       	sbci	r25, 0xFF	; 255
    1286:	fc 01       	movw	r30, r24
    1288:	80 81       	ld	r24, Z
    128a:	91 81       	ldd	r25, Z+1	; 0x01
    128c:	85 5f       	subi	r24, 0xF5	; 245
    128e:	9e 4f       	sbci	r25, 0xFE	; 254
    1290:	fc 01       	movw	r30, r24
    1292:	80 81       	ld	r24, Z
    1294:	91 81       	ldd	r25, Z+1	; 0x01
    1296:	b9 01       	movw	r22, r18
    1298:	0e 94 ac 25 	call	0x4b58	; 0x4b58 <_ZN3ram4readEi>
    129c:	8b 8f       	std	Y+27, r24	; 0x1b
    129e:	ce 01       	movw	r24, r28
    12a0:	8d 5a       	subi	r24, 0xAD	; 173
    12a2:	9f 4f       	sbci	r25, 0xFF	; 255
    12a4:	fc 01       	movw	r30, r24
    12a6:	80 81       	ld	r24, Z
    12a8:	91 81       	ldd	r25, Z+1	; 0x01
    12aa:	6b 8d       	ldd	r22, Y+27	; 0x1b
    12ac:	0e 94 ef 17 	call	0x2fde	; 0x2fde <_ZN11interpreter3svzEc>
    12b0:	ce 01       	movw	r24, r28
    12b2:	8d 5a       	subi	r24, 0xAD	; 173
    12b4:	9f 4f       	sbci	r25, 0xFF	; 255
    12b6:	fc 01       	movw	r30, r24
    12b8:	80 81       	ld	r24, Z
    12ba:	91 81       	ldd	r25, Z+1	; 0x01
    12bc:	87 5e       	subi	r24, 0xE7	; 231
    12be:	9e 4f       	sbci	r25, 0xFE	; 254
    12c0:	fc 01       	movw	r30, r24
    12c2:	80 81       	ld	r24, Z
    12c4:	91 81       	ldd	r25, Z+1	; 0x01
    12c6:	9c 01       	movw	r18, r24
    12c8:	2f 5f       	subi	r18, 0xFF	; 255
    12ca:	3f 4f       	sbci	r19, 0xFF	; 255
    12cc:	ce 01       	movw	r24, r28
    12ce:	8d 5a       	subi	r24, 0xAD	; 173
    12d0:	9f 4f       	sbci	r25, 0xFF	; 255
    12d2:	fc 01       	movw	r30, r24
    12d4:	80 81       	ld	r24, Z
    12d6:	91 81       	ldd	r25, Z+1	; 0x01
    12d8:	87 5e       	subi	r24, 0xE7	; 231
    12da:	9e 4f       	sbci	r25, 0xFE	; 254
    12dc:	fc 01       	movw	r30, r24
    12de:	31 83       	std	Z+1, r19	; 0x01
    12e0:	20 83       	st	Z, r18
    12e2:	0c 94 b5 15 	jmp	0x2b6a	; 0x2b6a <__stack+0x1a6b>
    12e6:	8a 81       	ldd	r24, Y+2	; 0x02
    12e8:	80 31       	cpi	r24, 0x10	; 16
    12ea:	51 f4       	brne	.+20     	; 0x1300 <__stack+0x201>
    12ec:	ce 01       	movw	r24, r28
    12ee:	8d 5a       	subi	r24, 0xAD	; 173
    12f0:	9f 4f       	sbci	r25, 0xFF	; 255
    12f2:	fc 01       	movw	r30, r24
    12f4:	80 81       	ld	r24, Z
    12f6:	91 81       	ldd	r25, Z+1	; 0x01
    12f8:	0e 94 11 18 	call	0x3022	; 0x3022 <_ZN11interpreter3txsEv>
    12fc:	0c 94 b5 15 	jmp	0x2b6a	; 0x2b6a <__stack+0x1a6b>
    1300:	8a 81       	ldd	r24, Y+2	; 0x02
    1302:	81 31       	cpi	r24, 0x11	; 17
    1304:	51 f4       	brne	.+20     	; 0x131a <__stack+0x21b>
    1306:	ce 01       	movw	r24, r28
    1308:	8d 5a       	subi	r24, 0xAD	; 173
    130a:	9f 4f       	sbci	r25, 0xFF	; 255
    130c:	fc 01       	movw	r30, r24
    130e:	80 81       	ld	r24, Z
    1310:	91 81       	ldd	r25, Z+1	; 0x01
    1312:	0e 94 2c 18 	call	0x3058	; 0x3058 <_ZN11interpreter3txyEv>
    1316:	0c 94 b5 15 	jmp	0x2b6a	; 0x2b6a <__stack+0x1a6b>
    131a:	8a 81       	ldd	r24, Y+2	; 0x02
    131c:	82 31       	cpi	r24, 0x12	; 18
    131e:	51 f4       	brne	.+20     	; 0x1334 <__stack+0x235>
    1320:	ce 01       	movw	r24, r28
    1322:	8d 5a       	subi	r24, 0xAD	; 173
    1324:	9f 4f       	sbci	r25, 0xFF	; 255
    1326:	fc 01       	movw	r30, r24
    1328:	80 81       	ld	r24, Z
    132a:	91 81       	ldd	r25, Z+1	; 0x01
    132c:	0e 94 47 18 	call	0x308e	; 0x308e <_ZN11interpreter3txzEv>
    1330:	0c 94 b5 15 	jmp	0x2b6a	; 0x2b6a <__stack+0x1a6b>
    1334:	8a 81       	ldd	r24, Y+2	; 0x02
    1336:	83 31       	cpi	r24, 0x13	; 19
    1338:	51 f4       	brne	.+20     	; 0x134e <__stack+0x24f>
    133a:	ce 01       	movw	r24, r28
    133c:	8d 5a       	subi	r24, 0xAD	; 173
    133e:	9f 4f       	sbci	r25, 0xFF	; 255
    1340:	fc 01       	movw	r30, r24
    1342:	80 81       	ld	r24, Z
    1344:	91 81       	ldd	r25, Z+1	; 0x01
    1346:	0e 94 62 18 	call	0x30c4	; 0x30c4 <_ZN11interpreter3tysEv>
    134a:	0c 94 b5 15 	jmp	0x2b6a	; 0x2b6a <__stack+0x1a6b>
    134e:	8a 81       	ldd	r24, Y+2	; 0x02
    1350:	84 31       	cpi	r24, 0x14	; 20
    1352:	51 f4       	brne	.+20     	; 0x1368 <__stack+0x269>
    1354:	ce 01       	movw	r24, r28
    1356:	8d 5a       	subi	r24, 0xAD	; 173
    1358:	9f 4f       	sbci	r25, 0xFF	; 255
    135a:	fc 01       	movw	r30, r24
    135c:	80 81       	ld	r24, Z
    135e:	91 81       	ldd	r25, Z+1	; 0x01
    1360:	0e 94 7d 18 	call	0x30fa	; 0x30fa <_ZN11interpreter3tyxEv>
    1364:	0c 94 b5 15 	jmp	0x2b6a	; 0x2b6a <__stack+0x1a6b>
    1368:	8a 81       	ldd	r24, Y+2	; 0x02
    136a:	85 31       	cpi	r24, 0x15	; 21
    136c:	51 f4       	brne	.+20     	; 0x1382 <__stack+0x283>
    136e:	ce 01       	movw	r24, r28
    1370:	8d 5a       	subi	r24, 0xAD	; 173
    1372:	9f 4f       	sbci	r25, 0xFF	; 255
    1374:	fc 01       	movw	r30, r24
    1376:	80 81       	ld	r24, Z
    1378:	91 81       	ldd	r25, Z+1	; 0x01
    137a:	0e 94 98 18 	call	0x3130	; 0x3130 <_ZN11interpreter3tyzEv>
    137e:	0c 94 b5 15 	jmp	0x2b6a	; 0x2b6a <__stack+0x1a6b>
    1382:	8a 81       	ldd	r24, Y+2	; 0x02
    1384:	86 31       	cpi	r24, 0x16	; 22
    1386:	51 f4       	brne	.+20     	; 0x139c <__stack+0x29d>
    1388:	ce 01       	movw	r24, r28
    138a:	8d 5a       	subi	r24, 0xAD	; 173
    138c:	9f 4f       	sbci	r25, 0xFF	; 255
    138e:	fc 01       	movw	r30, r24
    1390:	80 81       	ld	r24, Z
    1392:	91 81       	ldd	r25, Z+1	; 0x01
    1394:	0e 94 b3 18 	call	0x3166	; 0x3166 <_ZN11interpreter3tzsEv>
    1398:	0c 94 b5 15 	jmp	0x2b6a	; 0x2b6a <__stack+0x1a6b>
    139c:	8a 81       	ldd	r24, Y+2	; 0x02
    139e:	87 31       	cpi	r24, 0x17	; 23
    13a0:	51 f4       	brne	.+20     	; 0x13b6 <__stack+0x2b7>
    13a2:	ce 01       	movw	r24, r28
    13a4:	8d 5a       	subi	r24, 0xAD	; 173
    13a6:	9f 4f       	sbci	r25, 0xFF	; 255
    13a8:	fc 01       	movw	r30, r24
    13aa:	80 81       	ld	r24, Z
    13ac:	91 81       	ldd	r25, Z+1	; 0x01
    13ae:	0e 94 ce 18 	call	0x319c	; 0x319c <_ZN11interpreter3tzxEv>
    13b2:	0c 94 b5 15 	jmp	0x2b6a	; 0x2b6a <__stack+0x1a6b>
    13b6:	8a 81       	ldd	r24, Y+2	; 0x02
    13b8:	88 31       	cpi	r24, 0x18	; 24
    13ba:	51 f4       	brne	.+20     	; 0x13d0 <__stack+0x2d1>
    13bc:	ce 01       	movw	r24, r28
    13be:	8d 5a       	subi	r24, 0xAD	; 173
    13c0:	9f 4f       	sbci	r25, 0xFF	; 255
    13c2:	fc 01       	movw	r30, r24
    13c4:	80 81       	ld	r24, Z
    13c6:	91 81       	ldd	r25, Z+1	; 0x01
    13c8:	0e 94 e9 18 	call	0x31d2	; 0x31d2 <_ZN11interpreter3tzyEv>
    13cc:	0c 94 b5 15 	jmp	0x2b6a	; 0x2b6a <__stack+0x1a6b>
    13d0:	8a 81       	ldd	r24, Y+2	; 0x02
    13d2:	89 31       	cpi	r24, 0x19	; 25
    13d4:	51 f4       	brne	.+20     	; 0x13ea <__stack+0x2eb>
    13d6:	ce 01       	movw	r24, r28
    13d8:	8d 5a       	subi	r24, 0xAD	; 173
    13da:	9f 4f       	sbci	r25, 0xFF	; 255
    13dc:	fc 01       	movw	r30, r24
    13de:	80 81       	ld	r24, Z
    13e0:	91 81       	ldd	r25, Z+1	; 0x01
    13e2:	0e 94 04 19 	call	0x3208	; 0x3208 <_ZN11interpreter3tsxEv>
    13e6:	0c 94 b5 15 	jmp	0x2b6a	; 0x2b6a <__stack+0x1a6b>
    13ea:	8a 81       	ldd	r24, Y+2	; 0x02
    13ec:	8a 31       	cpi	r24, 0x1A	; 26
    13ee:	51 f4       	brne	.+20     	; 0x1404 <__stack+0x305>
    13f0:	ce 01       	movw	r24, r28
    13f2:	8d 5a       	subi	r24, 0xAD	; 173
    13f4:	9f 4f       	sbci	r25, 0xFF	; 255
    13f6:	fc 01       	movw	r30, r24
    13f8:	80 81       	ld	r24, Z
    13fa:	91 81       	ldd	r25, Z+1	; 0x01
    13fc:	0e 94 1f 19 	call	0x323e	; 0x323e <_ZN11interpreter3tsyEv>
    1400:	0c 94 b5 15 	jmp	0x2b6a	; 0x2b6a <__stack+0x1a6b>
    1404:	8a 81       	ldd	r24, Y+2	; 0x02
    1406:	8b 31       	cpi	r24, 0x1B	; 27
    1408:	51 f4       	brne	.+20     	; 0x141e <__stack+0x31f>
    140a:	ce 01       	movw	r24, r28
    140c:	8d 5a       	subi	r24, 0xAD	; 173
    140e:	9f 4f       	sbci	r25, 0xFF	; 255
    1410:	fc 01       	movw	r30, r24
    1412:	80 81       	ld	r24, Z
    1414:	91 81       	ldd	r25, Z+1	; 0x01
    1416:	0e 94 3a 19 	call	0x3274	; 0x3274 <_ZN11interpreter3tszEv>
    141a:	0c 94 b5 15 	jmp	0x2b6a	; 0x2b6a <__stack+0x1a6b>
    141e:	8a 81       	ldd	r24, Y+2	; 0x02
    1420:	8c 31       	cpi	r24, 0x1C	; 28
    1422:	09 f0       	breq	.+2      	; 0x1426 <__stack+0x327>
    1424:	5d c0       	rjmp	.+186    	; 0x14e0 <__stack+0x3e1>
    1426:	ce 01       	movw	r24, r28
    1428:	8d 5a       	subi	r24, 0xAD	; 173
    142a:	9f 4f       	sbci	r25, 0xFF	; 255
    142c:	fc 01       	movw	r30, r24
    142e:	80 81       	ld	r24, Z
    1430:	91 81       	ldd	r25, Z+1	; 0x01
    1432:	87 5e       	subi	r24, 0xE7	; 231
    1434:	9e 4f       	sbci	r25, 0xFE	; 254
    1436:	fc 01       	movw	r30, r24
    1438:	80 81       	ld	r24, Z
    143a:	91 81       	ldd	r25, Z+1	; 0x01
    143c:	01 96       	adiw	r24, 0x01	; 1
    143e:	9c 01       	movw	r18, r24
    1440:	ce 01       	movw	r24, r28
    1442:	8d 5a       	subi	r24, 0xAD	; 173
    1444:	9f 4f       	sbci	r25, 0xFF	; 255
    1446:	fc 01       	movw	r30, r24
    1448:	80 81       	ld	r24, Z
    144a:	91 81       	ldd	r25, Z+1	; 0x01
    144c:	85 5f       	subi	r24, 0xF5	; 245
    144e:	9e 4f       	sbci	r25, 0xFE	; 254
    1450:	fc 01       	movw	r30, r24
    1452:	80 81       	ld	r24, Z
    1454:	91 81       	ldd	r25, Z+1	; 0x01
    1456:	b9 01       	movw	r22, r18
    1458:	0e 94 ac 25 	call	0x4b58	; 0x4b58 <_ZN3ram4readEi>
    145c:	8c 8f       	std	Y+28, r24	; 0x1c
    145e:	ce 01       	movw	r24, r28
    1460:	8d 5a       	subi	r24, 0xAD	; 173
    1462:	9f 4f       	sbci	r25, 0xFF	; 255
    1464:	fc 01       	movw	r30, r24
    1466:	80 81       	ld	r24, Z
    1468:	91 81       	ldd	r25, Z+1	; 0x01
    146a:	87 5e       	subi	r24, 0xE7	; 231
    146c:	9e 4f       	sbci	r25, 0xFE	; 254
    146e:	fc 01       	movw	r30, r24
    1470:	80 81       	ld	r24, Z
    1472:	91 81       	ldd	r25, Z+1	; 0x01
    1474:	02 96       	adiw	r24, 0x02	; 2
    1476:	9c 01       	movw	r18, r24
    1478:	ce 01       	movw	r24, r28
    147a:	8d 5a       	subi	r24, 0xAD	; 173
    147c:	9f 4f       	sbci	r25, 0xFF	; 255
    147e:	fc 01       	movw	r30, r24
    1480:	80 81       	ld	r24, Z
    1482:	91 81       	ldd	r25, Z+1	; 0x01
    1484:	85 5f       	subi	r24, 0xF5	; 245
    1486:	9e 4f       	sbci	r25, 0xFE	; 254
    1488:	fc 01       	movw	r30, r24
    148a:	80 81       	ld	r24, Z
    148c:	91 81       	ldd	r25, Z+1	; 0x01
    148e:	b9 01       	movw	r22, r18
    1490:	0e 94 ac 25 	call	0x4b58	; 0x4b58 <_ZN3ram4readEi>
    1494:	8d 8f       	std	Y+29, r24	; 0x1d
    1496:	ce 01       	movw	r24, r28
    1498:	8d 5a       	subi	r24, 0xAD	; 173
    149a:	9f 4f       	sbci	r25, 0xFF	; 255
    149c:	fc 01       	movw	r30, r24
    149e:	80 81       	ld	r24, Z
    14a0:	91 81       	ldd	r25, Z+1	; 0x01
    14a2:	4d 8d       	ldd	r20, Y+29	; 0x1d
    14a4:	6c 8d       	ldd	r22, Y+28	; 0x1c
    14a6:	0e 94 55 19 	call	0x32aa	; 0x32aa <_ZN11interpreter3cmpEcc>
    14aa:	ce 01       	movw	r24, r28
    14ac:	8d 5a       	subi	r24, 0xAD	; 173
    14ae:	9f 4f       	sbci	r25, 0xFF	; 255
    14b0:	fc 01       	movw	r30, r24
    14b2:	80 81       	ld	r24, Z
    14b4:	91 81       	ldd	r25, Z+1	; 0x01
    14b6:	87 5e       	subi	r24, 0xE7	; 231
    14b8:	9e 4f       	sbci	r25, 0xFE	; 254
    14ba:	fc 01       	movw	r30, r24
    14bc:	80 81       	ld	r24, Z
    14be:	91 81       	ldd	r25, Z+1	; 0x01
    14c0:	9c 01       	movw	r18, r24
    14c2:	2e 5f       	subi	r18, 0xFE	; 254
    14c4:	3f 4f       	sbci	r19, 0xFF	; 255
    14c6:	ce 01       	movw	r24, r28
    14c8:	8d 5a       	subi	r24, 0xAD	; 173
    14ca:	9f 4f       	sbci	r25, 0xFF	; 255
    14cc:	fc 01       	movw	r30, r24
    14ce:	80 81       	ld	r24, Z
    14d0:	91 81       	ldd	r25, Z+1	; 0x01
    14d2:	87 5e       	subi	r24, 0xE7	; 231
    14d4:	9e 4f       	sbci	r25, 0xFE	; 254
    14d6:	fc 01       	movw	r30, r24
    14d8:	31 83       	std	Z+1, r19	; 0x01
    14da:	20 83       	st	Z, r18
    14dc:	0c 94 b5 15 	jmp	0x2b6a	; 0x2b6a <__stack+0x1a6b>
    14e0:	8a 81       	ldd	r24, Y+2	; 0x02
    14e2:	8d 31       	cpi	r24, 0x1D	; 29
    14e4:	09 f0       	breq	.+2      	; 0x14e8 <__stack+0x3e9>
    14e6:	5d c0       	rjmp	.+186    	; 0x15a2 <__stack+0x4a3>
    14e8:	ce 01       	movw	r24, r28
    14ea:	8d 5a       	subi	r24, 0xAD	; 173
    14ec:	9f 4f       	sbci	r25, 0xFF	; 255
    14ee:	fc 01       	movw	r30, r24
    14f0:	80 81       	ld	r24, Z
    14f2:	91 81       	ldd	r25, Z+1	; 0x01
    14f4:	87 5e       	subi	r24, 0xE7	; 231
    14f6:	9e 4f       	sbci	r25, 0xFE	; 254
    14f8:	fc 01       	movw	r30, r24
    14fa:	80 81       	ld	r24, Z
    14fc:	91 81       	ldd	r25, Z+1	; 0x01
    14fe:	01 96       	adiw	r24, 0x01	; 1
    1500:	9c 01       	movw	r18, r24
    1502:	ce 01       	movw	r24, r28
    1504:	8d 5a       	subi	r24, 0xAD	; 173
    1506:	9f 4f       	sbci	r25, 0xFF	; 255
    1508:	fc 01       	movw	r30, r24
    150a:	80 81       	ld	r24, Z
    150c:	91 81       	ldd	r25, Z+1	; 0x01
    150e:	85 5f       	subi	r24, 0xF5	; 245
    1510:	9e 4f       	sbci	r25, 0xFE	; 254
    1512:	fc 01       	movw	r30, r24
    1514:	80 81       	ld	r24, Z
    1516:	91 81       	ldd	r25, Z+1	; 0x01
    1518:	b9 01       	movw	r22, r18
    151a:	0e 94 ac 25 	call	0x4b58	; 0x4b58 <_ZN3ram4readEi>
    151e:	8e 8f       	std	Y+30, r24	; 0x1e
    1520:	ce 01       	movw	r24, r28
    1522:	8d 5a       	subi	r24, 0xAD	; 173
    1524:	9f 4f       	sbci	r25, 0xFF	; 255
    1526:	fc 01       	movw	r30, r24
    1528:	80 81       	ld	r24, Z
    152a:	91 81       	ldd	r25, Z+1	; 0x01
    152c:	87 5e       	subi	r24, 0xE7	; 231
    152e:	9e 4f       	sbci	r25, 0xFE	; 254
    1530:	fc 01       	movw	r30, r24
    1532:	80 81       	ld	r24, Z
    1534:	91 81       	ldd	r25, Z+1	; 0x01
    1536:	02 96       	adiw	r24, 0x02	; 2
    1538:	9c 01       	movw	r18, r24
    153a:	ce 01       	movw	r24, r28
    153c:	8d 5a       	subi	r24, 0xAD	; 173
    153e:	9f 4f       	sbci	r25, 0xFF	; 255
    1540:	fc 01       	movw	r30, r24
    1542:	80 81       	ld	r24, Z
    1544:	91 81       	ldd	r25, Z+1	; 0x01
    1546:	85 5f       	subi	r24, 0xF5	; 245
    1548:	9e 4f       	sbci	r25, 0xFE	; 254
    154a:	fc 01       	movw	r30, r24
    154c:	80 81       	ld	r24, Z
    154e:	91 81       	ldd	r25, Z+1	; 0x01
    1550:	b9 01       	movw	r22, r18
    1552:	0e 94 ac 25 	call	0x4b58	; 0x4b58 <_ZN3ram4readEi>
    1556:	8f 8f       	std	Y+31, r24	; 0x1f
    1558:	ce 01       	movw	r24, r28
    155a:	8d 5a       	subi	r24, 0xAD	; 173
    155c:	9f 4f       	sbci	r25, 0xFF	; 255
    155e:	fc 01       	movw	r30, r24
    1560:	80 81       	ld	r24, Z
    1562:	91 81       	ldd	r25, Z+1	; 0x01
    1564:	4f 8d       	ldd	r20, Y+31	; 0x1f
    1566:	6e 8d       	ldd	r22, Y+30	; 0x1e
    1568:	0e 94 8b 19 	call	0x3316	; 0x3316 <_ZN11interpreter3cpiEcc>
    156c:	ce 01       	movw	r24, r28
    156e:	8d 5a       	subi	r24, 0xAD	; 173
    1570:	9f 4f       	sbci	r25, 0xFF	; 255
    1572:	fc 01       	movw	r30, r24
    1574:	80 81       	ld	r24, Z
    1576:	91 81       	ldd	r25, Z+1	; 0x01
    1578:	87 5e       	subi	r24, 0xE7	; 231
    157a:	9e 4f       	sbci	r25, 0xFE	; 254
    157c:	fc 01       	movw	r30, r24
    157e:	80 81       	ld	r24, Z
    1580:	91 81       	ldd	r25, Z+1	; 0x01
    1582:	9c 01       	movw	r18, r24
    1584:	2e 5f       	subi	r18, 0xFE	; 254
    1586:	3f 4f       	sbci	r19, 0xFF	; 255
    1588:	ce 01       	movw	r24, r28
    158a:	8d 5a       	subi	r24, 0xAD	; 173
    158c:	9f 4f       	sbci	r25, 0xFF	; 255
    158e:	fc 01       	movw	r30, r24
    1590:	80 81       	ld	r24, Z
    1592:	91 81       	ldd	r25, Z+1	; 0x01
    1594:	87 5e       	subi	r24, 0xE7	; 231
    1596:	9e 4f       	sbci	r25, 0xFE	; 254
    1598:	fc 01       	movw	r30, r24
    159a:	31 83       	std	Z+1, r19	; 0x01
    159c:	20 83       	st	Z, r18
    159e:	0c 94 b5 15 	jmp	0x2b6a	; 0x2b6a <__stack+0x1a6b>
    15a2:	8a 81       	ldd	r24, Y+2	; 0x02
    15a4:	8e 31       	cpi	r24, 0x1E	; 30
    15a6:	09 f0       	breq	.+2      	; 0x15aa <__stack+0x4ab>
    15a8:	40 c0       	rjmp	.+128    	; 0x162a <__stack+0x52b>
    15aa:	ce 01       	movw	r24, r28
    15ac:	8d 5a       	subi	r24, 0xAD	; 173
    15ae:	9f 4f       	sbci	r25, 0xFF	; 255
    15b0:	fc 01       	movw	r30, r24
    15b2:	80 81       	ld	r24, Z
    15b4:	91 81       	ldd	r25, Z+1	; 0x01
    15b6:	87 5e       	subi	r24, 0xE7	; 231
    15b8:	9e 4f       	sbci	r25, 0xFE	; 254
    15ba:	fc 01       	movw	r30, r24
    15bc:	80 81       	ld	r24, Z
    15be:	91 81       	ldd	r25, Z+1	; 0x01
    15c0:	01 96       	adiw	r24, 0x01	; 1
    15c2:	9c 01       	movw	r18, r24
    15c4:	ce 01       	movw	r24, r28
    15c6:	8d 5a       	subi	r24, 0xAD	; 173
    15c8:	9f 4f       	sbci	r25, 0xFF	; 255
    15ca:	fc 01       	movw	r30, r24
    15cc:	80 81       	ld	r24, Z
    15ce:	91 81       	ldd	r25, Z+1	; 0x01
    15d0:	85 5f       	subi	r24, 0xF5	; 245
    15d2:	9e 4f       	sbci	r25, 0xFE	; 254
    15d4:	fc 01       	movw	r30, r24
    15d6:	80 81       	ld	r24, Z
    15d8:	91 81       	ldd	r25, Z+1	; 0x01
    15da:	b9 01       	movw	r22, r18
    15dc:	0e 94 ac 25 	call	0x4b58	; 0x4b58 <_ZN3ram4readEi>
    15e0:	28 2f       	mov	r18, r24
    15e2:	ce 01       	movw	r24, r28
    15e4:	8d 5a       	subi	r24, 0xAD	; 173
    15e6:	9f 4f       	sbci	r25, 0xFF	; 255
    15e8:	fc 01       	movw	r30, r24
    15ea:	80 81       	ld	r24, Z
    15ec:	91 81       	ldd	r25, Z+1	; 0x01
    15ee:	62 2f       	mov	r22, r18
    15f0:	0e 94 c1 19 	call	0x3382	; 0x3382 <_ZN11interpreter3rorEc>
    15f4:	ce 01       	movw	r24, r28
    15f6:	8d 5a       	subi	r24, 0xAD	; 173
    15f8:	9f 4f       	sbci	r25, 0xFF	; 255
    15fa:	fc 01       	movw	r30, r24
    15fc:	80 81       	ld	r24, Z
    15fe:	91 81       	ldd	r25, Z+1	; 0x01
    1600:	87 5e       	subi	r24, 0xE7	; 231
    1602:	9e 4f       	sbci	r25, 0xFE	; 254
    1604:	fc 01       	movw	r30, r24
    1606:	80 81       	ld	r24, Z
    1608:	91 81       	ldd	r25, Z+1	; 0x01
    160a:	9c 01       	movw	r18, r24
    160c:	2f 5f       	subi	r18, 0xFF	; 255
    160e:	3f 4f       	sbci	r19, 0xFF	; 255
    1610:	ce 01       	movw	r24, r28
    1612:	8d 5a       	subi	r24, 0xAD	; 173
    1614:	9f 4f       	sbci	r25, 0xFF	; 255
    1616:	fc 01       	movw	r30, r24
    1618:	80 81       	ld	r24, Z
    161a:	91 81       	ldd	r25, Z+1	; 0x01
    161c:	87 5e       	subi	r24, 0xE7	; 231
    161e:	9e 4f       	sbci	r25, 0xFE	; 254
    1620:	fc 01       	movw	r30, r24
    1622:	31 83       	std	Z+1, r19	; 0x01
    1624:	20 83       	st	Z, r18
    1626:	0c 94 b5 15 	jmp	0x2b6a	; 0x2b6a <__stack+0x1a6b>
    162a:	8a 81       	ldd	r24, Y+2	; 0x02
    162c:	8f 31       	cpi	r24, 0x1F	; 31
    162e:	09 f0       	breq	.+2      	; 0x1632 <__stack+0x533>
    1630:	40 c0       	rjmp	.+128    	; 0x16b2 <__stack+0x5b3>
    1632:	ce 01       	movw	r24, r28
    1634:	8d 5a       	subi	r24, 0xAD	; 173
    1636:	9f 4f       	sbci	r25, 0xFF	; 255
    1638:	fc 01       	movw	r30, r24
    163a:	80 81       	ld	r24, Z
    163c:	91 81       	ldd	r25, Z+1	; 0x01
    163e:	87 5e       	subi	r24, 0xE7	; 231
    1640:	9e 4f       	sbci	r25, 0xFE	; 254
    1642:	fc 01       	movw	r30, r24
    1644:	80 81       	ld	r24, Z
    1646:	91 81       	ldd	r25, Z+1	; 0x01
    1648:	01 96       	adiw	r24, 0x01	; 1
    164a:	9c 01       	movw	r18, r24
    164c:	ce 01       	movw	r24, r28
    164e:	8d 5a       	subi	r24, 0xAD	; 173
    1650:	9f 4f       	sbci	r25, 0xFF	; 255
    1652:	fc 01       	movw	r30, r24
    1654:	80 81       	ld	r24, Z
    1656:	91 81       	ldd	r25, Z+1	; 0x01
    1658:	85 5f       	subi	r24, 0xF5	; 245
    165a:	9e 4f       	sbci	r25, 0xFE	; 254
    165c:	fc 01       	movw	r30, r24
    165e:	80 81       	ld	r24, Z
    1660:	91 81       	ldd	r25, Z+1	; 0x01
    1662:	b9 01       	movw	r22, r18
    1664:	0e 94 ac 25 	call	0x4b58	; 0x4b58 <_ZN3ram4readEi>
    1668:	28 2f       	mov	r18, r24
    166a:	ce 01       	movw	r24, r28
    166c:	8d 5a       	subi	r24, 0xAD	; 173
    166e:	9f 4f       	sbci	r25, 0xFF	; 255
    1670:	fc 01       	movw	r30, r24
    1672:	80 81       	ld	r24, Z
    1674:	91 81       	ldd	r25, Z+1	; 0x01
    1676:	62 2f       	mov	r22, r18
    1678:	0e 94 e8 19 	call	0x33d0	; 0x33d0 <_ZN11interpreter3rolEc>
    167c:	ce 01       	movw	r24, r28
    167e:	8d 5a       	subi	r24, 0xAD	; 173
    1680:	9f 4f       	sbci	r25, 0xFF	; 255
    1682:	fc 01       	movw	r30, r24
    1684:	80 81       	ld	r24, Z
    1686:	91 81       	ldd	r25, Z+1	; 0x01
    1688:	87 5e       	subi	r24, 0xE7	; 231
    168a:	9e 4f       	sbci	r25, 0xFE	; 254
    168c:	fc 01       	movw	r30, r24
    168e:	80 81       	ld	r24, Z
    1690:	91 81       	ldd	r25, Z+1	; 0x01
    1692:	9c 01       	movw	r18, r24
    1694:	2f 5f       	subi	r18, 0xFF	; 255
    1696:	3f 4f       	sbci	r19, 0xFF	; 255
    1698:	ce 01       	movw	r24, r28
    169a:	8d 5a       	subi	r24, 0xAD	; 173
    169c:	9f 4f       	sbci	r25, 0xFF	; 255
    169e:	fc 01       	movw	r30, r24
    16a0:	80 81       	ld	r24, Z
    16a2:	91 81       	ldd	r25, Z+1	; 0x01
    16a4:	87 5e       	subi	r24, 0xE7	; 231
    16a6:	9e 4f       	sbci	r25, 0xFE	; 254
    16a8:	fc 01       	movw	r30, r24
    16aa:	31 83       	std	Z+1, r19	; 0x01
    16ac:	20 83       	st	Z, r18
    16ae:	0c 94 b5 15 	jmp	0x2b6a	; 0x2b6a <__stack+0x1a6b>
    16b2:	8a 81       	ldd	r24, Y+2	; 0x02
    16b4:	80 32       	cpi	r24, 0x20	; 32
    16b6:	09 f0       	breq	.+2      	; 0x16ba <__stack+0x5bb>
    16b8:	4d c0       	rjmp	.+154    	; 0x1754 <__stack+0x655>
    16ba:	ce 01       	movw	r24, r28
    16bc:	8d 5a       	subi	r24, 0xAD	; 173
    16be:	9f 4f       	sbci	r25, 0xFF	; 255
    16c0:	fc 01       	movw	r30, r24
    16c2:	80 81       	ld	r24, Z
    16c4:	91 81       	ldd	r25, Z+1	; 0x01
    16c6:	87 5e       	subi	r24, 0xE7	; 231
    16c8:	9e 4f       	sbci	r25, 0xFE	; 254
    16ca:	fc 01       	movw	r30, r24
    16cc:	80 81       	ld	r24, Z
    16ce:	91 81       	ldd	r25, Z+1	; 0x01
    16d0:	01 96       	adiw	r24, 0x01	; 1
    16d2:	9c 01       	movw	r18, r24
    16d4:	ce 01       	movw	r24, r28
    16d6:	8d 5a       	subi	r24, 0xAD	; 173
    16d8:	9f 4f       	sbci	r25, 0xFF	; 255
    16da:	fc 01       	movw	r30, r24
    16dc:	80 81       	ld	r24, Z
    16de:	91 81       	ldd	r25, Z+1	; 0x01
    16e0:	85 5f       	subi	r24, 0xF5	; 245
    16e2:	9e 4f       	sbci	r25, 0xFE	; 254
    16e4:	fc 01       	movw	r30, r24
    16e6:	80 81       	ld	r24, Z
    16e8:	91 81       	ldd	r25, Z+1	; 0x01
    16ea:	b9 01       	movw	r22, r18
    16ec:	0e 94 ac 25 	call	0x4b58	; 0x4b58 <_ZN3ram4readEi>
    16f0:	88 2f       	mov	r24, r24
    16f2:	90 e0       	ldi	r25, 0x00	; 0
    16f4:	18 2f       	mov	r17, r24
    16f6:	00 27       	eor	r16, r16
    16f8:	ce 01       	movw	r24, r28
    16fa:	8d 5a       	subi	r24, 0xAD	; 173
    16fc:	9f 4f       	sbci	r25, 0xFF	; 255
    16fe:	fc 01       	movw	r30, r24
    1700:	80 81       	ld	r24, Z
    1702:	91 81       	ldd	r25, Z+1	; 0x01
    1704:	87 5e       	subi	r24, 0xE7	; 231
    1706:	9e 4f       	sbci	r25, 0xFE	; 254
    1708:	fc 01       	movw	r30, r24
    170a:	80 81       	ld	r24, Z
    170c:	91 81       	ldd	r25, Z+1	; 0x01
    170e:	02 96       	adiw	r24, 0x02	; 2
    1710:	9c 01       	movw	r18, r24
    1712:	ce 01       	movw	r24, r28
    1714:	8d 5a       	subi	r24, 0xAD	; 173
    1716:	9f 4f       	sbci	r25, 0xFF	; 255
    1718:	fc 01       	movw	r30, r24
    171a:	80 81       	ld	r24, Z
    171c:	91 81       	ldd	r25, Z+1	; 0x01
    171e:	85 5f       	subi	r24, 0xF5	; 245
    1720:	9e 4f       	sbci	r25, 0xFE	; 254
    1722:	fc 01       	movw	r30, r24
    1724:	80 81       	ld	r24, Z
    1726:	91 81       	ldd	r25, Z+1	; 0x01
    1728:	b9 01       	movw	r22, r18
    172a:	0e 94 ac 25 	call	0x4b58	; 0x4b58 <_ZN3ram4readEi>
    172e:	88 2f       	mov	r24, r24
    1730:	90 e0       	ldi	r25, 0x00	; 0
    1732:	80 2b       	or	r24, r16
    1734:	91 2b       	or	r25, r17
    1736:	99 a3       	std	Y+33, r25	; 0x21
    1738:	88 a3       	std	Y+32, r24	; 0x20
    173a:	28 a1       	ldd	r18, Y+32	; 0x20
    173c:	39 a1       	ldd	r19, Y+33	; 0x21
    173e:	ce 01       	movw	r24, r28
    1740:	8d 5a       	subi	r24, 0xAD	; 173
    1742:	9f 4f       	sbci	r25, 0xFF	; 255
    1744:	fc 01       	movw	r30, r24
    1746:	80 81       	ld	r24, Z
    1748:	91 81       	ldd	r25, Z+1	; 0x01
    174a:	b9 01       	movw	r22, r18
    174c:	0e 94 0c 1a 	call	0x3418	; 0x3418 <_ZN11interpreter4breqEj>
    1750:	0c 94 b5 15 	jmp	0x2b6a	; 0x2b6a <__stack+0x1a6b>
    1754:	8a 81       	ldd	r24, Y+2	; 0x02
    1756:	81 32       	cpi	r24, 0x21	; 33
    1758:	09 f0       	breq	.+2      	; 0x175c <__stack+0x65d>
    175a:	5a c0       	rjmp	.+180    	; 0x1810 <__stack+0x711>
    175c:	ce 01       	movw	r24, r28
    175e:	8d 5a       	subi	r24, 0xAD	; 173
    1760:	9f 4f       	sbci	r25, 0xFF	; 255
    1762:	fc 01       	movw	r30, r24
    1764:	80 81       	ld	r24, Z
    1766:	91 81       	ldd	r25, Z+1	; 0x01
    1768:	87 5e       	subi	r24, 0xE7	; 231
    176a:	9e 4f       	sbci	r25, 0xFE	; 254
    176c:	fc 01       	movw	r30, r24
    176e:	80 81       	ld	r24, Z
    1770:	91 81       	ldd	r25, Z+1	; 0x01
    1772:	01 96       	adiw	r24, 0x01	; 1
    1774:	9c 01       	movw	r18, r24
    1776:	ce 01       	movw	r24, r28
    1778:	8d 5a       	subi	r24, 0xAD	; 173
    177a:	9f 4f       	sbci	r25, 0xFF	; 255
    177c:	fc 01       	movw	r30, r24
    177e:	80 81       	ld	r24, Z
    1780:	91 81       	ldd	r25, Z+1	; 0x01
    1782:	85 5f       	subi	r24, 0xF5	; 245
    1784:	9e 4f       	sbci	r25, 0xFE	; 254
    1786:	fc 01       	movw	r30, r24
    1788:	80 81       	ld	r24, Z
    178a:	91 81       	ldd	r25, Z+1	; 0x01
    178c:	b9 01       	movw	r22, r18
    178e:	0e 94 ac 25 	call	0x4b58	; 0x4b58 <_ZN3ram4readEi>
    1792:	88 2f       	mov	r24, r24
    1794:	90 e0       	ldi	r25, 0x00	; 0
    1796:	18 2f       	mov	r17, r24
    1798:	00 27       	eor	r16, r16
    179a:	ce 01       	movw	r24, r28
    179c:	8d 5a       	subi	r24, 0xAD	; 173
    179e:	9f 4f       	sbci	r25, 0xFF	; 255
    17a0:	fc 01       	movw	r30, r24
    17a2:	80 81       	ld	r24, Z
    17a4:	91 81       	ldd	r25, Z+1	; 0x01
    17a6:	87 5e       	subi	r24, 0xE7	; 231
    17a8:	9e 4f       	sbci	r25, 0xFE	; 254
    17aa:	fc 01       	movw	r30, r24
    17ac:	80 81       	ld	r24, Z
    17ae:	91 81       	ldd	r25, Z+1	; 0x01
    17b0:	02 96       	adiw	r24, 0x02	; 2
    17b2:	9c 01       	movw	r18, r24
    17b4:	ce 01       	movw	r24, r28
    17b6:	8d 5a       	subi	r24, 0xAD	; 173
    17b8:	9f 4f       	sbci	r25, 0xFF	; 255
    17ba:	fc 01       	movw	r30, r24
    17bc:	80 81       	ld	r24, Z
    17be:	91 81       	ldd	r25, Z+1	; 0x01
    17c0:	85 5f       	subi	r24, 0xF5	; 245
    17c2:	9e 4f       	sbci	r25, 0xFE	; 254
    17c4:	fc 01       	movw	r30, r24
    17c6:	80 81       	ld	r24, Z
    17c8:	91 81       	ldd	r25, Z+1	; 0x01
    17ca:	b9 01       	movw	r22, r18
    17cc:	0e 94 ac 25 	call	0x4b58	; 0x4b58 <_ZN3ram4readEi>
    17d0:	88 2f       	mov	r24, r24
    17d2:	90 e0       	ldi	r25, 0x00	; 0
    17d4:	80 2b       	or	r24, r16
    17d6:	91 2b       	or	r25, r17
    17d8:	9b a3       	std	Y+35, r25	; 0x23
    17da:	8a a3       	std	Y+34, r24	; 0x22
    17dc:	ce 01       	movw	r24, r28
    17de:	8d 5a       	subi	r24, 0xAD	; 173
    17e0:	9f 4f       	sbci	r25, 0xFF	; 255
    17e2:	fc 01       	movw	r30, r24
    17e4:	80 81       	ld	r24, Z
    17e6:	91 81       	ldd	r25, Z+1	; 0x01
    17e8:	87 5e       	subi	r24, 0xE7	; 231
    17ea:	9e 4f       	sbci	r25, 0xFE	; 254
    17ec:	fc 01       	movw	r30, r24
    17ee:	20 81       	ld	r18, Z
    17f0:	31 81       	ldd	r19, Z+1	; 0x01
    17f2:	8a a1       	ldd	r24, Y+34	; 0x22
    17f4:	9b a1       	ldd	r25, Y+35	; 0x23
    17f6:	28 0f       	add	r18, r24
    17f8:	39 1f       	adc	r19, r25
    17fa:	ce 01       	movw	r24, r28
    17fc:	8d 5a       	subi	r24, 0xAD	; 173
    17fe:	9f 4f       	sbci	r25, 0xFF	; 255
    1800:	fc 01       	movw	r30, r24
    1802:	80 81       	ld	r24, Z
    1804:	91 81       	ldd	r25, Z+1	; 0x01
    1806:	b9 01       	movw	r22, r18
    1808:	0e 94 33 1a 	call	0x3466	; 0x3466 <_ZN11interpreter7breqpcfEj>
    180c:	0c 94 b5 15 	jmp	0x2b6a	; 0x2b6a <__stack+0x1a6b>
    1810:	8a 81       	ldd	r24, Y+2	; 0x02
    1812:	82 32       	cpi	r24, 0x22	; 34
    1814:	09 f0       	breq	.+2      	; 0x1818 <__stack+0x719>
    1816:	5a c0       	rjmp	.+180    	; 0x18cc <__stack+0x7cd>
    1818:	ce 01       	movw	r24, r28
    181a:	8d 5a       	subi	r24, 0xAD	; 173
    181c:	9f 4f       	sbci	r25, 0xFF	; 255
    181e:	fc 01       	movw	r30, r24
    1820:	80 81       	ld	r24, Z
    1822:	91 81       	ldd	r25, Z+1	; 0x01
    1824:	87 5e       	subi	r24, 0xE7	; 231
    1826:	9e 4f       	sbci	r25, 0xFE	; 254
    1828:	fc 01       	movw	r30, r24
    182a:	80 81       	ld	r24, Z
    182c:	91 81       	ldd	r25, Z+1	; 0x01
    182e:	01 96       	adiw	r24, 0x01	; 1
    1830:	9c 01       	movw	r18, r24
    1832:	ce 01       	movw	r24, r28
    1834:	8d 5a       	subi	r24, 0xAD	; 173
    1836:	9f 4f       	sbci	r25, 0xFF	; 255
    1838:	fc 01       	movw	r30, r24
    183a:	80 81       	ld	r24, Z
    183c:	91 81       	ldd	r25, Z+1	; 0x01
    183e:	85 5f       	subi	r24, 0xF5	; 245
    1840:	9e 4f       	sbci	r25, 0xFE	; 254
    1842:	fc 01       	movw	r30, r24
    1844:	80 81       	ld	r24, Z
    1846:	91 81       	ldd	r25, Z+1	; 0x01
    1848:	b9 01       	movw	r22, r18
    184a:	0e 94 ac 25 	call	0x4b58	; 0x4b58 <_ZN3ram4readEi>
    184e:	88 2f       	mov	r24, r24
    1850:	90 e0       	ldi	r25, 0x00	; 0
    1852:	18 2f       	mov	r17, r24
    1854:	00 27       	eor	r16, r16
    1856:	ce 01       	movw	r24, r28
    1858:	8d 5a       	subi	r24, 0xAD	; 173
    185a:	9f 4f       	sbci	r25, 0xFF	; 255
    185c:	fc 01       	movw	r30, r24
    185e:	80 81       	ld	r24, Z
    1860:	91 81       	ldd	r25, Z+1	; 0x01
    1862:	87 5e       	subi	r24, 0xE7	; 231
    1864:	9e 4f       	sbci	r25, 0xFE	; 254
    1866:	fc 01       	movw	r30, r24
    1868:	80 81       	ld	r24, Z
    186a:	91 81       	ldd	r25, Z+1	; 0x01
    186c:	02 96       	adiw	r24, 0x02	; 2
    186e:	9c 01       	movw	r18, r24
    1870:	ce 01       	movw	r24, r28
    1872:	8d 5a       	subi	r24, 0xAD	; 173
    1874:	9f 4f       	sbci	r25, 0xFF	; 255
    1876:	fc 01       	movw	r30, r24
    1878:	80 81       	ld	r24, Z
    187a:	91 81       	ldd	r25, Z+1	; 0x01
    187c:	85 5f       	subi	r24, 0xF5	; 245
    187e:	9e 4f       	sbci	r25, 0xFE	; 254
    1880:	fc 01       	movw	r30, r24
    1882:	80 81       	ld	r24, Z
    1884:	91 81       	ldd	r25, Z+1	; 0x01
    1886:	b9 01       	movw	r22, r18
    1888:	0e 94 ac 25 	call	0x4b58	; 0x4b58 <_ZN3ram4readEi>
    188c:	88 2f       	mov	r24, r24
    188e:	90 e0       	ldi	r25, 0x00	; 0
    1890:	80 2b       	or	r24, r16
    1892:	91 2b       	or	r25, r17
    1894:	9d a3       	std	Y+37, r25	; 0x25
    1896:	8c a3       	std	Y+36, r24	; 0x24
    1898:	ce 01       	movw	r24, r28
    189a:	8d 5a       	subi	r24, 0xAD	; 173
    189c:	9f 4f       	sbci	r25, 0xFF	; 255
    189e:	fc 01       	movw	r30, r24
    18a0:	80 81       	ld	r24, Z
    18a2:	91 81       	ldd	r25, Z+1	; 0x01
    18a4:	87 5e       	subi	r24, 0xE7	; 231
    18a6:	9e 4f       	sbci	r25, 0xFE	; 254
    18a8:	fc 01       	movw	r30, r24
    18aa:	20 81       	ld	r18, Z
    18ac:	31 81       	ldd	r19, Z+1	; 0x01
    18ae:	8c a1       	ldd	r24, Y+36	; 0x24
    18b0:	9d a1       	ldd	r25, Y+37	; 0x25
    18b2:	28 1b       	sub	r18, r24
    18b4:	39 0b       	sbc	r19, r25
    18b6:	ce 01       	movw	r24, r28
    18b8:	8d 5a       	subi	r24, 0xAD	; 173
    18ba:	9f 4f       	sbci	r25, 0xFF	; 255
    18bc:	fc 01       	movw	r30, r24
    18be:	80 81       	ld	r24, Z
    18c0:	91 81       	ldd	r25, Z+1	; 0x01
    18c2:	b9 01       	movw	r22, r18
    18c4:	0e 94 63 1a 	call	0x34c6	; 0x34c6 <_ZN11interpreter7breqpcbEj>
    18c8:	0c 94 b5 15 	jmp	0x2b6a	; 0x2b6a <__stack+0x1a6b>
    18cc:	8a 81       	ldd	r24, Y+2	; 0x02
    18ce:	83 32       	cpi	r24, 0x23	; 35
    18d0:	09 f0       	breq	.+2      	; 0x18d4 <__stack+0x7d5>
    18d2:	4d c0       	rjmp	.+154    	; 0x196e <__stack+0x86f>
    18d4:	ce 01       	movw	r24, r28
    18d6:	8d 5a       	subi	r24, 0xAD	; 173
    18d8:	9f 4f       	sbci	r25, 0xFF	; 255
    18da:	fc 01       	movw	r30, r24
    18dc:	80 81       	ld	r24, Z
    18de:	91 81       	ldd	r25, Z+1	; 0x01
    18e0:	87 5e       	subi	r24, 0xE7	; 231
    18e2:	9e 4f       	sbci	r25, 0xFE	; 254
    18e4:	fc 01       	movw	r30, r24
    18e6:	80 81       	ld	r24, Z
    18e8:	91 81       	ldd	r25, Z+1	; 0x01
    18ea:	01 96       	adiw	r24, 0x01	; 1
    18ec:	9c 01       	movw	r18, r24
    18ee:	ce 01       	movw	r24, r28
    18f0:	8d 5a       	subi	r24, 0xAD	; 173
    18f2:	9f 4f       	sbci	r25, 0xFF	; 255
    18f4:	fc 01       	movw	r30, r24
    18f6:	80 81       	ld	r24, Z
    18f8:	91 81       	ldd	r25, Z+1	; 0x01
    18fa:	85 5f       	subi	r24, 0xF5	; 245
    18fc:	9e 4f       	sbci	r25, 0xFE	; 254
    18fe:	fc 01       	movw	r30, r24
    1900:	80 81       	ld	r24, Z
    1902:	91 81       	ldd	r25, Z+1	; 0x01
    1904:	b9 01       	movw	r22, r18
    1906:	0e 94 ac 25 	call	0x4b58	; 0x4b58 <_ZN3ram4readEi>
    190a:	88 2f       	mov	r24, r24
    190c:	90 e0       	ldi	r25, 0x00	; 0
    190e:	18 2f       	mov	r17, r24
    1910:	00 27       	eor	r16, r16
    1912:	ce 01       	movw	r24, r28
    1914:	8d 5a       	subi	r24, 0xAD	; 173
    1916:	9f 4f       	sbci	r25, 0xFF	; 255
    1918:	fc 01       	movw	r30, r24
    191a:	80 81       	ld	r24, Z
    191c:	91 81       	ldd	r25, Z+1	; 0x01
    191e:	87 5e       	subi	r24, 0xE7	; 231
    1920:	9e 4f       	sbci	r25, 0xFE	; 254
    1922:	fc 01       	movw	r30, r24
    1924:	80 81       	ld	r24, Z
    1926:	91 81       	ldd	r25, Z+1	; 0x01
    1928:	02 96       	adiw	r24, 0x02	; 2
    192a:	9c 01       	movw	r18, r24
    192c:	ce 01       	movw	r24, r28
    192e:	8d 5a       	subi	r24, 0xAD	; 173
    1930:	9f 4f       	sbci	r25, 0xFF	; 255
    1932:	fc 01       	movw	r30, r24
    1934:	80 81       	ld	r24, Z
    1936:	91 81       	ldd	r25, Z+1	; 0x01
    1938:	85 5f       	subi	r24, 0xF5	; 245
    193a:	9e 4f       	sbci	r25, 0xFE	; 254
    193c:	fc 01       	movw	r30, r24
    193e:	80 81       	ld	r24, Z
    1940:	91 81       	ldd	r25, Z+1	; 0x01
    1942:	b9 01       	movw	r22, r18
    1944:	0e 94 ac 25 	call	0x4b58	; 0x4b58 <_ZN3ram4readEi>
    1948:	88 2f       	mov	r24, r24
    194a:	90 e0       	ldi	r25, 0x00	; 0
    194c:	80 2b       	or	r24, r16
    194e:	91 2b       	or	r25, r17
    1950:	9f a3       	std	Y+39, r25	; 0x27
    1952:	8e a3       	std	Y+38, r24	; 0x26
    1954:	2e a1       	ldd	r18, Y+38	; 0x26
    1956:	3f a1       	ldd	r19, Y+39	; 0x27
    1958:	ce 01       	movw	r24, r28
    195a:	8d 5a       	subi	r24, 0xAD	; 173
    195c:	9f 4f       	sbci	r25, 0xFF	; 255
    195e:	fc 01       	movw	r30, r24
    1960:	80 81       	ld	r24, Z
    1962:	91 81       	ldd	r25, Z+1	; 0x01
    1964:	b9 01       	movw	r22, r18
    1966:	0e 94 93 1a 	call	0x3526	; 0x3526 <_ZN11interpreter4brneEj>
    196a:	0c 94 b5 15 	jmp	0x2b6a	; 0x2b6a <__stack+0x1a6b>
    196e:	8a 81       	ldd	r24, Y+2	; 0x02
    1970:	84 32       	cpi	r24, 0x24	; 36
    1972:	09 f0       	breq	.+2      	; 0x1976 <__stack+0x877>
    1974:	5a c0       	rjmp	.+180    	; 0x1a2a <__stack+0x92b>
    1976:	ce 01       	movw	r24, r28
    1978:	8d 5a       	subi	r24, 0xAD	; 173
    197a:	9f 4f       	sbci	r25, 0xFF	; 255
    197c:	fc 01       	movw	r30, r24
    197e:	80 81       	ld	r24, Z
    1980:	91 81       	ldd	r25, Z+1	; 0x01
    1982:	87 5e       	subi	r24, 0xE7	; 231
    1984:	9e 4f       	sbci	r25, 0xFE	; 254
    1986:	fc 01       	movw	r30, r24
    1988:	80 81       	ld	r24, Z
    198a:	91 81       	ldd	r25, Z+1	; 0x01
    198c:	01 96       	adiw	r24, 0x01	; 1
    198e:	9c 01       	movw	r18, r24
    1990:	ce 01       	movw	r24, r28
    1992:	8d 5a       	subi	r24, 0xAD	; 173
    1994:	9f 4f       	sbci	r25, 0xFF	; 255
    1996:	fc 01       	movw	r30, r24
    1998:	80 81       	ld	r24, Z
    199a:	91 81       	ldd	r25, Z+1	; 0x01
    199c:	85 5f       	subi	r24, 0xF5	; 245
    199e:	9e 4f       	sbci	r25, 0xFE	; 254
    19a0:	fc 01       	movw	r30, r24
    19a2:	80 81       	ld	r24, Z
    19a4:	91 81       	ldd	r25, Z+1	; 0x01
    19a6:	b9 01       	movw	r22, r18
    19a8:	0e 94 ac 25 	call	0x4b58	; 0x4b58 <_ZN3ram4readEi>
    19ac:	88 2f       	mov	r24, r24
    19ae:	90 e0       	ldi	r25, 0x00	; 0
    19b0:	18 2f       	mov	r17, r24
    19b2:	00 27       	eor	r16, r16
    19b4:	ce 01       	movw	r24, r28
    19b6:	8d 5a       	subi	r24, 0xAD	; 173
    19b8:	9f 4f       	sbci	r25, 0xFF	; 255
    19ba:	fc 01       	movw	r30, r24
    19bc:	80 81       	ld	r24, Z
    19be:	91 81       	ldd	r25, Z+1	; 0x01
    19c0:	87 5e       	subi	r24, 0xE7	; 231
    19c2:	9e 4f       	sbci	r25, 0xFE	; 254
    19c4:	fc 01       	movw	r30, r24
    19c6:	80 81       	ld	r24, Z
    19c8:	91 81       	ldd	r25, Z+1	; 0x01
    19ca:	02 96       	adiw	r24, 0x02	; 2
    19cc:	9c 01       	movw	r18, r24
    19ce:	ce 01       	movw	r24, r28
    19d0:	8d 5a       	subi	r24, 0xAD	; 173
    19d2:	9f 4f       	sbci	r25, 0xFF	; 255
    19d4:	fc 01       	movw	r30, r24
    19d6:	80 81       	ld	r24, Z
    19d8:	91 81       	ldd	r25, Z+1	; 0x01
    19da:	85 5f       	subi	r24, 0xF5	; 245
    19dc:	9e 4f       	sbci	r25, 0xFE	; 254
    19de:	fc 01       	movw	r30, r24
    19e0:	80 81       	ld	r24, Z
    19e2:	91 81       	ldd	r25, Z+1	; 0x01
    19e4:	b9 01       	movw	r22, r18
    19e6:	0e 94 ac 25 	call	0x4b58	; 0x4b58 <_ZN3ram4readEi>
    19ea:	88 2f       	mov	r24, r24
    19ec:	90 e0       	ldi	r25, 0x00	; 0
    19ee:	80 2b       	or	r24, r16
    19f0:	91 2b       	or	r25, r17
    19f2:	99 a7       	std	Y+41, r25	; 0x29
    19f4:	88 a7       	std	Y+40, r24	; 0x28
    19f6:	ce 01       	movw	r24, r28
    19f8:	8d 5a       	subi	r24, 0xAD	; 173
    19fa:	9f 4f       	sbci	r25, 0xFF	; 255
    19fc:	fc 01       	movw	r30, r24
    19fe:	80 81       	ld	r24, Z
    1a00:	91 81       	ldd	r25, Z+1	; 0x01
    1a02:	87 5e       	subi	r24, 0xE7	; 231
    1a04:	9e 4f       	sbci	r25, 0xFE	; 254
    1a06:	fc 01       	movw	r30, r24
    1a08:	20 81       	ld	r18, Z
    1a0a:	31 81       	ldd	r19, Z+1	; 0x01
    1a0c:	88 a5       	ldd	r24, Y+40	; 0x28
    1a0e:	99 a5       	ldd	r25, Y+41	; 0x29
    1a10:	28 0f       	add	r18, r24
    1a12:	39 1f       	adc	r19, r25
    1a14:	ce 01       	movw	r24, r28
    1a16:	8d 5a       	subi	r24, 0xAD	; 173
    1a18:	9f 4f       	sbci	r25, 0xFF	; 255
    1a1a:	fc 01       	movw	r30, r24
    1a1c:	80 81       	ld	r24, Z
    1a1e:	91 81       	ldd	r25, Z+1	; 0x01
    1a20:	b9 01       	movw	r22, r18
    1a22:	0e 94 cc 1a 	call	0x3598	; 0x3598 <_ZN11interpreter7brnepcfEj>
    1a26:	0c 94 b5 15 	jmp	0x2b6a	; 0x2b6a <__stack+0x1a6b>
    1a2a:	8a 81       	ldd	r24, Y+2	; 0x02
    1a2c:	85 32       	cpi	r24, 0x25	; 37
    1a2e:	09 f0       	breq	.+2      	; 0x1a32 <__stack+0x933>
    1a30:	5a c0       	rjmp	.+180    	; 0x1ae6 <__stack+0x9e7>
    1a32:	ce 01       	movw	r24, r28
    1a34:	8d 5a       	subi	r24, 0xAD	; 173
    1a36:	9f 4f       	sbci	r25, 0xFF	; 255
    1a38:	fc 01       	movw	r30, r24
    1a3a:	80 81       	ld	r24, Z
    1a3c:	91 81       	ldd	r25, Z+1	; 0x01
    1a3e:	87 5e       	subi	r24, 0xE7	; 231
    1a40:	9e 4f       	sbci	r25, 0xFE	; 254
    1a42:	fc 01       	movw	r30, r24
    1a44:	80 81       	ld	r24, Z
    1a46:	91 81       	ldd	r25, Z+1	; 0x01
    1a48:	01 96       	adiw	r24, 0x01	; 1
    1a4a:	9c 01       	movw	r18, r24
    1a4c:	ce 01       	movw	r24, r28
    1a4e:	8d 5a       	subi	r24, 0xAD	; 173
    1a50:	9f 4f       	sbci	r25, 0xFF	; 255
    1a52:	fc 01       	movw	r30, r24
    1a54:	80 81       	ld	r24, Z
    1a56:	91 81       	ldd	r25, Z+1	; 0x01
    1a58:	85 5f       	subi	r24, 0xF5	; 245
    1a5a:	9e 4f       	sbci	r25, 0xFE	; 254
    1a5c:	fc 01       	movw	r30, r24
    1a5e:	80 81       	ld	r24, Z
    1a60:	91 81       	ldd	r25, Z+1	; 0x01
    1a62:	b9 01       	movw	r22, r18
    1a64:	0e 94 ac 25 	call	0x4b58	; 0x4b58 <_ZN3ram4readEi>
    1a68:	88 2f       	mov	r24, r24
    1a6a:	90 e0       	ldi	r25, 0x00	; 0
    1a6c:	18 2f       	mov	r17, r24
    1a6e:	00 27       	eor	r16, r16
    1a70:	ce 01       	movw	r24, r28
    1a72:	8d 5a       	subi	r24, 0xAD	; 173
    1a74:	9f 4f       	sbci	r25, 0xFF	; 255
    1a76:	fc 01       	movw	r30, r24
    1a78:	80 81       	ld	r24, Z
    1a7a:	91 81       	ldd	r25, Z+1	; 0x01
    1a7c:	87 5e       	subi	r24, 0xE7	; 231
    1a7e:	9e 4f       	sbci	r25, 0xFE	; 254
    1a80:	fc 01       	movw	r30, r24
    1a82:	80 81       	ld	r24, Z
    1a84:	91 81       	ldd	r25, Z+1	; 0x01
    1a86:	02 96       	adiw	r24, 0x02	; 2
    1a88:	9c 01       	movw	r18, r24
    1a8a:	ce 01       	movw	r24, r28
    1a8c:	8d 5a       	subi	r24, 0xAD	; 173
    1a8e:	9f 4f       	sbci	r25, 0xFF	; 255
    1a90:	fc 01       	movw	r30, r24
    1a92:	80 81       	ld	r24, Z
    1a94:	91 81       	ldd	r25, Z+1	; 0x01
    1a96:	85 5f       	subi	r24, 0xF5	; 245
    1a98:	9e 4f       	sbci	r25, 0xFE	; 254
    1a9a:	fc 01       	movw	r30, r24
    1a9c:	80 81       	ld	r24, Z
    1a9e:	91 81       	ldd	r25, Z+1	; 0x01
    1aa0:	b9 01       	movw	r22, r18
    1aa2:	0e 94 ac 25 	call	0x4b58	; 0x4b58 <_ZN3ram4readEi>
    1aa6:	88 2f       	mov	r24, r24
    1aa8:	90 e0       	ldi	r25, 0x00	; 0
    1aaa:	80 2b       	or	r24, r16
    1aac:	91 2b       	or	r25, r17
    1aae:	9b a7       	std	Y+43, r25	; 0x2b
    1ab0:	8a a7       	std	Y+42, r24	; 0x2a
    1ab2:	ce 01       	movw	r24, r28
    1ab4:	8d 5a       	subi	r24, 0xAD	; 173
    1ab6:	9f 4f       	sbci	r25, 0xFF	; 255
    1ab8:	fc 01       	movw	r30, r24
    1aba:	80 81       	ld	r24, Z
    1abc:	91 81       	ldd	r25, Z+1	; 0x01
    1abe:	87 5e       	subi	r24, 0xE7	; 231
    1ac0:	9e 4f       	sbci	r25, 0xFE	; 254
    1ac2:	fc 01       	movw	r30, r24
    1ac4:	20 81       	ld	r18, Z
    1ac6:	31 81       	ldd	r19, Z+1	; 0x01
    1ac8:	8a a5       	ldd	r24, Y+42	; 0x2a
    1aca:	9b a5       	ldd	r25, Y+43	; 0x2b
    1acc:	28 1b       	sub	r18, r24
    1ace:	39 0b       	sbc	r19, r25
    1ad0:	ce 01       	movw	r24, r28
    1ad2:	8d 5a       	subi	r24, 0xAD	; 173
    1ad4:	9f 4f       	sbci	r25, 0xFF	; 255
    1ad6:	fc 01       	movw	r30, r24
    1ad8:	80 81       	ld	r24, Z
    1ada:	91 81       	ldd	r25, Z+1	; 0x01
    1adc:	b9 01       	movw	r22, r18
    1ade:	0e 94 0e 1b 	call	0x361c	; 0x361c <_ZN11interpreter7brnepcbEj>
    1ae2:	0c 94 b5 15 	jmp	0x2b6a	; 0x2b6a <__stack+0x1a6b>
    1ae6:	8a 81       	ldd	r24, Y+2	; 0x02
    1ae8:	86 32       	cpi	r24, 0x26	; 38
    1aea:	09 f0       	breq	.+2      	; 0x1aee <__stack+0x9ef>
    1aec:	4d c0       	rjmp	.+154    	; 0x1b88 <__stack+0xa89>
    1aee:	ce 01       	movw	r24, r28
    1af0:	8d 5a       	subi	r24, 0xAD	; 173
    1af2:	9f 4f       	sbci	r25, 0xFF	; 255
    1af4:	fc 01       	movw	r30, r24
    1af6:	80 81       	ld	r24, Z
    1af8:	91 81       	ldd	r25, Z+1	; 0x01
    1afa:	87 5e       	subi	r24, 0xE7	; 231
    1afc:	9e 4f       	sbci	r25, 0xFE	; 254
    1afe:	fc 01       	movw	r30, r24
    1b00:	80 81       	ld	r24, Z
    1b02:	91 81       	ldd	r25, Z+1	; 0x01
    1b04:	01 96       	adiw	r24, 0x01	; 1
    1b06:	9c 01       	movw	r18, r24
    1b08:	ce 01       	movw	r24, r28
    1b0a:	8d 5a       	subi	r24, 0xAD	; 173
    1b0c:	9f 4f       	sbci	r25, 0xFF	; 255
    1b0e:	fc 01       	movw	r30, r24
    1b10:	80 81       	ld	r24, Z
    1b12:	91 81       	ldd	r25, Z+1	; 0x01
    1b14:	85 5f       	subi	r24, 0xF5	; 245
    1b16:	9e 4f       	sbci	r25, 0xFE	; 254
    1b18:	fc 01       	movw	r30, r24
    1b1a:	80 81       	ld	r24, Z
    1b1c:	91 81       	ldd	r25, Z+1	; 0x01
    1b1e:	b9 01       	movw	r22, r18
    1b20:	0e 94 ac 25 	call	0x4b58	; 0x4b58 <_ZN3ram4readEi>
    1b24:	88 2f       	mov	r24, r24
    1b26:	90 e0       	ldi	r25, 0x00	; 0
    1b28:	18 2f       	mov	r17, r24
    1b2a:	00 27       	eor	r16, r16
    1b2c:	ce 01       	movw	r24, r28
    1b2e:	8d 5a       	subi	r24, 0xAD	; 173
    1b30:	9f 4f       	sbci	r25, 0xFF	; 255
    1b32:	fc 01       	movw	r30, r24
    1b34:	80 81       	ld	r24, Z
    1b36:	91 81       	ldd	r25, Z+1	; 0x01
    1b38:	87 5e       	subi	r24, 0xE7	; 231
    1b3a:	9e 4f       	sbci	r25, 0xFE	; 254
    1b3c:	fc 01       	movw	r30, r24
    1b3e:	80 81       	ld	r24, Z
    1b40:	91 81       	ldd	r25, Z+1	; 0x01
    1b42:	02 96       	adiw	r24, 0x02	; 2
    1b44:	9c 01       	movw	r18, r24
    1b46:	ce 01       	movw	r24, r28
    1b48:	8d 5a       	subi	r24, 0xAD	; 173
    1b4a:	9f 4f       	sbci	r25, 0xFF	; 255
    1b4c:	fc 01       	movw	r30, r24
    1b4e:	80 81       	ld	r24, Z
    1b50:	91 81       	ldd	r25, Z+1	; 0x01
    1b52:	85 5f       	subi	r24, 0xF5	; 245
    1b54:	9e 4f       	sbci	r25, 0xFE	; 254
    1b56:	fc 01       	movw	r30, r24
    1b58:	80 81       	ld	r24, Z
    1b5a:	91 81       	ldd	r25, Z+1	; 0x01
    1b5c:	b9 01       	movw	r22, r18
    1b5e:	0e 94 ac 25 	call	0x4b58	; 0x4b58 <_ZN3ram4readEi>
    1b62:	88 2f       	mov	r24, r24
    1b64:	90 e0       	ldi	r25, 0x00	; 0
    1b66:	80 2b       	or	r24, r16
    1b68:	91 2b       	or	r25, r17
    1b6a:	9d a7       	std	Y+45, r25	; 0x2d
    1b6c:	8c a7       	std	Y+44, r24	; 0x2c
    1b6e:	2c a5       	ldd	r18, Y+44	; 0x2c
    1b70:	3d a5       	ldd	r19, Y+45	; 0x2d
    1b72:	ce 01       	movw	r24, r28
    1b74:	8d 5a       	subi	r24, 0xAD	; 173
    1b76:	9f 4f       	sbci	r25, 0xFF	; 255
    1b78:	fc 01       	movw	r30, r24
    1b7a:	80 81       	ld	r24, Z
    1b7c:	91 81       	ldd	r25, Z+1	; 0x01
    1b7e:	b9 01       	movw	r22, r18
    1b80:	0e 94 50 1b 	call	0x36a0	; 0x36a0 <_ZN11interpreter4brgeEj>
    1b84:	0c 94 b5 15 	jmp	0x2b6a	; 0x2b6a <__stack+0x1a6b>
    1b88:	8a 81       	ldd	r24, Y+2	; 0x02
    1b8a:	87 32       	cpi	r24, 0x27	; 39
    1b8c:	09 f0       	breq	.+2      	; 0x1b90 <__stack+0xa91>
    1b8e:	59 c0       	rjmp	.+178    	; 0x1c42 <__stack+0xb43>
    1b90:	ce 01       	movw	r24, r28
    1b92:	8d 5a       	subi	r24, 0xAD	; 173
    1b94:	9f 4f       	sbci	r25, 0xFF	; 255
    1b96:	fc 01       	movw	r30, r24
    1b98:	80 81       	ld	r24, Z
    1b9a:	91 81       	ldd	r25, Z+1	; 0x01
    1b9c:	87 5e       	subi	r24, 0xE7	; 231
    1b9e:	9e 4f       	sbci	r25, 0xFE	; 254
    1ba0:	fc 01       	movw	r30, r24
    1ba2:	80 81       	ld	r24, Z
    1ba4:	91 81       	ldd	r25, Z+1	; 0x01
    1ba6:	01 96       	adiw	r24, 0x01	; 1
    1ba8:	9c 01       	movw	r18, r24
    1baa:	ce 01       	movw	r24, r28
    1bac:	8d 5a       	subi	r24, 0xAD	; 173
    1bae:	9f 4f       	sbci	r25, 0xFF	; 255
    1bb0:	fc 01       	movw	r30, r24
    1bb2:	80 81       	ld	r24, Z
    1bb4:	91 81       	ldd	r25, Z+1	; 0x01
    1bb6:	85 5f       	subi	r24, 0xF5	; 245
    1bb8:	9e 4f       	sbci	r25, 0xFE	; 254
    1bba:	fc 01       	movw	r30, r24
    1bbc:	80 81       	ld	r24, Z
    1bbe:	91 81       	ldd	r25, Z+1	; 0x01
    1bc0:	b9 01       	movw	r22, r18
    1bc2:	0e 94 ac 25 	call	0x4b58	; 0x4b58 <_ZN3ram4readEi>
    1bc6:	88 2f       	mov	r24, r24
    1bc8:	90 e0       	ldi	r25, 0x00	; 0
    1bca:	18 2f       	mov	r17, r24
    1bcc:	00 27       	eor	r16, r16
    1bce:	ce 01       	movw	r24, r28
    1bd0:	8d 5a       	subi	r24, 0xAD	; 173
    1bd2:	9f 4f       	sbci	r25, 0xFF	; 255
    1bd4:	fc 01       	movw	r30, r24
    1bd6:	80 81       	ld	r24, Z
    1bd8:	91 81       	ldd	r25, Z+1	; 0x01
    1bda:	87 5e       	subi	r24, 0xE7	; 231
    1bdc:	9e 4f       	sbci	r25, 0xFE	; 254
    1bde:	fc 01       	movw	r30, r24
    1be0:	80 81       	ld	r24, Z
    1be2:	91 81       	ldd	r25, Z+1	; 0x01
    1be4:	02 96       	adiw	r24, 0x02	; 2
    1be6:	9c 01       	movw	r18, r24
    1be8:	ce 01       	movw	r24, r28
    1bea:	8d 5a       	subi	r24, 0xAD	; 173
    1bec:	9f 4f       	sbci	r25, 0xFF	; 255
    1bee:	fc 01       	movw	r30, r24
    1bf0:	80 81       	ld	r24, Z
    1bf2:	91 81       	ldd	r25, Z+1	; 0x01
    1bf4:	85 5f       	subi	r24, 0xF5	; 245
    1bf6:	9e 4f       	sbci	r25, 0xFE	; 254
    1bf8:	fc 01       	movw	r30, r24
    1bfa:	80 81       	ld	r24, Z
    1bfc:	91 81       	ldd	r25, Z+1	; 0x01
    1bfe:	b9 01       	movw	r22, r18
    1c00:	0e 94 ac 25 	call	0x4b58	; 0x4b58 <_ZN3ram4readEi>
    1c04:	88 2f       	mov	r24, r24
    1c06:	90 e0       	ldi	r25, 0x00	; 0
    1c08:	80 2b       	or	r24, r16
    1c0a:	91 2b       	or	r25, r17
    1c0c:	9f a7       	std	Y+47, r25	; 0x2f
    1c0e:	8e a7       	std	Y+46, r24	; 0x2e
    1c10:	ce 01       	movw	r24, r28
    1c12:	8d 5a       	subi	r24, 0xAD	; 173
    1c14:	9f 4f       	sbci	r25, 0xFF	; 255
    1c16:	fc 01       	movw	r30, r24
    1c18:	80 81       	ld	r24, Z
    1c1a:	91 81       	ldd	r25, Z+1	; 0x01
    1c1c:	87 5e       	subi	r24, 0xE7	; 231
    1c1e:	9e 4f       	sbci	r25, 0xFE	; 254
    1c20:	fc 01       	movw	r30, r24
    1c22:	20 81       	ld	r18, Z
    1c24:	31 81       	ldd	r19, Z+1	; 0x01
    1c26:	8e a5       	ldd	r24, Y+46	; 0x2e
    1c28:	9f a5       	ldd	r25, Y+47	; 0x2f
    1c2a:	28 0f       	add	r18, r24
    1c2c:	39 1f       	adc	r19, r25
    1c2e:	ce 01       	movw	r24, r28
    1c30:	8d 5a       	subi	r24, 0xAD	; 173
    1c32:	9f 4f       	sbci	r25, 0xFF	; 255
    1c34:	fc 01       	movw	r30, r24
    1c36:	80 81       	ld	r24, Z
    1c38:	91 81       	ldd	r25, Z+1	; 0x01
    1c3a:	b9 01       	movw	r22, r18
    1c3c:	0e 94 80 1b 	call	0x3700	; 0x3700 <_ZN11interpreter7brgepcfEj>
    1c40:	94 c7       	rjmp	.+3880   	; 0x2b6a <__stack+0x1a6b>
    1c42:	8a 81       	ldd	r24, Y+2	; 0x02
    1c44:	88 32       	cpi	r24, 0x28	; 40
    1c46:	09 f0       	breq	.+2      	; 0x1c4a <__stack+0xb4b>
    1c48:	59 c0       	rjmp	.+178    	; 0x1cfc <__stack+0xbfd>
    1c4a:	ce 01       	movw	r24, r28
    1c4c:	8d 5a       	subi	r24, 0xAD	; 173
    1c4e:	9f 4f       	sbci	r25, 0xFF	; 255
    1c50:	fc 01       	movw	r30, r24
    1c52:	80 81       	ld	r24, Z
    1c54:	91 81       	ldd	r25, Z+1	; 0x01
    1c56:	87 5e       	subi	r24, 0xE7	; 231
    1c58:	9e 4f       	sbci	r25, 0xFE	; 254
    1c5a:	fc 01       	movw	r30, r24
    1c5c:	80 81       	ld	r24, Z
    1c5e:	91 81       	ldd	r25, Z+1	; 0x01
    1c60:	01 96       	adiw	r24, 0x01	; 1
    1c62:	9c 01       	movw	r18, r24
    1c64:	ce 01       	movw	r24, r28
    1c66:	8d 5a       	subi	r24, 0xAD	; 173
    1c68:	9f 4f       	sbci	r25, 0xFF	; 255
    1c6a:	fc 01       	movw	r30, r24
    1c6c:	80 81       	ld	r24, Z
    1c6e:	91 81       	ldd	r25, Z+1	; 0x01
    1c70:	85 5f       	subi	r24, 0xF5	; 245
    1c72:	9e 4f       	sbci	r25, 0xFE	; 254
    1c74:	fc 01       	movw	r30, r24
    1c76:	80 81       	ld	r24, Z
    1c78:	91 81       	ldd	r25, Z+1	; 0x01
    1c7a:	b9 01       	movw	r22, r18
    1c7c:	0e 94 ac 25 	call	0x4b58	; 0x4b58 <_ZN3ram4readEi>
    1c80:	88 2f       	mov	r24, r24
    1c82:	90 e0       	ldi	r25, 0x00	; 0
    1c84:	18 2f       	mov	r17, r24
    1c86:	00 27       	eor	r16, r16
    1c88:	ce 01       	movw	r24, r28
    1c8a:	8d 5a       	subi	r24, 0xAD	; 173
    1c8c:	9f 4f       	sbci	r25, 0xFF	; 255
    1c8e:	fc 01       	movw	r30, r24
    1c90:	80 81       	ld	r24, Z
    1c92:	91 81       	ldd	r25, Z+1	; 0x01
    1c94:	87 5e       	subi	r24, 0xE7	; 231
    1c96:	9e 4f       	sbci	r25, 0xFE	; 254
    1c98:	fc 01       	movw	r30, r24
    1c9a:	80 81       	ld	r24, Z
    1c9c:	91 81       	ldd	r25, Z+1	; 0x01
    1c9e:	02 96       	adiw	r24, 0x02	; 2
    1ca0:	9c 01       	movw	r18, r24
    1ca2:	ce 01       	movw	r24, r28
    1ca4:	8d 5a       	subi	r24, 0xAD	; 173
    1ca6:	9f 4f       	sbci	r25, 0xFF	; 255
    1ca8:	fc 01       	movw	r30, r24
    1caa:	80 81       	ld	r24, Z
    1cac:	91 81       	ldd	r25, Z+1	; 0x01
    1cae:	85 5f       	subi	r24, 0xF5	; 245
    1cb0:	9e 4f       	sbci	r25, 0xFE	; 254
    1cb2:	fc 01       	movw	r30, r24
    1cb4:	80 81       	ld	r24, Z
    1cb6:	91 81       	ldd	r25, Z+1	; 0x01
    1cb8:	b9 01       	movw	r22, r18
    1cba:	0e 94 ac 25 	call	0x4b58	; 0x4b58 <_ZN3ram4readEi>
    1cbe:	88 2f       	mov	r24, r24
    1cc0:	90 e0       	ldi	r25, 0x00	; 0
    1cc2:	80 2b       	or	r24, r16
    1cc4:	91 2b       	or	r25, r17
    1cc6:	99 ab       	std	Y+49, r25	; 0x31
    1cc8:	88 ab       	std	Y+48, r24	; 0x30
    1cca:	ce 01       	movw	r24, r28
    1ccc:	8d 5a       	subi	r24, 0xAD	; 173
    1cce:	9f 4f       	sbci	r25, 0xFF	; 255
    1cd0:	fc 01       	movw	r30, r24
    1cd2:	80 81       	ld	r24, Z
    1cd4:	91 81       	ldd	r25, Z+1	; 0x01
    1cd6:	87 5e       	subi	r24, 0xE7	; 231
    1cd8:	9e 4f       	sbci	r25, 0xFE	; 254
    1cda:	fc 01       	movw	r30, r24
    1cdc:	20 81       	ld	r18, Z
    1cde:	31 81       	ldd	r19, Z+1	; 0x01
    1ce0:	88 a9       	ldd	r24, Y+48	; 0x30
    1ce2:	99 a9       	ldd	r25, Y+49	; 0x31
    1ce4:	28 1b       	sub	r18, r24
    1ce6:	39 0b       	sbc	r19, r25
    1ce8:	ce 01       	movw	r24, r28
    1cea:	8d 5a       	subi	r24, 0xAD	; 173
    1cec:	9f 4f       	sbci	r25, 0xFF	; 255
    1cee:	fc 01       	movw	r30, r24
    1cf0:	80 81       	ld	r24, Z
    1cf2:	91 81       	ldd	r25, Z+1	; 0x01
    1cf4:	b9 01       	movw	r22, r18
    1cf6:	0e 94 b9 1b 	call	0x3772	; 0x3772 <_ZN11interpreter7brgepcbEj>
    1cfa:	37 c7       	rjmp	.+3694   	; 0x2b6a <__stack+0x1a6b>
    1cfc:	8a 81       	ldd	r24, Y+2	; 0x02
    1cfe:	89 32       	cpi	r24, 0x29	; 41
    1d00:	09 f0       	breq	.+2      	; 0x1d04 <__stack+0xc05>
    1d02:	4c c0       	rjmp	.+152    	; 0x1d9c <__stack+0xc9d>
    1d04:	ce 01       	movw	r24, r28
    1d06:	8d 5a       	subi	r24, 0xAD	; 173
    1d08:	9f 4f       	sbci	r25, 0xFF	; 255
    1d0a:	fc 01       	movw	r30, r24
    1d0c:	80 81       	ld	r24, Z
    1d0e:	91 81       	ldd	r25, Z+1	; 0x01
    1d10:	87 5e       	subi	r24, 0xE7	; 231
    1d12:	9e 4f       	sbci	r25, 0xFE	; 254
    1d14:	fc 01       	movw	r30, r24
    1d16:	80 81       	ld	r24, Z
    1d18:	91 81       	ldd	r25, Z+1	; 0x01
    1d1a:	01 96       	adiw	r24, 0x01	; 1
    1d1c:	9c 01       	movw	r18, r24
    1d1e:	ce 01       	movw	r24, r28
    1d20:	8d 5a       	subi	r24, 0xAD	; 173
    1d22:	9f 4f       	sbci	r25, 0xFF	; 255
    1d24:	fc 01       	movw	r30, r24
    1d26:	80 81       	ld	r24, Z
    1d28:	91 81       	ldd	r25, Z+1	; 0x01
    1d2a:	85 5f       	subi	r24, 0xF5	; 245
    1d2c:	9e 4f       	sbci	r25, 0xFE	; 254
    1d2e:	fc 01       	movw	r30, r24
    1d30:	80 81       	ld	r24, Z
    1d32:	91 81       	ldd	r25, Z+1	; 0x01
    1d34:	b9 01       	movw	r22, r18
    1d36:	0e 94 ac 25 	call	0x4b58	; 0x4b58 <_ZN3ram4readEi>
    1d3a:	88 2f       	mov	r24, r24
    1d3c:	90 e0       	ldi	r25, 0x00	; 0
    1d3e:	18 2f       	mov	r17, r24
    1d40:	00 27       	eor	r16, r16
    1d42:	ce 01       	movw	r24, r28
    1d44:	8d 5a       	subi	r24, 0xAD	; 173
    1d46:	9f 4f       	sbci	r25, 0xFF	; 255
    1d48:	fc 01       	movw	r30, r24
    1d4a:	80 81       	ld	r24, Z
    1d4c:	91 81       	ldd	r25, Z+1	; 0x01
    1d4e:	87 5e       	subi	r24, 0xE7	; 231
    1d50:	9e 4f       	sbci	r25, 0xFE	; 254
    1d52:	fc 01       	movw	r30, r24
    1d54:	80 81       	ld	r24, Z
    1d56:	91 81       	ldd	r25, Z+1	; 0x01
    1d58:	02 96       	adiw	r24, 0x02	; 2
    1d5a:	9c 01       	movw	r18, r24
    1d5c:	ce 01       	movw	r24, r28
    1d5e:	8d 5a       	subi	r24, 0xAD	; 173
    1d60:	9f 4f       	sbci	r25, 0xFF	; 255
    1d62:	fc 01       	movw	r30, r24
    1d64:	80 81       	ld	r24, Z
    1d66:	91 81       	ldd	r25, Z+1	; 0x01
    1d68:	85 5f       	subi	r24, 0xF5	; 245
    1d6a:	9e 4f       	sbci	r25, 0xFE	; 254
    1d6c:	fc 01       	movw	r30, r24
    1d6e:	80 81       	ld	r24, Z
    1d70:	91 81       	ldd	r25, Z+1	; 0x01
    1d72:	b9 01       	movw	r22, r18
    1d74:	0e 94 ac 25 	call	0x4b58	; 0x4b58 <_ZN3ram4readEi>
    1d78:	88 2f       	mov	r24, r24
    1d7a:	90 e0       	ldi	r25, 0x00	; 0
    1d7c:	80 2b       	or	r24, r16
    1d7e:	91 2b       	or	r25, r17
    1d80:	9b ab       	std	Y+51, r25	; 0x33
    1d82:	8a ab       	std	Y+50, r24	; 0x32
    1d84:	2a a9       	ldd	r18, Y+50	; 0x32
    1d86:	3b a9       	ldd	r19, Y+51	; 0x33
    1d88:	ce 01       	movw	r24, r28
    1d8a:	8d 5a       	subi	r24, 0xAD	; 173
    1d8c:	9f 4f       	sbci	r25, 0xFF	; 255
    1d8e:	fc 01       	movw	r30, r24
    1d90:	80 81       	ld	r24, Z
    1d92:	91 81       	ldd	r25, Z+1	; 0x01
    1d94:	b9 01       	movw	r22, r18
    1d96:	0e 94 f2 1b 	call	0x37e4	; 0x37e4 <_ZN11interpreter4brleEj>
    1d9a:	e7 c6       	rjmp	.+3534   	; 0x2b6a <__stack+0x1a6b>
    1d9c:	8a 81       	ldd	r24, Y+2	; 0x02
    1d9e:	8a 32       	cpi	r24, 0x2A	; 42
    1da0:	09 f0       	breq	.+2      	; 0x1da4 <__stack+0xca5>
    1da2:	59 c0       	rjmp	.+178    	; 0x1e56 <__stack+0xd57>
    1da4:	ce 01       	movw	r24, r28
    1da6:	8d 5a       	subi	r24, 0xAD	; 173
    1da8:	9f 4f       	sbci	r25, 0xFF	; 255
    1daa:	fc 01       	movw	r30, r24
    1dac:	80 81       	ld	r24, Z
    1dae:	91 81       	ldd	r25, Z+1	; 0x01
    1db0:	87 5e       	subi	r24, 0xE7	; 231
    1db2:	9e 4f       	sbci	r25, 0xFE	; 254
    1db4:	fc 01       	movw	r30, r24
    1db6:	80 81       	ld	r24, Z
    1db8:	91 81       	ldd	r25, Z+1	; 0x01
    1dba:	01 96       	adiw	r24, 0x01	; 1
    1dbc:	9c 01       	movw	r18, r24
    1dbe:	ce 01       	movw	r24, r28
    1dc0:	8d 5a       	subi	r24, 0xAD	; 173
    1dc2:	9f 4f       	sbci	r25, 0xFF	; 255
    1dc4:	fc 01       	movw	r30, r24
    1dc6:	80 81       	ld	r24, Z
    1dc8:	91 81       	ldd	r25, Z+1	; 0x01
    1dca:	85 5f       	subi	r24, 0xF5	; 245
    1dcc:	9e 4f       	sbci	r25, 0xFE	; 254
    1dce:	fc 01       	movw	r30, r24
    1dd0:	80 81       	ld	r24, Z
    1dd2:	91 81       	ldd	r25, Z+1	; 0x01
    1dd4:	b9 01       	movw	r22, r18
    1dd6:	0e 94 ac 25 	call	0x4b58	; 0x4b58 <_ZN3ram4readEi>
    1dda:	88 2f       	mov	r24, r24
    1ddc:	90 e0       	ldi	r25, 0x00	; 0
    1dde:	18 2f       	mov	r17, r24
    1de0:	00 27       	eor	r16, r16
    1de2:	ce 01       	movw	r24, r28
    1de4:	8d 5a       	subi	r24, 0xAD	; 173
    1de6:	9f 4f       	sbci	r25, 0xFF	; 255
    1de8:	fc 01       	movw	r30, r24
    1dea:	80 81       	ld	r24, Z
    1dec:	91 81       	ldd	r25, Z+1	; 0x01
    1dee:	87 5e       	subi	r24, 0xE7	; 231
    1df0:	9e 4f       	sbci	r25, 0xFE	; 254
    1df2:	fc 01       	movw	r30, r24
    1df4:	80 81       	ld	r24, Z
    1df6:	91 81       	ldd	r25, Z+1	; 0x01
    1df8:	02 96       	adiw	r24, 0x02	; 2
    1dfa:	9c 01       	movw	r18, r24
    1dfc:	ce 01       	movw	r24, r28
    1dfe:	8d 5a       	subi	r24, 0xAD	; 173
    1e00:	9f 4f       	sbci	r25, 0xFF	; 255
    1e02:	fc 01       	movw	r30, r24
    1e04:	80 81       	ld	r24, Z
    1e06:	91 81       	ldd	r25, Z+1	; 0x01
    1e08:	85 5f       	subi	r24, 0xF5	; 245
    1e0a:	9e 4f       	sbci	r25, 0xFE	; 254
    1e0c:	fc 01       	movw	r30, r24
    1e0e:	80 81       	ld	r24, Z
    1e10:	91 81       	ldd	r25, Z+1	; 0x01
    1e12:	b9 01       	movw	r22, r18
    1e14:	0e 94 ac 25 	call	0x4b58	; 0x4b58 <_ZN3ram4readEi>
    1e18:	88 2f       	mov	r24, r24
    1e1a:	90 e0       	ldi	r25, 0x00	; 0
    1e1c:	80 2b       	or	r24, r16
    1e1e:	91 2b       	or	r25, r17
    1e20:	9d ab       	std	Y+53, r25	; 0x35
    1e22:	8c ab       	std	Y+52, r24	; 0x34
    1e24:	ce 01       	movw	r24, r28
    1e26:	8d 5a       	subi	r24, 0xAD	; 173
    1e28:	9f 4f       	sbci	r25, 0xFF	; 255
    1e2a:	fc 01       	movw	r30, r24
    1e2c:	80 81       	ld	r24, Z
    1e2e:	91 81       	ldd	r25, Z+1	; 0x01
    1e30:	87 5e       	subi	r24, 0xE7	; 231
    1e32:	9e 4f       	sbci	r25, 0xFE	; 254
    1e34:	fc 01       	movw	r30, r24
    1e36:	20 81       	ld	r18, Z
    1e38:	31 81       	ldd	r19, Z+1	; 0x01
    1e3a:	8c a9       	ldd	r24, Y+52	; 0x34
    1e3c:	9d a9       	ldd	r25, Y+53	; 0x35
    1e3e:	28 0f       	add	r18, r24
    1e40:	39 1f       	adc	r19, r25
    1e42:	ce 01       	movw	r24, r28
    1e44:	8d 5a       	subi	r24, 0xAD	; 173
    1e46:	9f 4f       	sbci	r25, 0xFF	; 255
    1e48:	fc 01       	movw	r30, r24
    1e4a:	80 81       	ld	r24, Z
    1e4c:	91 81       	ldd	r25, Z+1	; 0x01
    1e4e:	b9 01       	movw	r22, r18
    1e50:	0e 94 22 1c 	call	0x3844	; 0x3844 <_ZN11interpreter7brlepcfEj>
    1e54:	8a c6       	rjmp	.+3348   	; 0x2b6a <__stack+0x1a6b>
    1e56:	8a 81       	ldd	r24, Y+2	; 0x02
    1e58:	8b 32       	cpi	r24, 0x2B	; 43
    1e5a:	09 f0       	breq	.+2      	; 0x1e5e <__stack+0xd5f>
    1e5c:	59 c0       	rjmp	.+178    	; 0x1f10 <__stack+0xe11>
    1e5e:	ce 01       	movw	r24, r28
    1e60:	8d 5a       	subi	r24, 0xAD	; 173
    1e62:	9f 4f       	sbci	r25, 0xFF	; 255
    1e64:	fc 01       	movw	r30, r24
    1e66:	80 81       	ld	r24, Z
    1e68:	91 81       	ldd	r25, Z+1	; 0x01
    1e6a:	87 5e       	subi	r24, 0xE7	; 231
    1e6c:	9e 4f       	sbci	r25, 0xFE	; 254
    1e6e:	fc 01       	movw	r30, r24
    1e70:	80 81       	ld	r24, Z
    1e72:	91 81       	ldd	r25, Z+1	; 0x01
    1e74:	01 96       	adiw	r24, 0x01	; 1
    1e76:	9c 01       	movw	r18, r24
    1e78:	ce 01       	movw	r24, r28
    1e7a:	8d 5a       	subi	r24, 0xAD	; 173
    1e7c:	9f 4f       	sbci	r25, 0xFF	; 255
    1e7e:	fc 01       	movw	r30, r24
    1e80:	80 81       	ld	r24, Z
    1e82:	91 81       	ldd	r25, Z+1	; 0x01
    1e84:	85 5f       	subi	r24, 0xF5	; 245
    1e86:	9e 4f       	sbci	r25, 0xFE	; 254
    1e88:	fc 01       	movw	r30, r24
    1e8a:	80 81       	ld	r24, Z
    1e8c:	91 81       	ldd	r25, Z+1	; 0x01
    1e8e:	b9 01       	movw	r22, r18
    1e90:	0e 94 ac 25 	call	0x4b58	; 0x4b58 <_ZN3ram4readEi>
    1e94:	88 2f       	mov	r24, r24
    1e96:	90 e0       	ldi	r25, 0x00	; 0
    1e98:	18 2f       	mov	r17, r24
    1e9a:	00 27       	eor	r16, r16
    1e9c:	ce 01       	movw	r24, r28
    1e9e:	8d 5a       	subi	r24, 0xAD	; 173
    1ea0:	9f 4f       	sbci	r25, 0xFF	; 255
    1ea2:	fc 01       	movw	r30, r24
    1ea4:	80 81       	ld	r24, Z
    1ea6:	91 81       	ldd	r25, Z+1	; 0x01
    1ea8:	87 5e       	subi	r24, 0xE7	; 231
    1eaa:	9e 4f       	sbci	r25, 0xFE	; 254
    1eac:	fc 01       	movw	r30, r24
    1eae:	80 81       	ld	r24, Z
    1eb0:	91 81       	ldd	r25, Z+1	; 0x01
    1eb2:	02 96       	adiw	r24, 0x02	; 2
    1eb4:	9c 01       	movw	r18, r24
    1eb6:	ce 01       	movw	r24, r28
    1eb8:	8d 5a       	subi	r24, 0xAD	; 173
    1eba:	9f 4f       	sbci	r25, 0xFF	; 255
    1ebc:	fc 01       	movw	r30, r24
    1ebe:	80 81       	ld	r24, Z
    1ec0:	91 81       	ldd	r25, Z+1	; 0x01
    1ec2:	85 5f       	subi	r24, 0xF5	; 245
    1ec4:	9e 4f       	sbci	r25, 0xFE	; 254
    1ec6:	fc 01       	movw	r30, r24
    1ec8:	80 81       	ld	r24, Z
    1eca:	91 81       	ldd	r25, Z+1	; 0x01
    1ecc:	b9 01       	movw	r22, r18
    1ece:	0e 94 ac 25 	call	0x4b58	; 0x4b58 <_ZN3ram4readEi>
    1ed2:	88 2f       	mov	r24, r24
    1ed4:	90 e0       	ldi	r25, 0x00	; 0
    1ed6:	80 2b       	or	r24, r16
    1ed8:	91 2b       	or	r25, r17
    1eda:	9f ab       	std	Y+55, r25	; 0x37
    1edc:	8e ab       	std	Y+54, r24	; 0x36
    1ede:	ce 01       	movw	r24, r28
    1ee0:	8d 5a       	subi	r24, 0xAD	; 173
    1ee2:	9f 4f       	sbci	r25, 0xFF	; 255
    1ee4:	fc 01       	movw	r30, r24
    1ee6:	80 81       	ld	r24, Z
    1ee8:	91 81       	ldd	r25, Z+1	; 0x01
    1eea:	87 5e       	subi	r24, 0xE7	; 231
    1eec:	9e 4f       	sbci	r25, 0xFE	; 254
    1eee:	fc 01       	movw	r30, r24
    1ef0:	20 81       	ld	r18, Z
    1ef2:	31 81       	ldd	r19, Z+1	; 0x01
    1ef4:	8e a9       	ldd	r24, Y+54	; 0x36
    1ef6:	9f a9       	ldd	r25, Y+55	; 0x37
    1ef8:	28 1b       	sub	r18, r24
    1efa:	39 0b       	sbc	r19, r25
    1efc:	ce 01       	movw	r24, r28
    1efe:	8d 5a       	subi	r24, 0xAD	; 173
    1f00:	9f 4f       	sbci	r25, 0xFF	; 255
    1f02:	fc 01       	movw	r30, r24
    1f04:	80 81       	ld	r24, Z
    1f06:	91 81       	ldd	r25, Z+1	; 0x01
    1f08:	b9 01       	movw	r22, r18
    1f0a:	0e 94 5b 1c 	call	0x38b6	; 0x38b6 <_ZN11interpreter7brlepcbEj>
    1f0e:	2d c6       	rjmp	.+3162   	; 0x2b6a <__stack+0x1a6b>
    1f10:	8a 81       	ldd	r24, Y+2	; 0x02
    1f12:	8c 32       	cpi	r24, 0x2C	; 44
    1f14:	09 f0       	breq	.+2      	; 0x1f18 <__stack+0xe19>
    1f16:	4c c0       	rjmp	.+152    	; 0x1fb0 <__stack+0xeb1>
    1f18:	ce 01       	movw	r24, r28
    1f1a:	8d 5a       	subi	r24, 0xAD	; 173
    1f1c:	9f 4f       	sbci	r25, 0xFF	; 255
    1f1e:	fc 01       	movw	r30, r24
    1f20:	80 81       	ld	r24, Z
    1f22:	91 81       	ldd	r25, Z+1	; 0x01
    1f24:	87 5e       	subi	r24, 0xE7	; 231
    1f26:	9e 4f       	sbci	r25, 0xFE	; 254
    1f28:	fc 01       	movw	r30, r24
    1f2a:	80 81       	ld	r24, Z
    1f2c:	91 81       	ldd	r25, Z+1	; 0x01
    1f2e:	01 96       	adiw	r24, 0x01	; 1
    1f30:	9c 01       	movw	r18, r24
    1f32:	ce 01       	movw	r24, r28
    1f34:	8d 5a       	subi	r24, 0xAD	; 173
    1f36:	9f 4f       	sbci	r25, 0xFF	; 255
    1f38:	fc 01       	movw	r30, r24
    1f3a:	80 81       	ld	r24, Z
    1f3c:	91 81       	ldd	r25, Z+1	; 0x01
    1f3e:	85 5f       	subi	r24, 0xF5	; 245
    1f40:	9e 4f       	sbci	r25, 0xFE	; 254
    1f42:	fc 01       	movw	r30, r24
    1f44:	80 81       	ld	r24, Z
    1f46:	91 81       	ldd	r25, Z+1	; 0x01
    1f48:	b9 01       	movw	r22, r18
    1f4a:	0e 94 ac 25 	call	0x4b58	; 0x4b58 <_ZN3ram4readEi>
    1f4e:	88 2f       	mov	r24, r24
    1f50:	90 e0       	ldi	r25, 0x00	; 0
    1f52:	18 2f       	mov	r17, r24
    1f54:	00 27       	eor	r16, r16
    1f56:	ce 01       	movw	r24, r28
    1f58:	8d 5a       	subi	r24, 0xAD	; 173
    1f5a:	9f 4f       	sbci	r25, 0xFF	; 255
    1f5c:	fc 01       	movw	r30, r24
    1f5e:	80 81       	ld	r24, Z
    1f60:	91 81       	ldd	r25, Z+1	; 0x01
    1f62:	87 5e       	subi	r24, 0xE7	; 231
    1f64:	9e 4f       	sbci	r25, 0xFE	; 254
    1f66:	fc 01       	movw	r30, r24
    1f68:	80 81       	ld	r24, Z
    1f6a:	91 81       	ldd	r25, Z+1	; 0x01
    1f6c:	02 96       	adiw	r24, 0x02	; 2
    1f6e:	9c 01       	movw	r18, r24
    1f70:	ce 01       	movw	r24, r28
    1f72:	8d 5a       	subi	r24, 0xAD	; 173
    1f74:	9f 4f       	sbci	r25, 0xFF	; 255
    1f76:	fc 01       	movw	r30, r24
    1f78:	80 81       	ld	r24, Z
    1f7a:	91 81       	ldd	r25, Z+1	; 0x01
    1f7c:	85 5f       	subi	r24, 0xF5	; 245
    1f7e:	9e 4f       	sbci	r25, 0xFE	; 254
    1f80:	fc 01       	movw	r30, r24
    1f82:	80 81       	ld	r24, Z
    1f84:	91 81       	ldd	r25, Z+1	; 0x01
    1f86:	b9 01       	movw	r22, r18
    1f88:	0e 94 ac 25 	call	0x4b58	; 0x4b58 <_ZN3ram4readEi>
    1f8c:	88 2f       	mov	r24, r24
    1f8e:	90 e0       	ldi	r25, 0x00	; 0
    1f90:	80 2b       	or	r24, r16
    1f92:	91 2b       	or	r25, r17
    1f94:	99 af       	std	Y+57, r25	; 0x39
    1f96:	88 af       	std	Y+56, r24	; 0x38
    1f98:	28 ad       	ldd	r18, Y+56	; 0x38
    1f9a:	39 ad       	ldd	r19, Y+57	; 0x39
    1f9c:	ce 01       	movw	r24, r28
    1f9e:	8d 5a       	subi	r24, 0xAD	; 173
    1fa0:	9f 4f       	sbci	r25, 0xFF	; 255
    1fa2:	fc 01       	movw	r30, r24
    1fa4:	80 81       	ld	r24, Z
    1fa6:	91 81       	ldd	r25, Z+1	; 0x01
    1fa8:	b9 01       	movw	r22, r18
    1faa:	0e 94 94 1c 	call	0x3928	; 0x3928 <_ZN11interpreter3brgEj>
    1fae:	dd c5       	rjmp	.+3002   	; 0x2b6a <__stack+0x1a6b>
    1fb0:	8a 81       	ldd	r24, Y+2	; 0x02
    1fb2:	8d 32       	cpi	r24, 0x2D	; 45
    1fb4:	09 f0       	breq	.+2      	; 0x1fb8 <__stack+0xeb9>
    1fb6:	59 c0       	rjmp	.+178    	; 0x206a <__stack+0xf6b>
    1fb8:	ce 01       	movw	r24, r28
    1fba:	8d 5a       	subi	r24, 0xAD	; 173
    1fbc:	9f 4f       	sbci	r25, 0xFF	; 255
    1fbe:	fc 01       	movw	r30, r24
    1fc0:	80 81       	ld	r24, Z
    1fc2:	91 81       	ldd	r25, Z+1	; 0x01
    1fc4:	87 5e       	subi	r24, 0xE7	; 231
    1fc6:	9e 4f       	sbci	r25, 0xFE	; 254
    1fc8:	fc 01       	movw	r30, r24
    1fca:	80 81       	ld	r24, Z
    1fcc:	91 81       	ldd	r25, Z+1	; 0x01
    1fce:	01 96       	adiw	r24, 0x01	; 1
    1fd0:	9c 01       	movw	r18, r24
    1fd2:	ce 01       	movw	r24, r28
    1fd4:	8d 5a       	subi	r24, 0xAD	; 173
    1fd6:	9f 4f       	sbci	r25, 0xFF	; 255
    1fd8:	fc 01       	movw	r30, r24
    1fda:	80 81       	ld	r24, Z
    1fdc:	91 81       	ldd	r25, Z+1	; 0x01
    1fde:	85 5f       	subi	r24, 0xF5	; 245
    1fe0:	9e 4f       	sbci	r25, 0xFE	; 254
    1fe2:	fc 01       	movw	r30, r24
    1fe4:	80 81       	ld	r24, Z
    1fe6:	91 81       	ldd	r25, Z+1	; 0x01
    1fe8:	b9 01       	movw	r22, r18
    1fea:	0e 94 ac 25 	call	0x4b58	; 0x4b58 <_ZN3ram4readEi>
    1fee:	88 2f       	mov	r24, r24
    1ff0:	90 e0       	ldi	r25, 0x00	; 0
    1ff2:	18 2f       	mov	r17, r24
    1ff4:	00 27       	eor	r16, r16
    1ff6:	ce 01       	movw	r24, r28
    1ff8:	8d 5a       	subi	r24, 0xAD	; 173
    1ffa:	9f 4f       	sbci	r25, 0xFF	; 255
    1ffc:	fc 01       	movw	r30, r24
    1ffe:	80 81       	ld	r24, Z
    2000:	91 81       	ldd	r25, Z+1	; 0x01
    2002:	87 5e       	subi	r24, 0xE7	; 231
    2004:	9e 4f       	sbci	r25, 0xFE	; 254
    2006:	fc 01       	movw	r30, r24
    2008:	80 81       	ld	r24, Z
    200a:	91 81       	ldd	r25, Z+1	; 0x01
    200c:	02 96       	adiw	r24, 0x02	; 2
    200e:	9c 01       	movw	r18, r24
    2010:	ce 01       	movw	r24, r28
    2012:	8d 5a       	subi	r24, 0xAD	; 173
    2014:	9f 4f       	sbci	r25, 0xFF	; 255
    2016:	fc 01       	movw	r30, r24
    2018:	80 81       	ld	r24, Z
    201a:	91 81       	ldd	r25, Z+1	; 0x01
    201c:	85 5f       	subi	r24, 0xF5	; 245
    201e:	9e 4f       	sbci	r25, 0xFE	; 254
    2020:	fc 01       	movw	r30, r24
    2022:	80 81       	ld	r24, Z
    2024:	91 81       	ldd	r25, Z+1	; 0x01
    2026:	b9 01       	movw	r22, r18
    2028:	0e 94 ac 25 	call	0x4b58	; 0x4b58 <_ZN3ram4readEi>
    202c:	88 2f       	mov	r24, r24
    202e:	90 e0       	ldi	r25, 0x00	; 0
    2030:	80 2b       	or	r24, r16
    2032:	91 2b       	or	r25, r17
    2034:	9b af       	std	Y+59, r25	; 0x3b
    2036:	8a af       	std	Y+58, r24	; 0x3a
    2038:	ce 01       	movw	r24, r28
    203a:	8d 5a       	subi	r24, 0xAD	; 173
    203c:	9f 4f       	sbci	r25, 0xFF	; 255
    203e:	fc 01       	movw	r30, r24
    2040:	80 81       	ld	r24, Z
    2042:	91 81       	ldd	r25, Z+1	; 0x01
    2044:	87 5e       	subi	r24, 0xE7	; 231
    2046:	9e 4f       	sbci	r25, 0xFE	; 254
    2048:	fc 01       	movw	r30, r24
    204a:	20 81       	ld	r18, Z
    204c:	31 81       	ldd	r19, Z+1	; 0x01
    204e:	8a ad       	ldd	r24, Y+58	; 0x3a
    2050:	9b ad       	ldd	r25, Y+59	; 0x3b
    2052:	28 0f       	add	r18, r24
    2054:	39 1f       	adc	r19, r25
    2056:	ce 01       	movw	r24, r28
    2058:	8d 5a       	subi	r24, 0xAD	; 173
    205a:	9f 4f       	sbci	r25, 0xFF	; 255
    205c:	fc 01       	movw	r30, r24
    205e:	80 81       	ld	r24, Z
    2060:	91 81       	ldd	r25, Z+1	; 0x01
    2062:	b9 01       	movw	r22, r18
    2064:	0e 94 c4 1c 	call	0x3988	; 0x3988 <_ZN11interpreter6brgpcfEj>
    2068:	80 c5       	rjmp	.+2816   	; 0x2b6a <__stack+0x1a6b>
    206a:	8a 81       	ldd	r24, Y+2	; 0x02
    206c:	8e 32       	cpi	r24, 0x2E	; 46
    206e:	09 f0       	breq	.+2      	; 0x2072 <__stack+0xf73>
    2070:	59 c0       	rjmp	.+178    	; 0x2124 <__stack+0x1025>
    2072:	ce 01       	movw	r24, r28
    2074:	8d 5a       	subi	r24, 0xAD	; 173
    2076:	9f 4f       	sbci	r25, 0xFF	; 255
    2078:	fc 01       	movw	r30, r24
    207a:	80 81       	ld	r24, Z
    207c:	91 81       	ldd	r25, Z+1	; 0x01
    207e:	87 5e       	subi	r24, 0xE7	; 231
    2080:	9e 4f       	sbci	r25, 0xFE	; 254
    2082:	fc 01       	movw	r30, r24
    2084:	80 81       	ld	r24, Z
    2086:	91 81       	ldd	r25, Z+1	; 0x01
    2088:	01 96       	adiw	r24, 0x01	; 1
    208a:	9c 01       	movw	r18, r24
    208c:	ce 01       	movw	r24, r28
    208e:	8d 5a       	subi	r24, 0xAD	; 173
    2090:	9f 4f       	sbci	r25, 0xFF	; 255
    2092:	fc 01       	movw	r30, r24
    2094:	80 81       	ld	r24, Z
    2096:	91 81       	ldd	r25, Z+1	; 0x01
    2098:	85 5f       	subi	r24, 0xF5	; 245
    209a:	9e 4f       	sbci	r25, 0xFE	; 254
    209c:	fc 01       	movw	r30, r24
    209e:	80 81       	ld	r24, Z
    20a0:	91 81       	ldd	r25, Z+1	; 0x01
    20a2:	b9 01       	movw	r22, r18
    20a4:	0e 94 ac 25 	call	0x4b58	; 0x4b58 <_ZN3ram4readEi>
    20a8:	88 2f       	mov	r24, r24
    20aa:	90 e0       	ldi	r25, 0x00	; 0
    20ac:	18 2f       	mov	r17, r24
    20ae:	00 27       	eor	r16, r16
    20b0:	ce 01       	movw	r24, r28
    20b2:	8d 5a       	subi	r24, 0xAD	; 173
    20b4:	9f 4f       	sbci	r25, 0xFF	; 255
    20b6:	fc 01       	movw	r30, r24
    20b8:	80 81       	ld	r24, Z
    20ba:	91 81       	ldd	r25, Z+1	; 0x01
    20bc:	87 5e       	subi	r24, 0xE7	; 231
    20be:	9e 4f       	sbci	r25, 0xFE	; 254
    20c0:	fc 01       	movw	r30, r24
    20c2:	80 81       	ld	r24, Z
    20c4:	91 81       	ldd	r25, Z+1	; 0x01
    20c6:	02 96       	adiw	r24, 0x02	; 2
    20c8:	9c 01       	movw	r18, r24
    20ca:	ce 01       	movw	r24, r28
    20cc:	8d 5a       	subi	r24, 0xAD	; 173
    20ce:	9f 4f       	sbci	r25, 0xFF	; 255
    20d0:	fc 01       	movw	r30, r24
    20d2:	80 81       	ld	r24, Z
    20d4:	91 81       	ldd	r25, Z+1	; 0x01
    20d6:	85 5f       	subi	r24, 0xF5	; 245
    20d8:	9e 4f       	sbci	r25, 0xFE	; 254
    20da:	fc 01       	movw	r30, r24
    20dc:	80 81       	ld	r24, Z
    20de:	91 81       	ldd	r25, Z+1	; 0x01
    20e0:	b9 01       	movw	r22, r18
    20e2:	0e 94 ac 25 	call	0x4b58	; 0x4b58 <_ZN3ram4readEi>
    20e6:	88 2f       	mov	r24, r24
    20e8:	90 e0       	ldi	r25, 0x00	; 0
    20ea:	80 2b       	or	r24, r16
    20ec:	91 2b       	or	r25, r17
    20ee:	9d af       	std	Y+61, r25	; 0x3d
    20f0:	8c af       	std	Y+60, r24	; 0x3c
    20f2:	ce 01       	movw	r24, r28
    20f4:	8d 5a       	subi	r24, 0xAD	; 173
    20f6:	9f 4f       	sbci	r25, 0xFF	; 255
    20f8:	fc 01       	movw	r30, r24
    20fa:	80 81       	ld	r24, Z
    20fc:	91 81       	ldd	r25, Z+1	; 0x01
    20fe:	87 5e       	subi	r24, 0xE7	; 231
    2100:	9e 4f       	sbci	r25, 0xFE	; 254
    2102:	fc 01       	movw	r30, r24
    2104:	20 81       	ld	r18, Z
    2106:	31 81       	ldd	r19, Z+1	; 0x01
    2108:	8c ad       	ldd	r24, Y+60	; 0x3c
    210a:	9d ad       	ldd	r25, Y+61	; 0x3d
    210c:	28 1b       	sub	r18, r24
    210e:	39 0b       	sbc	r19, r25
    2110:	ce 01       	movw	r24, r28
    2112:	8d 5a       	subi	r24, 0xAD	; 173
    2114:	9f 4f       	sbci	r25, 0xFF	; 255
    2116:	fc 01       	movw	r30, r24
    2118:	80 81       	ld	r24, Z
    211a:	91 81       	ldd	r25, Z+1	; 0x01
    211c:	b9 01       	movw	r22, r18
    211e:	0e 94 fd 1c 	call	0x39fa	; 0x39fa <_ZN11interpreter6brgpcbEj>
    2122:	23 c5       	rjmp	.+2630   	; 0x2b6a <__stack+0x1a6b>
    2124:	8a 81       	ldd	r24, Y+2	; 0x02
    2126:	8f 32       	cpi	r24, 0x2F	; 47
    2128:	09 f0       	breq	.+2      	; 0x212c <__stack+0x102d>
    212a:	4c c0       	rjmp	.+152    	; 0x21c4 <__stack+0x10c5>
    212c:	ce 01       	movw	r24, r28
    212e:	8d 5a       	subi	r24, 0xAD	; 173
    2130:	9f 4f       	sbci	r25, 0xFF	; 255
    2132:	fc 01       	movw	r30, r24
    2134:	80 81       	ld	r24, Z
    2136:	91 81       	ldd	r25, Z+1	; 0x01
    2138:	87 5e       	subi	r24, 0xE7	; 231
    213a:	9e 4f       	sbci	r25, 0xFE	; 254
    213c:	fc 01       	movw	r30, r24
    213e:	80 81       	ld	r24, Z
    2140:	91 81       	ldd	r25, Z+1	; 0x01
    2142:	01 96       	adiw	r24, 0x01	; 1
    2144:	9c 01       	movw	r18, r24
    2146:	ce 01       	movw	r24, r28
    2148:	8d 5a       	subi	r24, 0xAD	; 173
    214a:	9f 4f       	sbci	r25, 0xFF	; 255
    214c:	fc 01       	movw	r30, r24
    214e:	80 81       	ld	r24, Z
    2150:	91 81       	ldd	r25, Z+1	; 0x01
    2152:	85 5f       	subi	r24, 0xF5	; 245
    2154:	9e 4f       	sbci	r25, 0xFE	; 254
    2156:	fc 01       	movw	r30, r24
    2158:	80 81       	ld	r24, Z
    215a:	91 81       	ldd	r25, Z+1	; 0x01
    215c:	b9 01       	movw	r22, r18
    215e:	0e 94 ac 25 	call	0x4b58	; 0x4b58 <_ZN3ram4readEi>
    2162:	88 2f       	mov	r24, r24
    2164:	90 e0       	ldi	r25, 0x00	; 0
    2166:	18 2f       	mov	r17, r24
    2168:	00 27       	eor	r16, r16
    216a:	ce 01       	movw	r24, r28
    216c:	8d 5a       	subi	r24, 0xAD	; 173
    216e:	9f 4f       	sbci	r25, 0xFF	; 255
    2170:	fc 01       	movw	r30, r24
    2172:	80 81       	ld	r24, Z
    2174:	91 81       	ldd	r25, Z+1	; 0x01
    2176:	87 5e       	subi	r24, 0xE7	; 231
    2178:	9e 4f       	sbci	r25, 0xFE	; 254
    217a:	fc 01       	movw	r30, r24
    217c:	80 81       	ld	r24, Z
    217e:	91 81       	ldd	r25, Z+1	; 0x01
    2180:	02 96       	adiw	r24, 0x02	; 2
    2182:	9c 01       	movw	r18, r24
    2184:	ce 01       	movw	r24, r28
    2186:	8d 5a       	subi	r24, 0xAD	; 173
    2188:	9f 4f       	sbci	r25, 0xFF	; 255
    218a:	fc 01       	movw	r30, r24
    218c:	80 81       	ld	r24, Z
    218e:	91 81       	ldd	r25, Z+1	; 0x01
    2190:	85 5f       	subi	r24, 0xF5	; 245
    2192:	9e 4f       	sbci	r25, 0xFE	; 254
    2194:	fc 01       	movw	r30, r24
    2196:	80 81       	ld	r24, Z
    2198:	91 81       	ldd	r25, Z+1	; 0x01
    219a:	b9 01       	movw	r22, r18
    219c:	0e 94 ac 25 	call	0x4b58	; 0x4b58 <_ZN3ram4readEi>
    21a0:	88 2f       	mov	r24, r24
    21a2:	90 e0       	ldi	r25, 0x00	; 0
    21a4:	80 2b       	or	r24, r16
    21a6:	91 2b       	or	r25, r17
    21a8:	9f af       	std	Y+63, r25	; 0x3f
    21aa:	8e af       	std	Y+62, r24	; 0x3e
    21ac:	2e ad       	ldd	r18, Y+62	; 0x3e
    21ae:	3f ad       	ldd	r19, Y+63	; 0x3f
    21b0:	ce 01       	movw	r24, r28
    21b2:	8d 5a       	subi	r24, 0xAD	; 173
    21b4:	9f 4f       	sbci	r25, 0xFF	; 255
    21b6:	fc 01       	movw	r30, r24
    21b8:	80 81       	ld	r24, Z
    21ba:	91 81       	ldd	r25, Z+1	; 0x01
    21bc:	b9 01       	movw	r22, r18
    21be:	0e 94 36 1d 	call	0x3a6c	; 0x3a6c <_ZN11interpreter3brlEj>
    21c2:	d3 c4       	rjmp	.+2470   	; 0x2b6a <__stack+0x1a6b>
    21c4:	8a 81       	ldd	r24, Y+2	; 0x02
    21c6:	80 33       	cpi	r24, 0x30	; 48
    21c8:	09 f0       	breq	.+2      	; 0x21cc <__stack+0x10cd>
    21ca:	62 c0       	rjmp	.+196    	; 0x2290 <__stack+0x1191>
    21cc:	ce 01       	movw	r24, r28
    21ce:	8d 5a       	subi	r24, 0xAD	; 173
    21d0:	9f 4f       	sbci	r25, 0xFF	; 255
    21d2:	fc 01       	movw	r30, r24
    21d4:	80 81       	ld	r24, Z
    21d6:	91 81       	ldd	r25, Z+1	; 0x01
    21d8:	87 5e       	subi	r24, 0xE7	; 231
    21da:	9e 4f       	sbci	r25, 0xFE	; 254
    21dc:	fc 01       	movw	r30, r24
    21de:	80 81       	ld	r24, Z
    21e0:	91 81       	ldd	r25, Z+1	; 0x01
    21e2:	01 96       	adiw	r24, 0x01	; 1
    21e4:	9c 01       	movw	r18, r24
    21e6:	ce 01       	movw	r24, r28
    21e8:	8d 5a       	subi	r24, 0xAD	; 173
    21ea:	9f 4f       	sbci	r25, 0xFF	; 255
    21ec:	fc 01       	movw	r30, r24
    21ee:	80 81       	ld	r24, Z
    21f0:	91 81       	ldd	r25, Z+1	; 0x01
    21f2:	85 5f       	subi	r24, 0xF5	; 245
    21f4:	9e 4f       	sbci	r25, 0xFE	; 254
    21f6:	fc 01       	movw	r30, r24
    21f8:	80 81       	ld	r24, Z
    21fa:	91 81       	ldd	r25, Z+1	; 0x01
    21fc:	b9 01       	movw	r22, r18
    21fe:	0e 94 ac 25 	call	0x4b58	; 0x4b58 <_ZN3ram4readEi>
    2202:	88 2f       	mov	r24, r24
    2204:	90 e0       	ldi	r25, 0x00	; 0
    2206:	18 2f       	mov	r17, r24
    2208:	00 27       	eor	r16, r16
    220a:	ce 01       	movw	r24, r28
    220c:	8d 5a       	subi	r24, 0xAD	; 173
    220e:	9f 4f       	sbci	r25, 0xFF	; 255
    2210:	fc 01       	movw	r30, r24
    2212:	80 81       	ld	r24, Z
    2214:	91 81       	ldd	r25, Z+1	; 0x01
    2216:	87 5e       	subi	r24, 0xE7	; 231
    2218:	9e 4f       	sbci	r25, 0xFE	; 254
    221a:	fc 01       	movw	r30, r24
    221c:	80 81       	ld	r24, Z
    221e:	91 81       	ldd	r25, Z+1	; 0x01
    2220:	02 96       	adiw	r24, 0x02	; 2
    2222:	9c 01       	movw	r18, r24
    2224:	ce 01       	movw	r24, r28
    2226:	8d 5a       	subi	r24, 0xAD	; 173
    2228:	9f 4f       	sbci	r25, 0xFF	; 255
    222a:	fc 01       	movw	r30, r24
    222c:	80 81       	ld	r24, Z
    222e:	91 81       	ldd	r25, Z+1	; 0x01
    2230:	85 5f       	subi	r24, 0xF5	; 245
    2232:	9e 4f       	sbci	r25, 0xFE	; 254
    2234:	fc 01       	movw	r30, r24
    2236:	80 81       	ld	r24, Z
    2238:	91 81       	ldd	r25, Z+1	; 0x01
    223a:	b9 01       	movw	r22, r18
    223c:	0e 94 ac 25 	call	0x4b58	; 0x4b58 <_ZN3ram4readEi>
    2240:	88 2f       	mov	r24, r24
    2242:	90 e0       	ldi	r25, 0x00	; 0
    2244:	98 01       	movw	r18, r16
    2246:	28 2b       	or	r18, r24
    2248:	39 2b       	or	r19, r25
    224a:	ce 01       	movw	r24, r28
    224c:	80 5c       	subi	r24, 0xC0	; 192
    224e:	9f 4f       	sbci	r25, 0xFF	; 255
    2250:	fc 01       	movw	r30, r24
    2252:	31 83       	std	Z+1, r19	; 0x01
    2254:	20 83       	st	Z, r18
    2256:	ce 01       	movw	r24, r28
    2258:	8d 5a       	subi	r24, 0xAD	; 173
    225a:	9f 4f       	sbci	r25, 0xFF	; 255
    225c:	fc 01       	movw	r30, r24
    225e:	80 81       	ld	r24, Z
    2260:	91 81       	ldd	r25, Z+1	; 0x01
    2262:	87 5e       	subi	r24, 0xE7	; 231
    2264:	9e 4f       	sbci	r25, 0xFE	; 254
    2266:	fc 01       	movw	r30, r24
    2268:	20 81       	ld	r18, Z
    226a:	31 81       	ldd	r19, Z+1	; 0x01
    226c:	ce 01       	movw	r24, r28
    226e:	80 5c       	subi	r24, 0xC0	; 192
    2270:	9f 4f       	sbci	r25, 0xFF	; 255
    2272:	fc 01       	movw	r30, r24
    2274:	80 81       	ld	r24, Z
    2276:	91 81       	ldd	r25, Z+1	; 0x01
    2278:	28 0f       	add	r18, r24
    227a:	39 1f       	adc	r19, r25
    227c:	ce 01       	movw	r24, r28
    227e:	8d 5a       	subi	r24, 0xAD	; 173
    2280:	9f 4f       	sbci	r25, 0xFF	; 255
    2282:	fc 01       	movw	r30, r24
    2284:	80 81       	ld	r24, Z
    2286:	91 81       	ldd	r25, Z+1	; 0x01
    2288:	b9 01       	movw	r22, r18
    228a:	0e 94 66 1d 	call	0x3acc	; 0x3acc <_ZN11interpreter6brlpcfEj>
    228e:	6d c4       	rjmp	.+2266   	; 0x2b6a <__stack+0x1a6b>
    2290:	8a 81       	ldd	r24, Y+2	; 0x02
    2292:	81 33       	cpi	r24, 0x31	; 49
    2294:	09 f0       	breq	.+2      	; 0x2298 <__stack+0x1199>
    2296:	62 c0       	rjmp	.+196    	; 0x235c <__stack+0x125d>
    2298:	ce 01       	movw	r24, r28
    229a:	8d 5a       	subi	r24, 0xAD	; 173
    229c:	9f 4f       	sbci	r25, 0xFF	; 255
    229e:	fc 01       	movw	r30, r24
    22a0:	80 81       	ld	r24, Z
    22a2:	91 81       	ldd	r25, Z+1	; 0x01
    22a4:	87 5e       	subi	r24, 0xE7	; 231
    22a6:	9e 4f       	sbci	r25, 0xFE	; 254
    22a8:	fc 01       	movw	r30, r24
    22aa:	80 81       	ld	r24, Z
    22ac:	91 81       	ldd	r25, Z+1	; 0x01
    22ae:	01 96       	adiw	r24, 0x01	; 1
    22b0:	9c 01       	movw	r18, r24
    22b2:	ce 01       	movw	r24, r28
    22b4:	8d 5a       	subi	r24, 0xAD	; 173
    22b6:	9f 4f       	sbci	r25, 0xFF	; 255
    22b8:	fc 01       	movw	r30, r24
    22ba:	80 81       	ld	r24, Z
    22bc:	91 81       	ldd	r25, Z+1	; 0x01
    22be:	85 5f       	subi	r24, 0xF5	; 245
    22c0:	9e 4f       	sbci	r25, 0xFE	; 254
    22c2:	fc 01       	movw	r30, r24
    22c4:	80 81       	ld	r24, Z
    22c6:	91 81       	ldd	r25, Z+1	; 0x01
    22c8:	b9 01       	movw	r22, r18
    22ca:	0e 94 ac 25 	call	0x4b58	; 0x4b58 <_ZN3ram4readEi>
    22ce:	88 2f       	mov	r24, r24
    22d0:	90 e0       	ldi	r25, 0x00	; 0
    22d2:	18 2f       	mov	r17, r24
    22d4:	00 27       	eor	r16, r16
    22d6:	ce 01       	movw	r24, r28
    22d8:	8d 5a       	subi	r24, 0xAD	; 173
    22da:	9f 4f       	sbci	r25, 0xFF	; 255
    22dc:	fc 01       	movw	r30, r24
    22de:	80 81       	ld	r24, Z
    22e0:	91 81       	ldd	r25, Z+1	; 0x01
    22e2:	87 5e       	subi	r24, 0xE7	; 231
    22e4:	9e 4f       	sbci	r25, 0xFE	; 254
    22e6:	fc 01       	movw	r30, r24
    22e8:	80 81       	ld	r24, Z
    22ea:	91 81       	ldd	r25, Z+1	; 0x01
    22ec:	02 96       	adiw	r24, 0x02	; 2
    22ee:	9c 01       	movw	r18, r24
    22f0:	ce 01       	movw	r24, r28
    22f2:	8d 5a       	subi	r24, 0xAD	; 173
    22f4:	9f 4f       	sbci	r25, 0xFF	; 255
    22f6:	fc 01       	movw	r30, r24
    22f8:	80 81       	ld	r24, Z
    22fa:	91 81       	ldd	r25, Z+1	; 0x01
    22fc:	85 5f       	subi	r24, 0xF5	; 245
    22fe:	9e 4f       	sbci	r25, 0xFE	; 254
    2300:	fc 01       	movw	r30, r24
    2302:	80 81       	ld	r24, Z
    2304:	91 81       	ldd	r25, Z+1	; 0x01
    2306:	b9 01       	movw	r22, r18
    2308:	0e 94 ac 25 	call	0x4b58	; 0x4b58 <_ZN3ram4readEi>
    230c:	88 2f       	mov	r24, r24
    230e:	90 e0       	ldi	r25, 0x00	; 0
    2310:	98 01       	movw	r18, r16
    2312:	28 2b       	or	r18, r24
    2314:	39 2b       	or	r19, r25
    2316:	ce 01       	movw	r24, r28
    2318:	8e 5b       	subi	r24, 0xBE	; 190
    231a:	9f 4f       	sbci	r25, 0xFF	; 255
    231c:	fc 01       	movw	r30, r24
    231e:	31 83       	std	Z+1, r19	; 0x01
    2320:	20 83       	st	Z, r18
    2322:	ce 01       	movw	r24, r28
    2324:	8d 5a       	subi	r24, 0xAD	; 173
    2326:	9f 4f       	sbci	r25, 0xFF	; 255
    2328:	fc 01       	movw	r30, r24
    232a:	80 81       	ld	r24, Z
    232c:	91 81       	ldd	r25, Z+1	; 0x01
    232e:	87 5e       	subi	r24, 0xE7	; 231
    2330:	9e 4f       	sbci	r25, 0xFE	; 254
    2332:	fc 01       	movw	r30, r24
    2334:	20 81       	ld	r18, Z
    2336:	31 81       	ldd	r19, Z+1	; 0x01
    2338:	ce 01       	movw	r24, r28
    233a:	8e 5b       	subi	r24, 0xBE	; 190
    233c:	9f 4f       	sbci	r25, 0xFF	; 255
    233e:	fc 01       	movw	r30, r24
    2340:	80 81       	ld	r24, Z
    2342:	91 81       	ldd	r25, Z+1	; 0x01
    2344:	28 1b       	sub	r18, r24
    2346:	39 0b       	sbc	r19, r25
    2348:	ce 01       	movw	r24, r28
    234a:	8d 5a       	subi	r24, 0xAD	; 173
    234c:	9f 4f       	sbci	r25, 0xFF	; 255
    234e:	fc 01       	movw	r30, r24
    2350:	80 81       	ld	r24, Z
    2352:	91 81       	ldd	r25, Z+1	; 0x01
    2354:	b9 01       	movw	r22, r18
    2356:	0e 94 9f 1d 	call	0x3b3e	; 0x3b3e <_ZN11interpreter6brlpcbEj>
    235a:	07 c4       	rjmp	.+2062   	; 0x2b6a <__stack+0x1a6b>
    235c:	8a 81       	ldd	r24, Y+2	; 0x02
    235e:	82 33       	cpi	r24, 0x32	; 50
    2360:	09 f0       	breq	.+2      	; 0x2364 <__stack+0x1265>
    2362:	48 c0       	rjmp	.+144    	; 0x23f4 <__stack+0x12f5>
    2364:	ce 01       	movw	r24, r28
    2366:	8d 5a       	subi	r24, 0xAD	; 173
    2368:	9f 4f       	sbci	r25, 0xFF	; 255
    236a:	fc 01       	movw	r30, r24
    236c:	80 81       	ld	r24, Z
    236e:	91 81       	ldd	r25, Z+1	; 0x01
    2370:	87 5e       	subi	r24, 0xE7	; 231
    2372:	9e 4f       	sbci	r25, 0xFE	; 254
    2374:	fc 01       	movw	r30, r24
    2376:	80 81       	ld	r24, Z
    2378:	91 81       	ldd	r25, Z+1	; 0x01
    237a:	01 96       	adiw	r24, 0x01	; 1
    237c:	9c 01       	movw	r18, r24
    237e:	ce 01       	movw	r24, r28
    2380:	8d 5a       	subi	r24, 0xAD	; 173
    2382:	9f 4f       	sbci	r25, 0xFF	; 255
    2384:	fc 01       	movw	r30, r24
    2386:	80 81       	ld	r24, Z
    2388:	91 81       	ldd	r25, Z+1	; 0x01
    238a:	85 5f       	subi	r24, 0xF5	; 245
    238c:	9e 4f       	sbci	r25, 0xFE	; 254
    238e:	fc 01       	movw	r30, r24
    2390:	80 81       	ld	r24, Z
    2392:	91 81       	ldd	r25, Z+1	; 0x01
    2394:	8e 01       	movw	r16, r28
    2396:	0c 5b       	subi	r16, 0xBC	; 188
    2398:	1f 4f       	sbci	r17, 0xFF	; 255
    239a:	b9 01       	movw	r22, r18
    239c:	0e 94 ac 25 	call	0x4b58	; 0x4b58 <_ZN3ram4readEi>
    23a0:	f8 01       	movw	r30, r16
    23a2:	80 83       	st	Z, r24
    23a4:	ce 01       	movw	r24, r28
    23a6:	8c 5b       	subi	r24, 0xBC	; 188
    23a8:	9f 4f       	sbci	r25, 0xFF	; 255
    23aa:	9e 01       	movw	r18, r28
    23ac:	2d 5a       	subi	r18, 0xAD	; 173
    23ae:	3f 4f       	sbci	r19, 0xFF	; 255
    23b0:	f9 01       	movw	r30, r18
    23b2:	20 81       	ld	r18, Z
    23b4:	31 81       	ldd	r19, Z+1	; 0x01
    23b6:	fc 01       	movw	r30, r24
    23b8:	60 81       	ld	r22, Z
    23ba:	c9 01       	movw	r24, r18
    23bc:	0e 94 d8 1d 	call	0x3bb0	; 0x3bb0 <_ZN11interpreter3clrEc>
    23c0:	ce 01       	movw	r24, r28
    23c2:	8d 5a       	subi	r24, 0xAD	; 173
    23c4:	9f 4f       	sbci	r25, 0xFF	; 255
    23c6:	fc 01       	movw	r30, r24
    23c8:	80 81       	ld	r24, Z
    23ca:	91 81       	ldd	r25, Z+1	; 0x01
    23cc:	87 5e       	subi	r24, 0xE7	; 231
    23ce:	9e 4f       	sbci	r25, 0xFE	; 254
    23d0:	fc 01       	movw	r30, r24
    23d2:	80 81       	ld	r24, Z
    23d4:	91 81       	ldd	r25, Z+1	; 0x01
    23d6:	9c 01       	movw	r18, r24
    23d8:	2f 5f       	subi	r18, 0xFF	; 255
    23da:	3f 4f       	sbci	r19, 0xFF	; 255
    23dc:	ce 01       	movw	r24, r28
    23de:	8d 5a       	subi	r24, 0xAD	; 173
    23e0:	9f 4f       	sbci	r25, 0xFF	; 255
    23e2:	fc 01       	movw	r30, r24
    23e4:	80 81       	ld	r24, Z
    23e6:	91 81       	ldd	r25, Z+1	; 0x01
    23e8:	87 5e       	subi	r24, 0xE7	; 231
    23ea:	9e 4f       	sbci	r25, 0xFE	; 254
    23ec:	fc 01       	movw	r30, r24
    23ee:	31 83       	std	Z+1, r19	; 0x01
    23f0:	20 83       	st	Z, r18
    23f2:	bb c3       	rjmp	.+1910   	; 0x2b6a <__stack+0x1a6b>
    23f4:	8a 81       	ldd	r24, Y+2	; 0x02
    23f6:	83 33       	cpi	r24, 0x33	; 51
    23f8:	09 f0       	breq	.+2      	; 0x23fc <__stack+0x12fd>
    23fa:	48 c0       	rjmp	.+144    	; 0x248c <__stack+0x138d>
    23fc:	ce 01       	movw	r24, r28
    23fe:	8d 5a       	subi	r24, 0xAD	; 173
    2400:	9f 4f       	sbci	r25, 0xFF	; 255
    2402:	fc 01       	movw	r30, r24
    2404:	80 81       	ld	r24, Z
    2406:	91 81       	ldd	r25, Z+1	; 0x01
    2408:	87 5e       	subi	r24, 0xE7	; 231
    240a:	9e 4f       	sbci	r25, 0xFE	; 254
    240c:	fc 01       	movw	r30, r24
    240e:	80 81       	ld	r24, Z
    2410:	91 81       	ldd	r25, Z+1	; 0x01
    2412:	01 96       	adiw	r24, 0x01	; 1
    2414:	9c 01       	movw	r18, r24
    2416:	ce 01       	movw	r24, r28
    2418:	8d 5a       	subi	r24, 0xAD	; 173
    241a:	9f 4f       	sbci	r25, 0xFF	; 255
    241c:	fc 01       	movw	r30, r24
    241e:	80 81       	ld	r24, Z
    2420:	91 81       	ldd	r25, Z+1	; 0x01
    2422:	85 5f       	subi	r24, 0xF5	; 245
    2424:	9e 4f       	sbci	r25, 0xFE	; 254
    2426:	fc 01       	movw	r30, r24
    2428:	80 81       	ld	r24, Z
    242a:	91 81       	ldd	r25, Z+1	; 0x01
    242c:	8e 01       	movw	r16, r28
    242e:	0b 5b       	subi	r16, 0xBB	; 187
    2430:	1f 4f       	sbci	r17, 0xFF	; 255
    2432:	b9 01       	movw	r22, r18
    2434:	0e 94 ac 25 	call	0x4b58	; 0x4b58 <_ZN3ram4readEi>
    2438:	f8 01       	movw	r30, r16
    243a:	80 83       	st	Z, r24
    243c:	ce 01       	movw	r24, r28
    243e:	8b 5b       	subi	r24, 0xBB	; 187
    2440:	9f 4f       	sbci	r25, 0xFF	; 255
    2442:	9e 01       	movw	r18, r28
    2444:	2d 5a       	subi	r18, 0xAD	; 173
    2446:	3f 4f       	sbci	r19, 0xFF	; 255
    2448:	f9 01       	movw	r30, r18
    244a:	20 81       	ld	r18, Z
    244c:	31 81       	ldd	r19, Z+1	; 0x01
    244e:	fc 01       	movw	r30, r24
    2450:	60 81       	ld	r22, Z
    2452:	c9 01       	movw	r24, r18
    2454:	0e 94 9f 20 	call	0x413e	; 0x413e <_ZN11interpreter3clfEc>
    2458:	ce 01       	movw	r24, r28
    245a:	8d 5a       	subi	r24, 0xAD	; 173
    245c:	9f 4f       	sbci	r25, 0xFF	; 255
    245e:	fc 01       	movw	r30, r24
    2460:	80 81       	ld	r24, Z
    2462:	91 81       	ldd	r25, Z+1	; 0x01
    2464:	87 5e       	subi	r24, 0xE7	; 231
    2466:	9e 4f       	sbci	r25, 0xFE	; 254
    2468:	fc 01       	movw	r30, r24
    246a:	80 81       	ld	r24, Z
    246c:	91 81       	ldd	r25, Z+1	; 0x01
    246e:	9c 01       	movw	r18, r24
    2470:	2f 5f       	subi	r18, 0xFF	; 255
    2472:	3f 4f       	sbci	r19, 0xFF	; 255
    2474:	ce 01       	movw	r24, r28
    2476:	8d 5a       	subi	r24, 0xAD	; 173
    2478:	9f 4f       	sbci	r25, 0xFF	; 255
    247a:	fc 01       	movw	r30, r24
    247c:	80 81       	ld	r24, Z
    247e:	91 81       	ldd	r25, Z+1	; 0x01
    2480:	87 5e       	subi	r24, 0xE7	; 231
    2482:	9e 4f       	sbci	r25, 0xFE	; 254
    2484:	fc 01       	movw	r30, r24
    2486:	31 83       	std	Z+1, r19	; 0x01
    2488:	20 83       	st	Z, r18
    248a:	6f c3       	rjmp	.+1758   	; 0x2b6a <__stack+0x1a6b>
    248c:	8a 81       	ldd	r24, Y+2	; 0x02
    248e:	84 33       	cpi	r24, 0x34	; 52
    2490:	09 f0       	breq	.+2      	; 0x2494 <__stack+0x1395>
    2492:	48 c0       	rjmp	.+144    	; 0x2524 <__stack+0x1425>
    2494:	ce 01       	movw	r24, r28
    2496:	8d 5a       	subi	r24, 0xAD	; 173
    2498:	9f 4f       	sbci	r25, 0xFF	; 255
    249a:	fc 01       	movw	r30, r24
    249c:	80 81       	ld	r24, Z
    249e:	91 81       	ldd	r25, Z+1	; 0x01
    24a0:	87 5e       	subi	r24, 0xE7	; 231
    24a2:	9e 4f       	sbci	r25, 0xFE	; 254
    24a4:	fc 01       	movw	r30, r24
    24a6:	80 81       	ld	r24, Z
    24a8:	91 81       	ldd	r25, Z+1	; 0x01
    24aa:	01 96       	adiw	r24, 0x01	; 1
    24ac:	9c 01       	movw	r18, r24
    24ae:	ce 01       	movw	r24, r28
    24b0:	8d 5a       	subi	r24, 0xAD	; 173
    24b2:	9f 4f       	sbci	r25, 0xFF	; 255
    24b4:	fc 01       	movw	r30, r24
    24b6:	80 81       	ld	r24, Z
    24b8:	91 81       	ldd	r25, Z+1	; 0x01
    24ba:	85 5f       	subi	r24, 0xF5	; 245
    24bc:	9e 4f       	sbci	r25, 0xFE	; 254
    24be:	fc 01       	movw	r30, r24
    24c0:	80 81       	ld	r24, Z
    24c2:	91 81       	ldd	r25, Z+1	; 0x01
    24c4:	8e 01       	movw	r16, r28
    24c6:	0a 5b       	subi	r16, 0xBA	; 186
    24c8:	1f 4f       	sbci	r17, 0xFF	; 255
    24ca:	b9 01       	movw	r22, r18
    24cc:	0e 94 ac 25 	call	0x4b58	; 0x4b58 <_ZN3ram4readEi>
    24d0:	f8 01       	movw	r30, r16
    24d2:	80 83       	st	Z, r24
    24d4:	ce 01       	movw	r24, r28
    24d6:	8a 5b       	subi	r24, 0xBA	; 186
    24d8:	9f 4f       	sbci	r25, 0xFF	; 255
    24da:	9e 01       	movw	r18, r28
    24dc:	2d 5a       	subi	r18, 0xAD	; 173
    24de:	3f 4f       	sbci	r19, 0xFF	; 255
    24e0:	f9 01       	movw	r30, r18
    24e2:	20 81       	ld	r18, Z
    24e4:	31 81       	ldd	r19, Z+1	; 0x01
    24e6:	fc 01       	movw	r30, r24
    24e8:	60 81       	ld	r22, Z
    24ea:	c9 01       	movw	r24, r18
    24ec:	0e 94 3e 1f 	call	0x3e7c	; 0x3e7c <_ZN11interpreter4swapEc>
    24f0:	ce 01       	movw	r24, r28
    24f2:	8d 5a       	subi	r24, 0xAD	; 173
    24f4:	9f 4f       	sbci	r25, 0xFF	; 255
    24f6:	fc 01       	movw	r30, r24
    24f8:	80 81       	ld	r24, Z
    24fa:	91 81       	ldd	r25, Z+1	; 0x01
    24fc:	87 5e       	subi	r24, 0xE7	; 231
    24fe:	9e 4f       	sbci	r25, 0xFE	; 254
    2500:	fc 01       	movw	r30, r24
    2502:	80 81       	ld	r24, Z
    2504:	91 81       	ldd	r25, Z+1	; 0x01
    2506:	9c 01       	movw	r18, r24
    2508:	2f 5f       	subi	r18, 0xFF	; 255
    250a:	3f 4f       	sbci	r19, 0xFF	; 255
    250c:	ce 01       	movw	r24, r28
    250e:	8d 5a       	subi	r24, 0xAD	; 173
    2510:	9f 4f       	sbci	r25, 0xFF	; 255
    2512:	fc 01       	movw	r30, r24
    2514:	80 81       	ld	r24, Z
    2516:	91 81       	ldd	r25, Z+1	; 0x01
    2518:	87 5e       	subi	r24, 0xE7	; 231
    251a:	9e 4f       	sbci	r25, 0xFE	; 254
    251c:	fc 01       	movw	r30, r24
    251e:	31 83       	std	Z+1, r19	; 0x01
    2520:	20 83       	st	Z, r18
    2522:	23 c3       	rjmp	.+1606   	; 0x2b6a <__stack+0x1a6b>
    2524:	8a 81       	ldd	r24, Y+2	; 0x02
    2526:	85 33       	cpi	r24, 0x35	; 53
    2528:	09 f0       	breq	.+2      	; 0x252c <__stack+0x142d>
    252a:	48 c0       	rjmp	.+144    	; 0x25bc <__stack+0x14bd>
    252c:	ce 01       	movw	r24, r28
    252e:	8d 5a       	subi	r24, 0xAD	; 173
    2530:	9f 4f       	sbci	r25, 0xFF	; 255
    2532:	fc 01       	movw	r30, r24
    2534:	80 81       	ld	r24, Z
    2536:	91 81       	ldd	r25, Z+1	; 0x01
    2538:	87 5e       	subi	r24, 0xE7	; 231
    253a:	9e 4f       	sbci	r25, 0xFE	; 254
    253c:	fc 01       	movw	r30, r24
    253e:	80 81       	ld	r24, Z
    2540:	91 81       	ldd	r25, Z+1	; 0x01
    2542:	01 96       	adiw	r24, 0x01	; 1
    2544:	9c 01       	movw	r18, r24
    2546:	ce 01       	movw	r24, r28
    2548:	8d 5a       	subi	r24, 0xAD	; 173
    254a:	9f 4f       	sbci	r25, 0xFF	; 255
    254c:	fc 01       	movw	r30, r24
    254e:	80 81       	ld	r24, Z
    2550:	91 81       	ldd	r25, Z+1	; 0x01
    2552:	85 5f       	subi	r24, 0xF5	; 245
    2554:	9e 4f       	sbci	r25, 0xFE	; 254
    2556:	fc 01       	movw	r30, r24
    2558:	80 81       	ld	r24, Z
    255a:	91 81       	ldd	r25, Z+1	; 0x01
    255c:	8e 01       	movw	r16, r28
    255e:	09 5b       	subi	r16, 0xB9	; 185
    2560:	1f 4f       	sbci	r17, 0xFF	; 255
    2562:	b9 01       	movw	r22, r18
    2564:	0e 94 ac 25 	call	0x4b58	; 0x4b58 <_ZN3ram4readEi>
    2568:	f8 01       	movw	r30, r16
    256a:	80 83       	st	Z, r24
    256c:	ce 01       	movw	r24, r28
    256e:	89 5b       	subi	r24, 0xB9	; 185
    2570:	9f 4f       	sbci	r25, 0xFF	; 255
    2572:	9e 01       	movw	r18, r28
    2574:	2d 5a       	subi	r18, 0xAD	; 173
    2576:	3f 4f       	sbci	r19, 0xFF	; 255
    2578:	f9 01       	movw	r30, r18
    257a:	20 81       	ld	r18, Z
    257c:	31 81       	ldd	r19, Z+1	; 0x01
    257e:	fc 01       	movw	r30, r24
    2580:	60 81       	ld	r22, Z
    2582:	c9 01       	movw	r24, r18
    2584:	0e 94 fd 1e 	call	0x3dfa	; 0x3dfa <_ZN11interpreter3popEc>
    2588:	ce 01       	movw	r24, r28
    258a:	8d 5a       	subi	r24, 0xAD	; 173
    258c:	9f 4f       	sbci	r25, 0xFF	; 255
    258e:	fc 01       	movw	r30, r24
    2590:	80 81       	ld	r24, Z
    2592:	91 81       	ldd	r25, Z+1	; 0x01
    2594:	87 5e       	subi	r24, 0xE7	; 231
    2596:	9e 4f       	sbci	r25, 0xFE	; 254
    2598:	fc 01       	movw	r30, r24
    259a:	80 81       	ld	r24, Z
    259c:	91 81       	ldd	r25, Z+1	; 0x01
    259e:	9c 01       	movw	r18, r24
    25a0:	2f 5f       	subi	r18, 0xFF	; 255
    25a2:	3f 4f       	sbci	r19, 0xFF	; 255
    25a4:	ce 01       	movw	r24, r28
    25a6:	8d 5a       	subi	r24, 0xAD	; 173
    25a8:	9f 4f       	sbci	r25, 0xFF	; 255
    25aa:	fc 01       	movw	r30, r24
    25ac:	80 81       	ld	r24, Z
    25ae:	91 81       	ldd	r25, Z+1	; 0x01
    25b0:	87 5e       	subi	r24, 0xE7	; 231
    25b2:	9e 4f       	sbci	r25, 0xFE	; 254
    25b4:	fc 01       	movw	r30, r24
    25b6:	31 83       	std	Z+1, r19	; 0x01
    25b8:	20 83       	st	Z, r18
    25ba:	d7 c2       	rjmp	.+1454   	; 0x2b6a <__stack+0x1a6b>
    25bc:	8a 81       	ldd	r24, Y+2	; 0x02
    25be:	86 33       	cpi	r24, 0x36	; 54
    25c0:	09 f0       	breq	.+2      	; 0x25c4 <__stack+0x14c5>
    25c2:	48 c0       	rjmp	.+144    	; 0x2654 <__stack+0x1555>
    25c4:	ce 01       	movw	r24, r28
    25c6:	8d 5a       	subi	r24, 0xAD	; 173
    25c8:	9f 4f       	sbci	r25, 0xFF	; 255
    25ca:	fc 01       	movw	r30, r24
    25cc:	80 81       	ld	r24, Z
    25ce:	91 81       	ldd	r25, Z+1	; 0x01
    25d0:	87 5e       	subi	r24, 0xE7	; 231
    25d2:	9e 4f       	sbci	r25, 0xFE	; 254
    25d4:	fc 01       	movw	r30, r24
    25d6:	80 81       	ld	r24, Z
    25d8:	91 81       	ldd	r25, Z+1	; 0x01
    25da:	01 96       	adiw	r24, 0x01	; 1
    25dc:	9c 01       	movw	r18, r24
    25de:	ce 01       	movw	r24, r28
    25e0:	8d 5a       	subi	r24, 0xAD	; 173
    25e2:	9f 4f       	sbci	r25, 0xFF	; 255
    25e4:	fc 01       	movw	r30, r24
    25e6:	80 81       	ld	r24, Z
    25e8:	91 81       	ldd	r25, Z+1	; 0x01
    25ea:	85 5f       	subi	r24, 0xF5	; 245
    25ec:	9e 4f       	sbci	r25, 0xFE	; 254
    25ee:	fc 01       	movw	r30, r24
    25f0:	80 81       	ld	r24, Z
    25f2:	91 81       	ldd	r25, Z+1	; 0x01
    25f4:	8e 01       	movw	r16, r28
    25f6:	08 5b       	subi	r16, 0xB8	; 184
    25f8:	1f 4f       	sbci	r17, 0xFF	; 255
    25fa:	b9 01       	movw	r22, r18
    25fc:	0e 94 ac 25 	call	0x4b58	; 0x4b58 <_ZN3ram4readEi>
    2600:	f8 01       	movw	r30, r16
    2602:	80 83       	st	Z, r24
    2604:	ce 01       	movw	r24, r28
    2606:	88 5b       	subi	r24, 0xB8	; 184
    2608:	9f 4f       	sbci	r25, 0xFF	; 255
    260a:	9e 01       	movw	r18, r28
    260c:	2d 5a       	subi	r18, 0xAD	; 173
    260e:	3f 4f       	sbci	r19, 0xFF	; 255
    2610:	f9 01       	movw	r30, r18
    2612:	20 81       	ld	r18, Z
    2614:	31 81       	ldd	r19, Z+1	; 0x01
    2616:	fc 01       	movw	r30, r24
    2618:	60 81       	ld	r22, Z
    261a:	c9 01       	movw	r24, r18
    261c:	0e 94 5c 1e 	call	0x3cb8	; 0x3cb8 <_ZN11interpreter4pushEc>
    2620:	ce 01       	movw	r24, r28
    2622:	8d 5a       	subi	r24, 0xAD	; 173
    2624:	9f 4f       	sbci	r25, 0xFF	; 255
    2626:	fc 01       	movw	r30, r24
    2628:	80 81       	ld	r24, Z
    262a:	91 81       	ldd	r25, Z+1	; 0x01
    262c:	87 5e       	subi	r24, 0xE7	; 231
    262e:	9e 4f       	sbci	r25, 0xFE	; 254
    2630:	fc 01       	movw	r30, r24
    2632:	80 81       	ld	r24, Z
    2634:	91 81       	ldd	r25, Z+1	; 0x01
    2636:	9c 01       	movw	r18, r24
    2638:	2f 5f       	subi	r18, 0xFF	; 255
    263a:	3f 4f       	sbci	r19, 0xFF	; 255
    263c:	ce 01       	movw	r24, r28
    263e:	8d 5a       	subi	r24, 0xAD	; 173
    2640:	9f 4f       	sbci	r25, 0xFF	; 255
    2642:	fc 01       	movw	r30, r24
    2644:	80 81       	ld	r24, Z
    2646:	91 81       	ldd	r25, Z+1	; 0x01
    2648:	87 5e       	subi	r24, 0xE7	; 231
    264a:	9e 4f       	sbci	r25, 0xFE	; 254
    264c:	fc 01       	movw	r30, r24
    264e:	31 83       	std	Z+1, r19	; 0x01
    2650:	20 83       	st	Z, r18
    2652:	8b c2       	rjmp	.+1302   	; 0x2b6a <__stack+0x1a6b>
    2654:	8a 81       	ldd	r24, Y+2	; 0x02
    2656:	87 33       	cpi	r24, 0x37	; 55
    2658:	09 f0       	breq	.+2      	; 0x265c <__stack+0x155d>
    265a:	5c c0       	rjmp	.+184    	; 0x2714 <__stack+0x1615>
    265c:	ce 01       	movw	r24, r28
    265e:	8d 5a       	subi	r24, 0xAD	; 173
    2660:	9f 4f       	sbci	r25, 0xFF	; 255
    2662:	fc 01       	movw	r30, r24
    2664:	80 81       	ld	r24, Z
    2666:	91 81       	ldd	r25, Z+1	; 0x01
    2668:	87 5e       	subi	r24, 0xE7	; 231
    266a:	9e 4f       	sbci	r25, 0xFE	; 254
    266c:	fc 01       	movw	r30, r24
    266e:	80 81       	ld	r24, Z
    2670:	91 81       	ldd	r25, Z+1	; 0x01
    2672:	01 96       	adiw	r24, 0x01	; 1
    2674:	9c 01       	movw	r18, r24
    2676:	ce 01       	movw	r24, r28
    2678:	8d 5a       	subi	r24, 0xAD	; 173
    267a:	9f 4f       	sbci	r25, 0xFF	; 255
    267c:	fc 01       	movw	r30, r24
    267e:	80 81       	ld	r24, Z
    2680:	91 81       	ldd	r25, Z+1	; 0x01
    2682:	85 5f       	subi	r24, 0xF5	; 245
    2684:	9e 4f       	sbci	r25, 0xFE	; 254
    2686:	fc 01       	movw	r30, r24
    2688:	80 81       	ld	r24, Z
    268a:	91 81       	ldd	r25, Z+1	; 0x01
    268c:	8e 01       	movw	r16, r28
    268e:	07 5b       	subi	r16, 0xB7	; 183
    2690:	1f 4f       	sbci	r17, 0xFF	; 255
    2692:	b9 01       	movw	r22, r18
    2694:	0e 94 ac 25 	call	0x4b58	; 0x4b58 <_ZN3ram4readEi>
    2698:	f8 01       	movw	r30, r16
    269a:	80 83       	st	Z, r24
    269c:	ce 01       	movw	r24, r28
    269e:	87 5b       	subi	r24, 0xB7	; 183
    26a0:	9f 4f       	sbci	r25, 0xFF	; 255
    26a2:	fc 01       	movw	r30, r24
    26a4:	80 81       	ld	r24, Z
    26a6:	88 2f       	mov	r24, r24
    26a8:	90 e0       	ldi	r25, 0x00	; 0
    26aa:	9e 01       	movw	r18, r28
    26ac:	2d 5a       	subi	r18, 0xAD	; 173
    26ae:	3f 4f       	sbci	r19, 0xFF	; 255
    26b0:	f9 01       	movw	r30, r18
    26b2:	20 81       	ld	r18, Z
    26b4:	31 81       	ldd	r19, Z+1	; 0x01
    26b6:	88 0f       	add	r24, r24
    26b8:	99 1f       	adc	r25, r25
    26ba:	82 0f       	add	r24, r18
    26bc:	93 1f       	adc	r25, r19
    26be:	85 5e       	subi	r24, 0xE5	; 229
    26c0:	9e 4f       	sbci	r25, 0xFE	; 254
    26c2:	fc 01       	movw	r30, r24
    26c4:	80 81       	ld	r24, Z
    26c6:	91 81       	ldd	r25, Z+1	; 0x01
    26c8:	0e 94 1f 01 	call	0x23e	; 0x23e <_ZN11interpreter8indexreg6getValEv>
    26cc:	28 2f       	mov	r18, r24
    26ce:	ce 01       	movw	r24, r28
    26d0:	8d 5a       	subi	r24, 0xAD	; 173
    26d2:	9f 4f       	sbci	r25, 0xFF	; 255
    26d4:	fc 01       	movw	r30, r24
    26d6:	80 81       	ld	r24, Z
    26d8:	91 81       	ldd	r25, Z+1	; 0x01
    26da:	62 2f       	mov	r22, r18
    26dc:	0e 94 5c 1e 	call	0x3cb8	; 0x3cb8 <_ZN11interpreter4pushEc>
    26e0:	ce 01       	movw	r24, r28
    26e2:	8d 5a       	subi	r24, 0xAD	; 173
    26e4:	9f 4f       	sbci	r25, 0xFF	; 255
    26e6:	fc 01       	movw	r30, r24
    26e8:	80 81       	ld	r24, Z
    26ea:	91 81       	ldd	r25, Z+1	; 0x01
    26ec:	87 5e       	subi	r24, 0xE7	; 231
    26ee:	9e 4f       	sbci	r25, 0xFE	; 254
    26f0:	fc 01       	movw	r30, r24
    26f2:	80 81       	ld	r24, Z
    26f4:	91 81       	ldd	r25, Z+1	; 0x01
    26f6:	9c 01       	movw	r18, r24
    26f8:	2f 5f       	subi	r18, 0xFF	; 255
    26fa:	3f 4f       	sbci	r19, 0xFF	; 255
    26fc:	ce 01       	movw	r24, r28
    26fe:	8d 5a       	subi	r24, 0xAD	; 173
    2700:	9f 4f       	sbci	r25, 0xFF	; 255
    2702:	fc 01       	movw	r30, r24
    2704:	80 81       	ld	r24, Z
    2706:	91 81       	ldd	r25, Z+1	; 0x01
    2708:	87 5e       	subi	r24, 0xE7	; 231
    270a:	9e 4f       	sbci	r25, 0xFE	; 254
    270c:	fc 01       	movw	r30, r24
    270e:	31 83       	std	Z+1, r19	; 0x01
    2710:	20 83       	st	Z, r18
    2712:	2b c2       	rjmp	.+1110   	; 0x2b6a <__stack+0x1a6b>
    2714:	8a 81       	ldd	r24, Y+2	; 0x02
    2716:	88 33       	cpi	r24, 0x38	; 56
    2718:	09 f0       	breq	.+2      	; 0x271c <__stack+0x161d>
    271a:	48 c0       	rjmp	.+144    	; 0x27ac <__stack+0x16ad>
    271c:	ce 01       	movw	r24, r28
    271e:	8d 5a       	subi	r24, 0xAD	; 173
    2720:	9f 4f       	sbci	r25, 0xFF	; 255
    2722:	fc 01       	movw	r30, r24
    2724:	80 81       	ld	r24, Z
    2726:	91 81       	ldd	r25, Z+1	; 0x01
    2728:	87 5e       	subi	r24, 0xE7	; 231
    272a:	9e 4f       	sbci	r25, 0xFE	; 254
    272c:	fc 01       	movw	r30, r24
    272e:	80 81       	ld	r24, Z
    2730:	91 81       	ldd	r25, Z+1	; 0x01
    2732:	01 96       	adiw	r24, 0x01	; 1
    2734:	9c 01       	movw	r18, r24
    2736:	ce 01       	movw	r24, r28
    2738:	8d 5a       	subi	r24, 0xAD	; 173
    273a:	9f 4f       	sbci	r25, 0xFF	; 255
    273c:	fc 01       	movw	r30, r24
    273e:	80 81       	ld	r24, Z
    2740:	91 81       	ldd	r25, Z+1	; 0x01
    2742:	85 5f       	subi	r24, 0xF5	; 245
    2744:	9e 4f       	sbci	r25, 0xFE	; 254
    2746:	fc 01       	movw	r30, r24
    2748:	80 81       	ld	r24, Z
    274a:	91 81       	ldd	r25, Z+1	; 0x01
    274c:	8e 01       	movw	r16, r28
    274e:	06 5b       	subi	r16, 0xB6	; 182
    2750:	1f 4f       	sbci	r17, 0xFF	; 255
    2752:	b9 01       	movw	r22, r18
    2754:	0e 94 ac 25 	call	0x4b58	; 0x4b58 <_ZN3ram4readEi>
    2758:	f8 01       	movw	r30, r16
    275a:	80 83       	st	Z, r24
    275c:	ce 01       	movw	r24, r28
    275e:	86 5b       	subi	r24, 0xB6	; 182
    2760:	9f 4f       	sbci	r25, 0xFF	; 255
    2762:	9e 01       	movw	r18, r28
    2764:	2d 5a       	subi	r18, 0xAD	; 173
    2766:	3f 4f       	sbci	r19, 0xFF	; 255
    2768:	f9 01       	movw	r30, r18
    276a:	20 81       	ld	r18, Z
    276c:	31 81       	ldd	r19, Z+1	; 0x01
    276e:	fc 01       	movw	r30, r24
    2770:	60 81       	ld	r22, Z
    2772:	c9 01       	movw	r24, r18
    2774:	0e 94 97 1e 	call	0x3d2e	; 0x3d2e <_ZN11interpreter5pushiEh>
    2778:	ce 01       	movw	r24, r28
    277a:	8d 5a       	subi	r24, 0xAD	; 173
    277c:	9f 4f       	sbci	r25, 0xFF	; 255
    277e:	fc 01       	movw	r30, r24
    2780:	80 81       	ld	r24, Z
    2782:	91 81       	ldd	r25, Z+1	; 0x01
    2784:	87 5e       	subi	r24, 0xE7	; 231
    2786:	9e 4f       	sbci	r25, 0xFE	; 254
    2788:	fc 01       	movw	r30, r24
    278a:	80 81       	ld	r24, Z
    278c:	91 81       	ldd	r25, Z+1	; 0x01
    278e:	9c 01       	movw	r18, r24
    2790:	2f 5f       	subi	r18, 0xFF	; 255
    2792:	3f 4f       	sbci	r19, 0xFF	; 255
    2794:	ce 01       	movw	r24, r28
    2796:	8d 5a       	subi	r24, 0xAD	; 173
    2798:	9f 4f       	sbci	r25, 0xFF	; 255
    279a:	fc 01       	movw	r30, r24
    279c:	80 81       	ld	r24, Z
    279e:	91 81       	ldd	r25, Z+1	; 0x01
    27a0:	87 5e       	subi	r24, 0xE7	; 231
    27a2:	9e 4f       	sbci	r25, 0xFE	; 254
    27a4:	fc 01       	movw	r30, r24
    27a6:	31 83       	std	Z+1, r19	; 0x01
    27a8:	20 83       	st	Z, r18
    27aa:	df c1       	rjmp	.+958    	; 0x2b6a <__stack+0x1a6b>
    27ac:	8a 81       	ldd	r24, Y+2	; 0x02
    27ae:	89 33       	cpi	r24, 0x39	; 57
    27b0:	09 f0       	breq	.+2      	; 0x27b4 <__stack+0x16b5>
    27b2:	48 c0       	rjmp	.+144    	; 0x2844 <__stack+0x1745>
    27b4:	ce 01       	movw	r24, r28
    27b6:	8d 5a       	subi	r24, 0xAD	; 173
    27b8:	9f 4f       	sbci	r25, 0xFF	; 255
    27ba:	fc 01       	movw	r30, r24
    27bc:	80 81       	ld	r24, Z
    27be:	91 81       	ldd	r25, Z+1	; 0x01
    27c0:	87 5e       	subi	r24, 0xE7	; 231
    27c2:	9e 4f       	sbci	r25, 0xFE	; 254
    27c4:	fc 01       	movw	r30, r24
    27c6:	80 81       	ld	r24, Z
    27c8:	91 81       	ldd	r25, Z+1	; 0x01
    27ca:	01 96       	adiw	r24, 0x01	; 1
    27cc:	9c 01       	movw	r18, r24
    27ce:	ce 01       	movw	r24, r28
    27d0:	8d 5a       	subi	r24, 0xAD	; 173
    27d2:	9f 4f       	sbci	r25, 0xFF	; 255
    27d4:	fc 01       	movw	r30, r24
    27d6:	80 81       	ld	r24, Z
    27d8:	91 81       	ldd	r25, Z+1	; 0x01
    27da:	85 5f       	subi	r24, 0xF5	; 245
    27dc:	9e 4f       	sbci	r25, 0xFE	; 254
    27de:	fc 01       	movw	r30, r24
    27e0:	80 81       	ld	r24, Z
    27e2:	91 81       	ldd	r25, Z+1	; 0x01
    27e4:	8e 01       	movw	r16, r28
    27e6:	05 5b       	subi	r16, 0xB5	; 181
    27e8:	1f 4f       	sbci	r17, 0xFF	; 255
    27ea:	b9 01       	movw	r22, r18
    27ec:	0e 94 ac 25 	call	0x4b58	; 0x4b58 <_ZN3ram4readEi>
    27f0:	f8 01       	movw	r30, r16
    27f2:	80 83       	st	Z, r24
    27f4:	ce 01       	movw	r24, r28
    27f6:	85 5b       	subi	r24, 0xB5	; 181
    27f8:	9f 4f       	sbci	r25, 0xFF	; 255
    27fa:	9e 01       	movw	r18, r28
    27fc:	2d 5a       	subi	r18, 0xAD	; 173
    27fe:	3f 4f       	sbci	r19, 0xFF	; 255
    2800:	f9 01       	movw	r30, r18
    2802:	20 81       	ld	r18, Z
    2804:	31 81       	ldd	r19, Z+1	; 0x01
    2806:	fc 01       	movw	r30, r24
    2808:	60 81       	ld	r22, Z
    280a:	c9 01       	movw	r24, r18
    280c:	0e 94 57 16 	call	0x2cae	; 0x2cae <_ZN11interpreter3ldxEc>
    2810:	ce 01       	movw	r24, r28
    2812:	8d 5a       	subi	r24, 0xAD	; 173
    2814:	9f 4f       	sbci	r25, 0xFF	; 255
    2816:	fc 01       	movw	r30, r24
    2818:	80 81       	ld	r24, Z
    281a:	91 81       	ldd	r25, Z+1	; 0x01
    281c:	87 5e       	subi	r24, 0xE7	; 231
    281e:	9e 4f       	sbci	r25, 0xFE	; 254
    2820:	fc 01       	movw	r30, r24
    2822:	80 81       	ld	r24, Z
    2824:	91 81       	ldd	r25, Z+1	; 0x01
    2826:	9c 01       	movw	r18, r24
    2828:	2f 5f       	subi	r18, 0xFF	; 255
    282a:	3f 4f       	sbci	r19, 0xFF	; 255
    282c:	ce 01       	movw	r24, r28
    282e:	8d 5a       	subi	r24, 0xAD	; 173
    2830:	9f 4f       	sbci	r25, 0xFF	; 255
    2832:	fc 01       	movw	r30, r24
    2834:	80 81       	ld	r24, Z
    2836:	91 81       	ldd	r25, Z+1	; 0x01
    2838:	87 5e       	subi	r24, 0xE7	; 231
    283a:	9e 4f       	sbci	r25, 0xFE	; 254
    283c:	fc 01       	movw	r30, r24
    283e:	31 83       	std	Z+1, r19	; 0x01
    2840:	20 83       	st	Z, r18
    2842:	93 c1       	rjmp	.+806    	; 0x2b6a <__stack+0x1a6b>
    2844:	8a 81       	ldd	r24, Y+2	; 0x02
    2846:	8a 33       	cpi	r24, 0x3A	; 58
    2848:	09 f0       	breq	.+2      	; 0x284c <__stack+0x174d>
    284a:	48 c0       	rjmp	.+144    	; 0x28dc <__stack+0x17dd>
    284c:	ce 01       	movw	r24, r28
    284e:	8d 5a       	subi	r24, 0xAD	; 173
    2850:	9f 4f       	sbci	r25, 0xFF	; 255
    2852:	fc 01       	movw	r30, r24
    2854:	80 81       	ld	r24, Z
    2856:	91 81       	ldd	r25, Z+1	; 0x01
    2858:	87 5e       	subi	r24, 0xE7	; 231
    285a:	9e 4f       	sbci	r25, 0xFE	; 254
    285c:	fc 01       	movw	r30, r24
    285e:	80 81       	ld	r24, Z
    2860:	91 81       	ldd	r25, Z+1	; 0x01
    2862:	01 96       	adiw	r24, 0x01	; 1
    2864:	9c 01       	movw	r18, r24
    2866:	ce 01       	movw	r24, r28
    2868:	8d 5a       	subi	r24, 0xAD	; 173
    286a:	9f 4f       	sbci	r25, 0xFF	; 255
    286c:	fc 01       	movw	r30, r24
    286e:	80 81       	ld	r24, Z
    2870:	91 81       	ldd	r25, Z+1	; 0x01
    2872:	85 5f       	subi	r24, 0xF5	; 245
    2874:	9e 4f       	sbci	r25, 0xFE	; 254
    2876:	fc 01       	movw	r30, r24
    2878:	80 81       	ld	r24, Z
    287a:	91 81       	ldd	r25, Z+1	; 0x01
    287c:	8e 01       	movw	r16, r28
    287e:	04 5b       	subi	r16, 0xB4	; 180
    2880:	1f 4f       	sbci	r17, 0xFF	; 255
    2882:	b9 01       	movw	r22, r18
    2884:	0e 94 ac 25 	call	0x4b58	; 0x4b58 <_ZN3ram4readEi>
    2888:	f8 01       	movw	r30, r16
    288a:	80 83       	st	Z, r24
    288c:	ce 01       	movw	r24, r28
    288e:	84 5b       	subi	r24, 0xB4	; 180
    2890:	9f 4f       	sbci	r25, 0xFF	; 255
    2892:	9e 01       	movw	r18, r28
    2894:	2d 5a       	subi	r18, 0xAD	; 173
    2896:	3f 4f       	sbci	r19, 0xFF	; 255
    2898:	f9 01       	movw	r30, r18
    289a:	20 81       	ld	r18, Z
    289c:	31 81       	ldd	r19, Z+1	; 0x01
    289e:	fc 01       	movw	r30, r24
    28a0:	60 81       	ld	r22, Z
    28a2:	c9 01       	movw	r24, r18
    28a4:	0e 94 74 16 	call	0x2ce8	; 0x2ce8 <_ZN11interpreter3ldyEc>
    28a8:	ce 01       	movw	r24, r28
    28aa:	8d 5a       	subi	r24, 0xAD	; 173
    28ac:	9f 4f       	sbci	r25, 0xFF	; 255
    28ae:	fc 01       	movw	r30, r24
    28b0:	80 81       	ld	r24, Z
    28b2:	91 81       	ldd	r25, Z+1	; 0x01
    28b4:	87 5e       	subi	r24, 0xE7	; 231
    28b6:	9e 4f       	sbci	r25, 0xFE	; 254
    28b8:	fc 01       	movw	r30, r24
    28ba:	80 81       	ld	r24, Z
    28bc:	91 81       	ldd	r25, Z+1	; 0x01
    28be:	9c 01       	movw	r18, r24
    28c0:	2f 5f       	subi	r18, 0xFF	; 255
    28c2:	3f 4f       	sbci	r19, 0xFF	; 255
    28c4:	ce 01       	movw	r24, r28
    28c6:	8d 5a       	subi	r24, 0xAD	; 173
    28c8:	9f 4f       	sbci	r25, 0xFF	; 255
    28ca:	fc 01       	movw	r30, r24
    28cc:	80 81       	ld	r24, Z
    28ce:	91 81       	ldd	r25, Z+1	; 0x01
    28d0:	87 5e       	subi	r24, 0xE7	; 231
    28d2:	9e 4f       	sbci	r25, 0xFE	; 254
    28d4:	fc 01       	movw	r30, r24
    28d6:	31 83       	std	Z+1, r19	; 0x01
    28d8:	20 83       	st	Z, r18
    28da:	47 c1       	rjmp	.+654    	; 0x2b6a <__stack+0x1a6b>
    28dc:	8a 81       	ldd	r24, Y+2	; 0x02
    28de:	8b 33       	cpi	r24, 0x3B	; 59
    28e0:	09 f0       	breq	.+2      	; 0x28e4 <__stack+0x17e5>
    28e2:	48 c0       	rjmp	.+144    	; 0x2974 <__stack+0x1875>
    28e4:	ce 01       	movw	r24, r28
    28e6:	8d 5a       	subi	r24, 0xAD	; 173
    28e8:	9f 4f       	sbci	r25, 0xFF	; 255
    28ea:	fc 01       	movw	r30, r24
    28ec:	80 81       	ld	r24, Z
    28ee:	91 81       	ldd	r25, Z+1	; 0x01
    28f0:	87 5e       	subi	r24, 0xE7	; 231
    28f2:	9e 4f       	sbci	r25, 0xFE	; 254
    28f4:	fc 01       	movw	r30, r24
    28f6:	80 81       	ld	r24, Z
    28f8:	91 81       	ldd	r25, Z+1	; 0x01
    28fa:	01 96       	adiw	r24, 0x01	; 1
    28fc:	9c 01       	movw	r18, r24
    28fe:	ce 01       	movw	r24, r28
    2900:	8d 5a       	subi	r24, 0xAD	; 173
    2902:	9f 4f       	sbci	r25, 0xFF	; 255
    2904:	fc 01       	movw	r30, r24
    2906:	80 81       	ld	r24, Z
    2908:	91 81       	ldd	r25, Z+1	; 0x01
    290a:	85 5f       	subi	r24, 0xF5	; 245
    290c:	9e 4f       	sbci	r25, 0xFE	; 254
    290e:	fc 01       	movw	r30, r24
    2910:	80 81       	ld	r24, Z
    2912:	91 81       	ldd	r25, Z+1	; 0x01
    2914:	8e 01       	movw	r16, r28
    2916:	03 5b       	subi	r16, 0xB3	; 179
    2918:	1f 4f       	sbci	r17, 0xFF	; 255
    291a:	b9 01       	movw	r22, r18
    291c:	0e 94 ac 25 	call	0x4b58	; 0x4b58 <_ZN3ram4readEi>
    2920:	f8 01       	movw	r30, r16
    2922:	80 83       	st	Z, r24
    2924:	ce 01       	movw	r24, r28
    2926:	83 5b       	subi	r24, 0xB3	; 179
    2928:	9f 4f       	sbci	r25, 0xFF	; 255
    292a:	9e 01       	movw	r18, r28
    292c:	2d 5a       	subi	r18, 0xAD	; 173
    292e:	3f 4f       	sbci	r19, 0xFF	; 255
    2930:	f9 01       	movw	r30, r18
    2932:	20 81       	ld	r18, Z
    2934:	31 81       	ldd	r19, Z+1	; 0x01
    2936:	fc 01       	movw	r30, r24
    2938:	60 81       	ld	r22, Z
    293a:	c9 01       	movw	r24, r18
    293c:	0e 94 91 16 	call	0x2d22	; 0x2d22 <_ZN11interpreter3ldzEc>
    2940:	ce 01       	movw	r24, r28
    2942:	8d 5a       	subi	r24, 0xAD	; 173
    2944:	9f 4f       	sbci	r25, 0xFF	; 255
    2946:	fc 01       	movw	r30, r24
    2948:	80 81       	ld	r24, Z
    294a:	91 81       	ldd	r25, Z+1	; 0x01
    294c:	87 5e       	subi	r24, 0xE7	; 231
    294e:	9e 4f       	sbci	r25, 0xFE	; 254
    2950:	fc 01       	movw	r30, r24
    2952:	80 81       	ld	r24, Z
    2954:	91 81       	ldd	r25, Z+1	; 0x01
    2956:	9c 01       	movw	r18, r24
    2958:	2f 5f       	subi	r18, 0xFF	; 255
    295a:	3f 4f       	sbci	r19, 0xFF	; 255
    295c:	ce 01       	movw	r24, r28
    295e:	8d 5a       	subi	r24, 0xAD	; 173
    2960:	9f 4f       	sbci	r25, 0xFF	; 255
    2962:	fc 01       	movw	r30, r24
    2964:	80 81       	ld	r24, Z
    2966:	91 81       	ldd	r25, Z+1	; 0x01
    2968:	87 5e       	subi	r24, 0xE7	; 231
    296a:	9e 4f       	sbci	r25, 0xFE	; 254
    296c:	fc 01       	movw	r30, r24
    296e:	31 83       	std	Z+1, r19	; 0x01
    2970:	20 83       	st	Z, r18
    2972:	fb c0       	rjmp	.+502    	; 0x2b6a <__stack+0x1a6b>
    2974:	8a 81       	ldd	r24, Y+2	; 0x02
    2976:	8c 33       	cpi	r24, 0x3C	; 60
    2978:	49 f4       	brne	.+18     	; 0x298c <__stack+0x188d>
    297a:	ce 01       	movw	r24, r28
    297c:	8d 5a       	subi	r24, 0xAD	; 173
    297e:	9f 4f       	sbci	r25, 0xFF	; 255
    2980:	fc 01       	movw	r30, r24
    2982:	80 81       	ld	r24, Z
    2984:	91 81       	ldd	r25, Z+1	; 0x01
    2986:	0e 94 b5 20 	call	0x416a	; 0x416a <_ZN11interpreter3retEv>
    298a:	ef c0       	rjmp	.+478    	; 0x2b6a <__stack+0x1a6b>
    298c:	8a 81       	ldd	r24, Y+2	; 0x02
    298e:	8d 33       	cpi	r24, 0x3D	; 61
    2990:	09 f0       	breq	.+2      	; 0x2994 <__stack+0x1895>
    2992:	6e c0       	rjmp	.+220    	; 0x2a70 <__stack+0x1971>
    2994:	ce 01       	movw	r24, r28
    2996:	8d 5a       	subi	r24, 0xAD	; 173
    2998:	9f 4f       	sbci	r25, 0xFF	; 255
    299a:	fc 01       	movw	r30, r24
    299c:	80 81       	ld	r24, Z
    299e:	91 81       	ldd	r25, Z+1	; 0x01
    29a0:	87 5e       	subi	r24, 0xE7	; 231
    29a2:	9e 4f       	sbci	r25, 0xFE	; 254
    29a4:	fc 01       	movw	r30, r24
    29a6:	80 81       	ld	r24, Z
    29a8:	91 81       	ldd	r25, Z+1	; 0x01
    29aa:	01 96       	adiw	r24, 0x01	; 1
    29ac:	9c 01       	movw	r18, r24
    29ae:	ce 01       	movw	r24, r28
    29b0:	8d 5a       	subi	r24, 0xAD	; 173
    29b2:	9f 4f       	sbci	r25, 0xFF	; 255
    29b4:	fc 01       	movw	r30, r24
    29b6:	80 81       	ld	r24, Z
    29b8:	91 81       	ldd	r25, Z+1	; 0x01
    29ba:	85 5f       	subi	r24, 0xF5	; 245
    29bc:	9e 4f       	sbci	r25, 0xFE	; 254
    29be:	fc 01       	movw	r30, r24
    29c0:	80 81       	ld	r24, Z
    29c2:	91 81       	ldd	r25, Z+1	; 0x01
    29c4:	b9 01       	movw	r22, r18
    29c6:	0e 94 ac 25 	call	0x4b58	; 0x4b58 <_ZN3ram4readEi>
    29ca:	88 2f       	mov	r24, r24
    29cc:	90 e0       	ldi	r25, 0x00	; 0
    29ce:	18 2f       	mov	r17, r24
    29d0:	00 27       	eor	r16, r16
    29d2:	ce 01       	movw	r24, r28
    29d4:	8d 5a       	subi	r24, 0xAD	; 173
    29d6:	9f 4f       	sbci	r25, 0xFF	; 255
    29d8:	fc 01       	movw	r30, r24
    29da:	80 81       	ld	r24, Z
    29dc:	91 81       	ldd	r25, Z+1	; 0x01
    29de:	87 5e       	subi	r24, 0xE7	; 231
    29e0:	9e 4f       	sbci	r25, 0xFE	; 254
    29e2:	fc 01       	movw	r30, r24
    29e4:	80 81       	ld	r24, Z
    29e6:	91 81       	ldd	r25, Z+1	; 0x01
    29e8:	02 96       	adiw	r24, 0x02	; 2
    29ea:	9c 01       	movw	r18, r24
    29ec:	ce 01       	movw	r24, r28
    29ee:	8d 5a       	subi	r24, 0xAD	; 173
    29f0:	9f 4f       	sbci	r25, 0xFF	; 255
    29f2:	fc 01       	movw	r30, r24
    29f4:	80 81       	ld	r24, Z
    29f6:	91 81       	ldd	r25, Z+1	; 0x01
    29f8:	85 5f       	subi	r24, 0xF5	; 245
    29fa:	9e 4f       	sbci	r25, 0xFE	; 254
    29fc:	fc 01       	movw	r30, r24
    29fe:	80 81       	ld	r24, Z
    2a00:	91 81       	ldd	r25, Z+1	; 0x01
    2a02:	b9 01       	movw	r22, r18
    2a04:	0e 94 ac 25 	call	0x4b58	; 0x4b58 <_ZN3ram4readEi>
    2a08:	88 2f       	mov	r24, r24
    2a0a:	90 e0       	ldi	r25, 0x00	; 0
    2a0c:	98 01       	movw	r18, r16
    2a0e:	28 2b       	or	r18, r24
    2a10:	39 2b       	or	r19, r25
    2a12:	ce 01       	movw	r24, r28
    2a14:	82 5b       	subi	r24, 0xB2	; 178
    2a16:	9f 4f       	sbci	r25, 0xFF	; 255
    2a18:	fc 01       	movw	r30, r24
    2a1a:	31 83       	std	Z+1, r19	; 0x01
    2a1c:	20 83       	st	Z, r18
    2a1e:	ce 01       	movw	r24, r28
    2a20:	82 5b       	subi	r24, 0xB2	; 178
    2a22:	9f 4f       	sbci	r25, 0xFF	; 255
    2a24:	fc 01       	movw	r30, r24
    2a26:	20 81       	ld	r18, Z
    2a28:	31 81       	ldd	r19, Z+1	; 0x01
    2a2a:	ce 01       	movw	r24, r28
    2a2c:	8d 5a       	subi	r24, 0xAD	; 173
    2a2e:	9f 4f       	sbci	r25, 0xFF	; 255
    2a30:	fc 01       	movw	r30, r24
    2a32:	80 81       	ld	r24, Z
    2a34:	91 81       	ldd	r25, Z+1	; 0x01
    2a36:	b9 01       	movw	r22, r18
    2a38:	0e 94 41 1e 	call	0x3c82	; 0x3c82 <_ZN11interpreter3jmpEj>
    2a3c:	ce 01       	movw	r24, r28
    2a3e:	8d 5a       	subi	r24, 0xAD	; 173
    2a40:	9f 4f       	sbci	r25, 0xFF	; 255
    2a42:	fc 01       	movw	r30, r24
    2a44:	80 81       	ld	r24, Z
    2a46:	91 81       	ldd	r25, Z+1	; 0x01
    2a48:	87 5e       	subi	r24, 0xE7	; 231
    2a4a:	9e 4f       	sbci	r25, 0xFE	; 254
    2a4c:	fc 01       	movw	r30, r24
    2a4e:	80 81       	ld	r24, Z
    2a50:	91 81       	ldd	r25, Z+1	; 0x01
    2a52:	9c 01       	movw	r18, r24
    2a54:	2e 5f       	subi	r18, 0xFE	; 254
    2a56:	3f 4f       	sbci	r19, 0xFF	; 255
    2a58:	ce 01       	movw	r24, r28
    2a5a:	8d 5a       	subi	r24, 0xAD	; 173
    2a5c:	9f 4f       	sbci	r25, 0xFF	; 255
    2a5e:	fc 01       	movw	r30, r24
    2a60:	80 81       	ld	r24, Z
    2a62:	91 81       	ldd	r25, Z+1	; 0x01
    2a64:	87 5e       	subi	r24, 0xE7	; 231
    2a66:	9e 4f       	sbci	r25, 0xFE	; 254
    2a68:	fc 01       	movw	r30, r24
    2a6a:	31 83       	std	Z+1, r19	; 0x01
    2a6c:	20 83       	st	Z, r18
    2a6e:	7d c0       	rjmp	.+250    	; 0x2b6a <__stack+0x1a6b>
    2a70:	8a 81       	ldd	r24, Y+2	; 0x02
    2a72:	8e 33       	cpi	r24, 0x3E	; 62
    2a74:	09 f0       	breq	.+2      	; 0x2a78 <__stack+0x1979>
    2a76:	6e c0       	rjmp	.+220    	; 0x2b54 <__stack+0x1a55>
    2a78:	ce 01       	movw	r24, r28
    2a7a:	8d 5a       	subi	r24, 0xAD	; 173
    2a7c:	9f 4f       	sbci	r25, 0xFF	; 255
    2a7e:	fc 01       	movw	r30, r24
    2a80:	80 81       	ld	r24, Z
    2a82:	91 81       	ldd	r25, Z+1	; 0x01
    2a84:	87 5e       	subi	r24, 0xE7	; 231
    2a86:	9e 4f       	sbci	r25, 0xFE	; 254
    2a88:	fc 01       	movw	r30, r24
    2a8a:	80 81       	ld	r24, Z
    2a8c:	91 81       	ldd	r25, Z+1	; 0x01
    2a8e:	01 96       	adiw	r24, 0x01	; 1
    2a90:	9c 01       	movw	r18, r24
    2a92:	ce 01       	movw	r24, r28
    2a94:	8d 5a       	subi	r24, 0xAD	; 173
    2a96:	9f 4f       	sbci	r25, 0xFF	; 255
    2a98:	fc 01       	movw	r30, r24
    2a9a:	80 81       	ld	r24, Z
    2a9c:	91 81       	ldd	r25, Z+1	; 0x01
    2a9e:	85 5f       	subi	r24, 0xF5	; 245
    2aa0:	9e 4f       	sbci	r25, 0xFE	; 254
    2aa2:	fc 01       	movw	r30, r24
    2aa4:	80 81       	ld	r24, Z
    2aa6:	91 81       	ldd	r25, Z+1	; 0x01
    2aa8:	b9 01       	movw	r22, r18
    2aaa:	0e 94 ac 25 	call	0x4b58	; 0x4b58 <_ZN3ram4readEi>
    2aae:	88 2f       	mov	r24, r24
    2ab0:	90 e0       	ldi	r25, 0x00	; 0
    2ab2:	18 2f       	mov	r17, r24
    2ab4:	00 27       	eor	r16, r16
    2ab6:	ce 01       	movw	r24, r28
    2ab8:	8d 5a       	subi	r24, 0xAD	; 173
    2aba:	9f 4f       	sbci	r25, 0xFF	; 255
    2abc:	fc 01       	movw	r30, r24
    2abe:	80 81       	ld	r24, Z
    2ac0:	91 81       	ldd	r25, Z+1	; 0x01
    2ac2:	87 5e       	subi	r24, 0xE7	; 231
    2ac4:	9e 4f       	sbci	r25, 0xFE	; 254
    2ac6:	fc 01       	movw	r30, r24
    2ac8:	80 81       	ld	r24, Z
    2aca:	91 81       	ldd	r25, Z+1	; 0x01
    2acc:	02 96       	adiw	r24, 0x02	; 2
    2ace:	9c 01       	movw	r18, r24
    2ad0:	ce 01       	movw	r24, r28
    2ad2:	8d 5a       	subi	r24, 0xAD	; 173
    2ad4:	9f 4f       	sbci	r25, 0xFF	; 255
    2ad6:	fc 01       	movw	r30, r24
    2ad8:	80 81       	ld	r24, Z
    2ada:	91 81       	ldd	r25, Z+1	; 0x01
    2adc:	85 5f       	subi	r24, 0xF5	; 245
    2ade:	9e 4f       	sbci	r25, 0xFE	; 254
    2ae0:	fc 01       	movw	r30, r24
    2ae2:	80 81       	ld	r24, Z
    2ae4:	91 81       	ldd	r25, Z+1	; 0x01
    2ae6:	b9 01       	movw	r22, r18
    2ae8:	0e 94 ac 25 	call	0x4b58	; 0x4b58 <_ZN3ram4readEi>
    2aec:	88 2f       	mov	r24, r24
    2aee:	90 e0       	ldi	r25, 0x00	; 0
    2af0:	98 01       	movw	r18, r16
    2af2:	28 2b       	or	r18, r24
    2af4:	39 2b       	or	r19, r25
    2af6:	ce 01       	movw	r24, r28
    2af8:	80 5b       	subi	r24, 0xB0	; 176
    2afa:	9f 4f       	sbci	r25, 0xFF	; 255
    2afc:	fc 01       	movw	r30, r24
    2afe:	31 83       	std	Z+1, r19	; 0x01
    2b00:	20 83       	st	Z, r18
    2b02:	ce 01       	movw	r24, r28
    2b04:	80 5b       	subi	r24, 0xB0	; 176
    2b06:	9f 4f       	sbci	r25, 0xFF	; 255
    2b08:	fc 01       	movw	r30, r24
    2b0a:	20 81       	ld	r18, Z
    2b0c:	31 81       	ldd	r19, Z+1	; 0x01
    2b0e:	ce 01       	movw	r24, r28
    2b10:	8d 5a       	subi	r24, 0xAD	; 173
    2b12:	9f 4f       	sbci	r25, 0xFF	; 255
    2b14:	fc 01       	movw	r30, r24
    2b16:	80 81       	ld	r24, Z
    2b18:	91 81       	ldd	r25, Z+1	; 0x01
    2b1a:	b9 01       	movw	r22, r18
    2b1c:	0e 94 ff 1d 	call	0x3bfe	; 0x3bfe <_ZN11interpreter4callEj>
    2b20:	ce 01       	movw	r24, r28
    2b22:	8d 5a       	subi	r24, 0xAD	; 173
    2b24:	9f 4f       	sbci	r25, 0xFF	; 255
    2b26:	fc 01       	movw	r30, r24
    2b28:	80 81       	ld	r24, Z
    2b2a:	91 81       	ldd	r25, Z+1	; 0x01
    2b2c:	87 5e       	subi	r24, 0xE7	; 231
    2b2e:	9e 4f       	sbci	r25, 0xFE	; 254
    2b30:	fc 01       	movw	r30, r24
    2b32:	80 81       	ld	r24, Z
    2b34:	91 81       	ldd	r25, Z+1	; 0x01
    2b36:	9c 01       	movw	r18, r24
    2b38:	2e 5f       	subi	r18, 0xFE	; 254
    2b3a:	3f 4f       	sbci	r19, 0xFF	; 255
    2b3c:	ce 01       	movw	r24, r28
    2b3e:	8d 5a       	subi	r24, 0xAD	; 173
    2b40:	9f 4f       	sbci	r25, 0xFF	; 255
    2b42:	fc 01       	movw	r30, r24
    2b44:	80 81       	ld	r24, Z
    2b46:	91 81       	ldd	r25, Z+1	; 0x01
    2b48:	87 5e       	subi	r24, 0xE7	; 231
    2b4a:	9e 4f       	sbci	r25, 0xFE	; 254
    2b4c:	fc 01       	movw	r30, r24
    2b4e:	31 83       	std	Z+1, r19	; 0x01
    2b50:	20 83       	st	Z, r18
    2b52:	0b c0       	rjmp	.+22     	; 0x2b6a <__stack+0x1a6b>
    2b54:	8a 81       	ldd	r24, Y+2	; 0x02
    2b56:	8f 3f       	cpi	r24, 0xFF	; 255
    2b58:	41 f4       	brne	.+16     	; 0x2b6a <__stack+0x1a6b>
    2b5a:	ce 01       	movw	r24, r28
    2b5c:	8d 5a       	subi	r24, 0xAD	; 173
    2b5e:	9f 4f       	sbci	r25, 0xFF	; 255
    2b60:	fc 01       	movw	r30, r24
    2b62:	80 81       	ld	r24, Z
    2b64:	91 81       	ldd	r25, Z+1	; 0x01
    2b66:	0e 94 f1 1d 	call	0x3be2	; 0x3be2 <_ZN11interpreter3nopEv>
    2b6a:	ce 01       	movw	r24, r28
    2b6c:	8d 5a       	subi	r24, 0xAD	; 173
    2b6e:	9f 4f       	sbci	r25, 0xFF	; 255
    2b70:	fc 01       	movw	r30, r24
    2b72:	80 81       	ld	r24, Z
    2b74:	91 81       	ldd	r25, Z+1	; 0x01
    2b76:	87 5e       	subi	r24, 0xE7	; 231
    2b78:	9e 4f       	sbci	r25, 0xFE	; 254
    2b7a:	fc 01       	movw	r30, r24
    2b7c:	80 81       	ld	r24, Z
    2b7e:	91 81       	ldd	r25, Z+1	; 0x01
    2b80:	9c 01       	movw	r18, r24
    2b82:	2f 5f       	subi	r18, 0xFF	; 255
    2b84:	3f 4f       	sbci	r19, 0xFF	; 255
    2b86:	ce 01       	movw	r24, r28
    2b88:	8d 5a       	subi	r24, 0xAD	; 173
    2b8a:	9f 4f       	sbci	r25, 0xFF	; 255
    2b8c:	fc 01       	movw	r30, r24
    2b8e:	80 81       	ld	r24, Z
    2b90:	91 81       	ldd	r25, Z+1	; 0x01
    2b92:	87 5e       	subi	r24, 0xE7	; 231
    2b94:	9e 4f       	sbci	r25, 0xFE	; 254
    2b96:	fc 01       	movw	r30, r24
    2b98:	31 83       	std	Z+1, r19	; 0x01
    2b9a:	20 83       	st	Z, r18
    2b9c:	0c 94 e2 03 	jmp	0x7c4	; 0x7c4 <_ZN11interpreter3runEv+0x28>
    2ba0:	ce 01       	movw	r24, r28
    2ba2:	8d 5a       	subi	r24, 0xAD	; 173
    2ba4:	9f 4f       	sbci	r25, 0xFF	; 255
    2ba6:	fc 01       	movw	r30, r24
    2ba8:	80 81       	ld	r24, Z
    2baa:	91 81       	ldd	r25, Z+1	; 0x01
    2bac:	87 5e       	subi	r24, 0xE7	; 231
    2bae:	9e 4f       	sbci	r25, 0xFE	; 254
    2bb0:	fc 01       	movw	r30, r24
    2bb2:	11 82       	std	Z+1, r1	; 0x01
    2bb4:	10 82       	st	Z, r1
    2bb6:	85 e6       	ldi	r24, 0x65	; 101
    2bb8:	cc 5a       	subi	r28, 0xAC	; 172
    2bba:	df 4f       	sbci	r29, 0xFF	; 255
    2bbc:	0f b6       	in	r0, 0x3f	; 63
    2bbe:	f8 94       	cli
    2bc0:	de bf       	out	0x3e, r29	; 62
    2bc2:	0f be       	out	0x3f, r0	; 63
    2bc4:	cd bf       	out	0x3d, r28	; 61
    2bc6:	df 91       	pop	r29
    2bc8:	cf 91       	pop	r28
    2bca:	1f 91       	pop	r17
    2bcc:	0f 91       	pop	r16
    2bce:	08 95       	ret

00002bd0 <_ZN11interpreter3movEcc>:
    2bd0:	cf 93       	push	r28
    2bd2:	df 93       	push	r29
    2bd4:	00 d0       	rcall	.+0      	; 0x2bd6 <_ZN11interpreter3movEcc+0x6>
    2bd6:	00 d0       	rcall	.+0      	; 0x2bd8 <_ZN11interpreter3movEcc+0x8>
    2bd8:	cd b7       	in	r28, 0x3d	; 61
    2bda:	de b7       	in	r29, 0x3e	; 62
    2bdc:	9a 83       	std	Y+2, r25	; 0x02
    2bde:	89 83       	std	Y+1, r24	; 0x01
    2be0:	6b 83       	std	Y+3, r22	; 0x03
    2be2:	4c 83       	std	Y+4, r20	; 0x04
    2be4:	8b 81       	ldd	r24, Y+3	; 0x03
    2be6:	88 2f       	mov	r24, r24
    2be8:	90 e0       	ldi	r25, 0x00	; 0
    2bea:	2c 81       	ldd	r18, Y+4	; 0x04
    2bec:	22 2f       	mov	r18, r18
    2bee:	30 e0       	ldi	r19, 0x00	; 0
    2bf0:	49 81       	ldd	r20, Y+1	; 0x01
    2bf2:	5a 81       	ldd	r21, Y+2	; 0x02
    2bf4:	24 0f       	add	r18, r20
    2bf6:	35 1f       	adc	r19, r21
    2bf8:	f9 01       	movw	r30, r18
    2bfa:	40 81       	ld	r20, Z
    2bfc:	29 81       	ldd	r18, Y+1	; 0x01
    2bfe:	3a 81       	ldd	r19, Y+2	; 0x02
    2c00:	82 0f       	add	r24, r18
    2c02:	93 1f       	adc	r25, r19
    2c04:	fc 01       	movw	r30, r24
    2c06:	40 83       	st	Z, r20
    2c08:	00 00       	nop
    2c0a:	0f 90       	pop	r0
    2c0c:	0f 90       	pop	r0
    2c0e:	0f 90       	pop	r0
    2c10:	0f 90       	pop	r0
    2c12:	df 91       	pop	r29
    2c14:	cf 91       	pop	r28
    2c16:	08 95       	ret

00002c18 <_ZN11interpreter2ldEcj>:
    2c18:	0f 93       	push	r16
    2c1a:	1f 93       	push	r17
    2c1c:	cf 93       	push	r28
    2c1e:	df 93       	push	r29
    2c20:	00 d0       	rcall	.+0      	; 0x2c22 <_ZN11interpreter2ldEcj+0xa>
    2c22:	00 d0       	rcall	.+0      	; 0x2c24 <_ZN11interpreter2ldEcj+0xc>
    2c24:	1f 92       	push	r1
    2c26:	cd b7       	in	r28, 0x3d	; 61
    2c28:	de b7       	in	r29, 0x3e	; 62
    2c2a:	9a 83       	std	Y+2, r25	; 0x02
    2c2c:	89 83       	std	Y+1, r24	; 0x01
    2c2e:	6b 83       	std	Y+3, r22	; 0x03
    2c30:	5d 83       	std	Y+5, r21	; 0x05
    2c32:	4c 83       	std	Y+4, r20	; 0x04
    2c34:	8b 81       	ldd	r24, Y+3	; 0x03
    2c36:	08 2f       	mov	r16, r24
    2c38:	10 e0       	ldi	r17, 0x00	; 0
    2c3a:	2c 81       	ldd	r18, Y+4	; 0x04
    2c3c:	3d 81       	ldd	r19, Y+5	; 0x05
    2c3e:	89 81       	ldd	r24, Y+1	; 0x01
    2c40:	9a 81       	ldd	r25, Y+2	; 0x02
    2c42:	83 5f       	subi	r24, 0xF3	; 243
    2c44:	9e 4f       	sbci	r25, 0xFE	; 254
    2c46:	fc 01       	movw	r30, r24
    2c48:	80 81       	ld	r24, Z
    2c4a:	91 81       	ldd	r25, Z+1	; 0x01
    2c4c:	b9 01       	movw	r22, r18
    2c4e:	0e 94 ac 25 	call	0x4b58	; 0x4b58 <_ZN3ram4readEi>
    2c52:	28 2f       	mov	r18, r24
    2c54:	89 81       	ldd	r24, Y+1	; 0x01
    2c56:	9a 81       	ldd	r25, Y+2	; 0x02
    2c58:	80 0f       	add	r24, r16
    2c5a:	91 1f       	adc	r25, r17
    2c5c:	fc 01       	movw	r30, r24
    2c5e:	20 83       	st	Z, r18
    2c60:	00 00       	nop
    2c62:	0f 90       	pop	r0
    2c64:	0f 90       	pop	r0
    2c66:	0f 90       	pop	r0
    2c68:	0f 90       	pop	r0
    2c6a:	0f 90       	pop	r0
    2c6c:	df 91       	pop	r29
    2c6e:	cf 91       	pop	r28
    2c70:	1f 91       	pop	r17
    2c72:	0f 91       	pop	r16
    2c74:	08 95       	ret

00002c76 <_ZN11interpreter3ldiEcc>:
    2c76:	cf 93       	push	r28
    2c78:	df 93       	push	r29
    2c7a:	00 d0       	rcall	.+0      	; 0x2c7c <_ZN11interpreter3ldiEcc+0x6>
    2c7c:	00 d0       	rcall	.+0      	; 0x2c7e <_ZN11interpreter3ldiEcc+0x8>
    2c7e:	cd b7       	in	r28, 0x3d	; 61
    2c80:	de b7       	in	r29, 0x3e	; 62
    2c82:	9a 83       	std	Y+2, r25	; 0x02
    2c84:	89 83       	std	Y+1, r24	; 0x01
    2c86:	6b 83       	std	Y+3, r22	; 0x03
    2c88:	4c 83       	std	Y+4, r20	; 0x04
    2c8a:	8b 81       	ldd	r24, Y+3	; 0x03
    2c8c:	88 2f       	mov	r24, r24
    2c8e:	90 e0       	ldi	r25, 0x00	; 0
    2c90:	29 81       	ldd	r18, Y+1	; 0x01
    2c92:	3a 81       	ldd	r19, Y+2	; 0x02
    2c94:	82 0f       	add	r24, r18
    2c96:	93 1f       	adc	r25, r19
    2c98:	2c 81       	ldd	r18, Y+4	; 0x04
    2c9a:	fc 01       	movw	r30, r24
    2c9c:	20 83       	st	Z, r18
    2c9e:	00 00       	nop
    2ca0:	0f 90       	pop	r0
    2ca2:	0f 90       	pop	r0
    2ca4:	0f 90       	pop	r0
    2ca6:	0f 90       	pop	r0
    2ca8:	df 91       	pop	r29
    2caa:	cf 91       	pop	r28
    2cac:	08 95       	ret

00002cae <_ZN11interpreter3ldxEc>:
    2cae:	cf 93       	push	r28
    2cb0:	df 93       	push	r29
    2cb2:	00 d0       	rcall	.+0      	; 0x2cb4 <_ZN11interpreter3ldxEc+0x6>
    2cb4:	1f 92       	push	r1
    2cb6:	cd b7       	in	r28, 0x3d	; 61
    2cb8:	de b7       	in	r29, 0x3e	; 62
    2cba:	9a 83       	std	Y+2, r25	; 0x02
    2cbc:	89 83       	std	Y+1, r24	; 0x01
    2cbe:	6b 83       	std	Y+3, r22	; 0x03
    2cc0:	89 81       	ldd	r24, Y+1	; 0x01
    2cc2:	9a 81       	ldd	r25, Y+2	; 0x02
    2cc4:	81 50       	subi	r24, 0x01	; 1
    2cc6:	9f 4f       	sbci	r25, 0xFF	; 255
    2cc8:	0e 94 1f 01 	call	0x23e	; 0x23e <_ZN11interpreter8indexreg6getValEv>
    2ccc:	9c 01       	movw	r18, r24
    2cce:	89 81       	ldd	r24, Y+1	; 0x01
    2cd0:	9a 81       	ldd	r25, Y+2	; 0x02
    2cd2:	a9 01       	movw	r20, r18
    2cd4:	6b 81       	ldd	r22, Y+3	; 0x03
    2cd6:	0e 94 0c 16 	call	0x2c18	; 0x2c18 <_ZN11interpreter2ldEcj>
    2cda:	00 00       	nop
    2cdc:	0f 90       	pop	r0
    2cde:	0f 90       	pop	r0
    2ce0:	0f 90       	pop	r0
    2ce2:	df 91       	pop	r29
    2ce4:	cf 91       	pop	r28
    2ce6:	08 95       	ret

00002ce8 <_ZN11interpreter3ldyEc>:
    2ce8:	cf 93       	push	r28
    2cea:	df 93       	push	r29
    2cec:	00 d0       	rcall	.+0      	; 0x2cee <_ZN11interpreter3ldyEc+0x6>
    2cee:	1f 92       	push	r1
    2cf0:	cd b7       	in	r28, 0x3d	; 61
    2cf2:	de b7       	in	r29, 0x3e	; 62
    2cf4:	9a 83       	std	Y+2, r25	; 0x02
    2cf6:	89 83       	std	Y+1, r24	; 0x01
    2cf8:	6b 83       	std	Y+3, r22	; 0x03
    2cfa:	89 81       	ldd	r24, Y+1	; 0x01
    2cfc:	9a 81       	ldd	r25, Y+2	; 0x02
    2cfe:	8d 5f       	subi	r24, 0xFD	; 253
    2d00:	9e 4f       	sbci	r25, 0xFE	; 254
    2d02:	0e 94 1f 01 	call	0x23e	; 0x23e <_ZN11interpreter8indexreg6getValEv>
    2d06:	9c 01       	movw	r18, r24
    2d08:	89 81       	ldd	r24, Y+1	; 0x01
    2d0a:	9a 81       	ldd	r25, Y+2	; 0x02
    2d0c:	a9 01       	movw	r20, r18
    2d0e:	6b 81       	ldd	r22, Y+3	; 0x03
    2d10:	0e 94 0c 16 	call	0x2c18	; 0x2c18 <_ZN11interpreter2ldEcj>
    2d14:	00 00       	nop
    2d16:	0f 90       	pop	r0
    2d18:	0f 90       	pop	r0
    2d1a:	0f 90       	pop	r0
    2d1c:	df 91       	pop	r29
    2d1e:	cf 91       	pop	r28
    2d20:	08 95       	ret

00002d22 <_ZN11interpreter3ldzEc>:
    2d22:	cf 93       	push	r28
    2d24:	df 93       	push	r29
    2d26:	00 d0       	rcall	.+0      	; 0x2d28 <_ZN11interpreter3ldzEc+0x6>
    2d28:	1f 92       	push	r1
    2d2a:	cd b7       	in	r28, 0x3d	; 61
    2d2c:	de b7       	in	r29, 0x3e	; 62
    2d2e:	9a 83       	std	Y+2, r25	; 0x02
    2d30:	89 83       	std	Y+1, r24	; 0x01
    2d32:	6b 83       	std	Y+3, r22	; 0x03
    2d34:	89 81       	ldd	r24, Y+1	; 0x01
    2d36:	9a 81       	ldd	r25, Y+2	; 0x02
    2d38:	89 5f       	subi	r24, 0xF9	; 249
    2d3a:	9e 4f       	sbci	r25, 0xFE	; 254
    2d3c:	0e 94 1f 01 	call	0x23e	; 0x23e <_ZN11interpreter8indexreg6getValEv>
    2d40:	9c 01       	movw	r18, r24
    2d42:	89 81       	ldd	r24, Y+1	; 0x01
    2d44:	9a 81       	ldd	r25, Y+2	; 0x02
    2d46:	a9 01       	movw	r20, r18
    2d48:	6b 81       	ldd	r22, Y+3	; 0x03
    2d4a:	0e 94 0c 16 	call	0x2c18	; 0x2c18 <_ZN11interpreter2ldEcj>
    2d4e:	00 00       	nop
    2d50:	0f 90       	pop	r0
    2d52:	0f 90       	pop	r0
    2d54:	0f 90       	pop	r0
    2d56:	df 91       	pop	r29
    2d58:	cf 91       	pop	r28
    2d5a:	08 95       	ret

00002d5c <_ZN11interpreter3stxEc>:
    2d5c:	cf 93       	push	r28
    2d5e:	df 93       	push	r29
    2d60:	00 d0       	rcall	.+0      	; 0x2d62 <_ZN11interpreter3stxEc+0x6>
    2d62:	1f 92       	push	r1
    2d64:	cd b7       	in	r28, 0x3d	; 61
    2d66:	de b7       	in	r29, 0x3e	; 62
    2d68:	9a 83       	std	Y+2, r25	; 0x02
    2d6a:	89 83       	std	Y+1, r24	; 0x01
    2d6c:	6b 83       	std	Y+3, r22	; 0x03
    2d6e:	8b 81       	ldd	r24, Y+3	; 0x03
    2d70:	88 2f       	mov	r24, r24
    2d72:	90 e0       	ldi	r25, 0x00	; 0
    2d74:	29 81       	ldd	r18, Y+1	; 0x01
    2d76:	3a 81       	ldd	r19, Y+2	; 0x02
    2d78:	82 0f       	add	r24, r18
    2d7a:	93 1f       	adc	r25, r19
    2d7c:	fc 01       	movw	r30, r24
    2d7e:	40 81       	ld	r20, Z
    2d80:	89 81       	ldd	r24, Y+1	; 0x01
    2d82:	9a 81       	ldd	r25, Y+2	; 0x02
    2d84:	8f 5f       	subi	r24, 0xFF	; 255
    2d86:	9e 4f       	sbci	r25, 0xFE	; 254
    2d88:	fc 01       	movw	r30, r24
    2d8a:	80 81       	ld	r24, Z
    2d8c:	91 81       	ldd	r25, Z+1	; 0x01
    2d8e:	fc 01       	movw	r30, r24
    2d90:	80 81       	ld	r24, Z
    2d92:	88 2f       	mov	r24, r24
    2d94:	90 e0       	ldi	r25, 0x00	; 0
    2d96:	38 2f       	mov	r19, r24
    2d98:	22 27       	eor	r18, r18
    2d9a:	89 81       	ldd	r24, Y+1	; 0x01
    2d9c:	9a 81       	ldd	r25, Y+2	; 0x02
    2d9e:	81 50       	subi	r24, 0x01	; 1
    2da0:	9f 4f       	sbci	r25, 0xFF	; 255
    2da2:	fc 01       	movw	r30, r24
    2da4:	80 81       	ld	r24, Z
    2da6:	91 81       	ldd	r25, Z+1	; 0x01
    2da8:	fc 01       	movw	r30, r24
    2daa:	80 81       	ld	r24, Z
    2dac:	88 2f       	mov	r24, r24
    2dae:	90 e0       	ldi	r25, 0x00	; 0
    2db0:	28 2b       	or	r18, r24
    2db2:	39 2b       	or	r19, r25
    2db4:	89 81       	ldd	r24, Y+1	; 0x01
    2db6:	9a 81       	ldd	r25, Y+2	; 0x02
    2db8:	83 5f       	subi	r24, 0xF3	; 243
    2dba:	9e 4f       	sbci	r25, 0xFE	; 254
    2dbc:	fc 01       	movw	r30, r24
    2dbe:	80 81       	ld	r24, Z
    2dc0:	91 81       	ldd	r25, Z+1	; 0x01
    2dc2:	b9 01       	movw	r22, r18
    2dc4:	0e 94 ce 25 	call	0x4b9c	; 0x4b9c <_ZN3ram5writeEjc>
    2dc8:	00 00       	nop
    2dca:	0f 90       	pop	r0
    2dcc:	0f 90       	pop	r0
    2dce:	0f 90       	pop	r0
    2dd0:	df 91       	pop	r29
    2dd2:	cf 91       	pop	r28
    2dd4:	08 95       	ret

00002dd6 <_ZN11interpreter3styEc>:
    2dd6:	cf 93       	push	r28
    2dd8:	df 93       	push	r29
    2dda:	00 d0       	rcall	.+0      	; 0x2ddc <_ZN11interpreter3styEc+0x6>
    2ddc:	1f 92       	push	r1
    2dde:	cd b7       	in	r28, 0x3d	; 61
    2de0:	de b7       	in	r29, 0x3e	; 62
    2de2:	9a 83       	std	Y+2, r25	; 0x02
    2de4:	89 83       	std	Y+1, r24	; 0x01
    2de6:	6b 83       	std	Y+3, r22	; 0x03
    2de8:	8b 81       	ldd	r24, Y+3	; 0x03
    2dea:	88 2f       	mov	r24, r24
    2dec:	90 e0       	ldi	r25, 0x00	; 0
    2dee:	29 81       	ldd	r18, Y+1	; 0x01
    2df0:	3a 81       	ldd	r19, Y+2	; 0x02
    2df2:	82 0f       	add	r24, r18
    2df4:	93 1f       	adc	r25, r19
    2df6:	fc 01       	movw	r30, r24
    2df8:	40 81       	ld	r20, Z
    2dfa:	89 81       	ldd	r24, Y+1	; 0x01
    2dfc:	9a 81       	ldd	r25, Y+2	; 0x02
    2dfe:	8b 5f       	subi	r24, 0xFB	; 251
    2e00:	9e 4f       	sbci	r25, 0xFE	; 254
    2e02:	fc 01       	movw	r30, r24
    2e04:	80 81       	ld	r24, Z
    2e06:	91 81       	ldd	r25, Z+1	; 0x01
    2e08:	fc 01       	movw	r30, r24
    2e0a:	80 81       	ld	r24, Z
    2e0c:	88 2f       	mov	r24, r24
    2e0e:	90 e0       	ldi	r25, 0x00	; 0
    2e10:	38 2f       	mov	r19, r24
    2e12:	22 27       	eor	r18, r18
    2e14:	89 81       	ldd	r24, Y+1	; 0x01
    2e16:	9a 81       	ldd	r25, Y+2	; 0x02
    2e18:	8d 5f       	subi	r24, 0xFD	; 253
    2e1a:	9e 4f       	sbci	r25, 0xFE	; 254
    2e1c:	fc 01       	movw	r30, r24
    2e1e:	80 81       	ld	r24, Z
    2e20:	91 81       	ldd	r25, Z+1	; 0x01
    2e22:	fc 01       	movw	r30, r24
    2e24:	80 81       	ld	r24, Z
    2e26:	88 2f       	mov	r24, r24
    2e28:	90 e0       	ldi	r25, 0x00	; 0
    2e2a:	28 2b       	or	r18, r24
    2e2c:	39 2b       	or	r19, r25
    2e2e:	89 81       	ldd	r24, Y+1	; 0x01
    2e30:	9a 81       	ldd	r25, Y+2	; 0x02
    2e32:	83 5f       	subi	r24, 0xF3	; 243
    2e34:	9e 4f       	sbci	r25, 0xFE	; 254
    2e36:	fc 01       	movw	r30, r24
    2e38:	80 81       	ld	r24, Z
    2e3a:	91 81       	ldd	r25, Z+1	; 0x01
    2e3c:	b9 01       	movw	r22, r18
    2e3e:	0e 94 ce 25 	call	0x4b9c	; 0x4b9c <_ZN3ram5writeEjc>
    2e42:	00 00       	nop
    2e44:	0f 90       	pop	r0
    2e46:	0f 90       	pop	r0
    2e48:	0f 90       	pop	r0
    2e4a:	df 91       	pop	r29
    2e4c:	cf 91       	pop	r28
    2e4e:	08 95       	ret

00002e50 <_ZN11interpreter3stzEc>:
    2e50:	cf 93       	push	r28
    2e52:	df 93       	push	r29
    2e54:	00 d0       	rcall	.+0      	; 0x2e56 <_ZN11interpreter3stzEc+0x6>
    2e56:	1f 92       	push	r1
    2e58:	cd b7       	in	r28, 0x3d	; 61
    2e5a:	de b7       	in	r29, 0x3e	; 62
    2e5c:	9a 83       	std	Y+2, r25	; 0x02
    2e5e:	89 83       	std	Y+1, r24	; 0x01
    2e60:	6b 83       	std	Y+3, r22	; 0x03
    2e62:	8b 81       	ldd	r24, Y+3	; 0x03
    2e64:	88 2f       	mov	r24, r24
    2e66:	90 e0       	ldi	r25, 0x00	; 0
    2e68:	29 81       	ldd	r18, Y+1	; 0x01
    2e6a:	3a 81       	ldd	r19, Y+2	; 0x02
    2e6c:	82 0f       	add	r24, r18
    2e6e:	93 1f       	adc	r25, r19
    2e70:	fc 01       	movw	r30, r24
    2e72:	40 81       	ld	r20, Z
    2e74:	89 81       	ldd	r24, Y+1	; 0x01
    2e76:	9a 81       	ldd	r25, Y+2	; 0x02
    2e78:	87 5f       	subi	r24, 0xF7	; 247
    2e7a:	9e 4f       	sbci	r25, 0xFE	; 254
    2e7c:	fc 01       	movw	r30, r24
    2e7e:	80 81       	ld	r24, Z
    2e80:	91 81       	ldd	r25, Z+1	; 0x01
    2e82:	fc 01       	movw	r30, r24
    2e84:	80 81       	ld	r24, Z
    2e86:	88 2f       	mov	r24, r24
    2e88:	90 e0       	ldi	r25, 0x00	; 0
    2e8a:	38 2f       	mov	r19, r24
    2e8c:	22 27       	eor	r18, r18
    2e8e:	89 81       	ldd	r24, Y+1	; 0x01
    2e90:	9a 81       	ldd	r25, Y+2	; 0x02
    2e92:	89 5f       	subi	r24, 0xF9	; 249
    2e94:	9e 4f       	sbci	r25, 0xFE	; 254
    2e96:	fc 01       	movw	r30, r24
    2e98:	80 81       	ld	r24, Z
    2e9a:	91 81       	ldd	r25, Z+1	; 0x01
    2e9c:	fc 01       	movw	r30, r24
    2e9e:	80 81       	ld	r24, Z
    2ea0:	88 2f       	mov	r24, r24
    2ea2:	90 e0       	ldi	r25, 0x00	; 0
    2ea4:	28 2b       	or	r18, r24
    2ea6:	39 2b       	or	r19, r25
    2ea8:	89 81       	ldd	r24, Y+1	; 0x01
    2eaa:	9a 81       	ldd	r25, Y+2	; 0x02
    2eac:	83 5f       	subi	r24, 0xF3	; 243
    2eae:	9e 4f       	sbci	r25, 0xFE	; 254
    2eb0:	fc 01       	movw	r30, r24
    2eb2:	80 81       	ld	r24, Z
    2eb4:	91 81       	ldd	r25, Z+1	; 0x01
    2eb6:	b9 01       	movw	r22, r18
    2eb8:	0e 94 ce 25 	call	0x4b9c	; 0x4b9c <_ZN3ram5writeEjc>
    2ebc:	00 00       	nop
    2ebe:	0f 90       	pop	r0
    2ec0:	0f 90       	pop	r0
    2ec2:	0f 90       	pop	r0
    2ec4:	df 91       	pop	r29
    2ec6:	cf 91       	pop	r28
    2ec8:	08 95       	ret

00002eca <_ZN11interpreter3stdEjc>:
    2eca:	cf 93       	push	r28
    2ecc:	df 93       	push	r29
    2ece:	00 d0       	rcall	.+0      	; 0x2ed0 <_ZN11interpreter3stdEjc+0x6>
    2ed0:	00 d0       	rcall	.+0      	; 0x2ed2 <_ZN11interpreter3stdEjc+0x8>
    2ed2:	1f 92       	push	r1
    2ed4:	cd b7       	in	r28, 0x3d	; 61
    2ed6:	de b7       	in	r29, 0x3e	; 62
    2ed8:	9a 83       	std	Y+2, r25	; 0x02
    2eda:	89 83       	std	Y+1, r24	; 0x01
    2edc:	7c 83       	std	Y+4, r23	; 0x04
    2ede:	6b 83       	std	Y+3, r22	; 0x03
    2ee0:	4d 83       	std	Y+5, r20	; 0x05
    2ee2:	89 81       	ldd	r24, Y+1	; 0x01
    2ee4:	9a 81       	ldd	r25, Y+2	; 0x02
    2ee6:	83 5f       	subi	r24, 0xF3	; 243
    2ee8:	9e 4f       	sbci	r25, 0xFE	; 254
    2eea:	fc 01       	movw	r30, r24
    2eec:	80 81       	ld	r24, Z
    2eee:	91 81       	ldd	r25, Z+1	; 0x01
    2ef0:	2b 81       	ldd	r18, Y+3	; 0x03
    2ef2:	3c 81       	ldd	r19, Y+4	; 0x04
    2ef4:	4d 81       	ldd	r20, Y+5	; 0x05
    2ef6:	b9 01       	movw	r22, r18
    2ef8:	0e 94 ce 25 	call	0x4b9c	; 0x4b9c <_ZN3ram5writeEjc>
    2efc:	00 00       	nop
    2efe:	0f 90       	pop	r0
    2f00:	0f 90       	pop	r0
    2f02:	0f 90       	pop	r0
    2f04:	0f 90       	pop	r0
    2f06:	0f 90       	pop	r0
    2f08:	df 91       	pop	r29
    2f0a:	cf 91       	pop	r28
    2f0c:	08 95       	ret

00002f0e <_ZN11interpreter3svdEjc>:
    2f0e:	cf 93       	push	r28
    2f10:	df 93       	push	r29
    2f12:	00 d0       	rcall	.+0      	; 0x2f14 <_ZN11interpreter3svdEjc+0x6>
    2f14:	00 d0       	rcall	.+0      	; 0x2f16 <_ZN11interpreter3svdEjc+0x8>
    2f16:	1f 92       	push	r1
    2f18:	cd b7       	in	r28, 0x3d	; 61
    2f1a:	de b7       	in	r29, 0x3e	; 62
    2f1c:	9a 83       	std	Y+2, r25	; 0x02
    2f1e:	89 83       	std	Y+1, r24	; 0x01
    2f20:	7c 83       	std	Y+4, r23	; 0x04
    2f22:	6b 83       	std	Y+3, r22	; 0x03
    2f24:	4d 83       	std	Y+5, r20	; 0x05
    2f26:	89 81       	ldd	r24, Y+1	; 0x01
    2f28:	9a 81       	ldd	r25, Y+2	; 0x02
    2f2a:	8f 5e       	subi	r24, 0xEF	; 239
    2f2c:	9e 4f       	sbci	r25, 0xFE	; 254
    2f2e:	fc 01       	movw	r30, r24
    2f30:	80 81       	ld	r24, Z
    2f32:	91 81       	ldd	r25, Z+1	; 0x01
    2f34:	9c 01       	movw	r18, r24
    2f36:	8b 81       	ldd	r24, Y+3	; 0x03
    2f38:	9c 81       	ldd	r25, Y+4	; 0x04
    2f3a:	4d 81       	ldd	r20, Y+5	; 0x05
    2f3c:	bc 01       	movw	r22, r24
    2f3e:	c9 01       	movw	r24, r18
    2f40:	0e 94 ce 25 	call	0x4b9c	; 0x4b9c <_ZN3ram5writeEjc>
    2f44:	00 00       	nop
    2f46:	0f 90       	pop	r0
    2f48:	0f 90       	pop	r0
    2f4a:	0f 90       	pop	r0
    2f4c:	0f 90       	pop	r0
    2f4e:	0f 90       	pop	r0
    2f50:	df 91       	pop	r29
    2f52:	cf 91       	pop	r28
    2f54:	08 95       	ret

00002f56 <_ZN11interpreter3svxEc>:
    2f56:	cf 93       	push	r28
    2f58:	df 93       	push	r29
    2f5a:	00 d0       	rcall	.+0      	; 0x2f5c <_ZN11interpreter3svxEc+0x6>
    2f5c:	1f 92       	push	r1
    2f5e:	cd b7       	in	r28, 0x3d	; 61
    2f60:	de b7       	in	r29, 0x3e	; 62
    2f62:	9a 83       	std	Y+2, r25	; 0x02
    2f64:	89 83       	std	Y+1, r24	; 0x01
    2f66:	6b 83       	std	Y+3, r22	; 0x03
    2f68:	89 81       	ldd	r24, Y+1	; 0x01
    2f6a:	9a 81       	ldd	r25, Y+2	; 0x02
    2f6c:	81 50       	subi	r24, 0x01	; 1
    2f6e:	9f 4f       	sbci	r25, 0xFF	; 255
    2f70:	0e 94 1f 01 	call	0x23e	; 0x23e <_ZN11interpreter8indexreg6getValEv>
    2f74:	9c 01       	movw	r18, r24
    2f76:	89 81       	ldd	r24, Y+1	; 0x01
    2f78:	9a 81       	ldd	r25, Y+2	; 0x02
    2f7a:	8f 5e       	subi	r24, 0xEF	; 239
    2f7c:	9e 4f       	sbci	r25, 0xFE	; 254
    2f7e:	fc 01       	movw	r30, r24
    2f80:	80 81       	ld	r24, Z
    2f82:	91 81       	ldd	r25, Z+1	; 0x01
    2f84:	4b 81       	ldd	r20, Y+3	; 0x03
    2f86:	b9 01       	movw	r22, r18
    2f88:	0e 94 ce 25 	call	0x4b9c	; 0x4b9c <_ZN3ram5writeEjc>
    2f8c:	00 00       	nop
    2f8e:	0f 90       	pop	r0
    2f90:	0f 90       	pop	r0
    2f92:	0f 90       	pop	r0
    2f94:	df 91       	pop	r29
    2f96:	cf 91       	pop	r28
    2f98:	08 95       	ret

00002f9a <_ZN11interpreter3svyEc>:
    2f9a:	cf 93       	push	r28
    2f9c:	df 93       	push	r29
    2f9e:	00 d0       	rcall	.+0      	; 0x2fa0 <_ZN11interpreter3svyEc+0x6>
    2fa0:	1f 92       	push	r1
    2fa2:	cd b7       	in	r28, 0x3d	; 61
    2fa4:	de b7       	in	r29, 0x3e	; 62
    2fa6:	9a 83       	std	Y+2, r25	; 0x02
    2fa8:	89 83       	std	Y+1, r24	; 0x01
    2faa:	6b 83       	std	Y+3, r22	; 0x03
    2fac:	89 81       	ldd	r24, Y+1	; 0x01
    2fae:	9a 81       	ldd	r25, Y+2	; 0x02
    2fb0:	8d 5f       	subi	r24, 0xFD	; 253
    2fb2:	9e 4f       	sbci	r25, 0xFE	; 254
    2fb4:	0e 94 1f 01 	call	0x23e	; 0x23e <_ZN11interpreter8indexreg6getValEv>
    2fb8:	9c 01       	movw	r18, r24
    2fba:	89 81       	ldd	r24, Y+1	; 0x01
    2fbc:	9a 81       	ldd	r25, Y+2	; 0x02
    2fbe:	8f 5e       	subi	r24, 0xEF	; 239
    2fc0:	9e 4f       	sbci	r25, 0xFE	; 254
    2fc2:	fc 01       	movw	r30, r24
    2fc4:	80 81       	ld	r24, Z
    2fc6:	91 81       	ldd	r25, Z+1	; 0x01
    2fc8:	4b 81       	ldd	r20, Y+3	; 0x03
    2fca:	b9 01       	movw	r22, r18
    2fcc:	0e 94 ce 25 	call	0x4b9c	; 0x4b9c <_ZN3ram5writeEjc>
    2fd0:	00 00       	nop
    2fd2:	0f 90       	pop	r0
    2fd4:	0f 90       	pop	r0
    2fd6:	0f 90       	pop	r0
    2fd8:	df 91       	pop	r29
    2fda:	cf 91       	pop	r28
    2fdc:	08 95       	ret

00002fde <_ZN11interpreter3svzEc>:
    2fde:	cf 93       	push	r28
    2fe0:	df 93       	push	r29
    2fe2:	00 d0       	rcall	.+0      	; 0x2fe4 <_ZN11interpreter3svzEc+0x6>
    2fe4:	1f 92       	push	r1
    2fe6:	cd b7       	in	r28, 0x3d	; 61
    2fe8:	de b7       	in	r29, 0x3e	; 62
    2fea:	9a 83       	std	Y+2, r25	; 0x02
    2fec:	89 83       	std	Y+1, r24	; 0x01
    2fee:	6b 83       	std	Y+3, r22	; 0x03
    2ff0:	89 81       	ldd	r24, Y+1	; 0x01
    2ff2:	9a 81       	ldd	r25, Y+2	; 0x02
    2ff4:	89 5f       	subi	r24, 0xF9	; 249
    2ff6:	9e 4f       	sbci	r25, 0xFE	; 254
    2ff8:	0e 94 1f 01 	call	0x23e	; 0x23e <_ZN11interpreter8indexreg6getValEv>
    2ffc:	9c 01       	movw	r18, r24
    2ffe:	89 81       	ldd	r24, Y+1	; 0x01
    3000:	9a 81       	ldd	r25, Y+2	; 0x02
    3002:	8f 5e       	subi	r24, 0xEF	; 239
    3004:	9e 4f       	sbci	r25, 0xFE	; 254
    3006:	fc 01       	movw	r30, r24
    3008:	80 81       	ld	r24, Z
    300a:	91 81       	ldd	r25, Z+1	; 0x01
    300c:	4b 81       	ldd	r20, Y+3	; 0x03
    300e:	b9 01       	movw	r22, r18
    3010:	0e 94 ce 25 	call	0x4b9c	; 0x4b9c <_ZN3ram5writeEjc>
    3014:	00 00       	nop
    3016:	0f 90       	pop	r0
    3018:	0f 90       	pop	r0
    301a:	0f 90       	pop	r0
    301c:	df 91       	pop	r29
    301e:	cf 91       	pop	r28
    3020:	08 95       	ret

00003022 <_ZN11interpreter3txsEv>:
    3022:	cf 93       	push	r28
    3024:	df 93       	push	r29
    3026:	00 d0       	rcall	.+0      	; 0x3028 <_ZN11interpreter3txsEv+0x6>
    3028:	cd b7       	in	r28, 0x3d	; 61
    302a:	de b7       	in	r29, 0x3e	; 62
    302c:	9a 83       	std	Y+2, r25	; 0x02
    302e:	89 83       	std	Y+1, r24	; 0x01
    3030:	89 81       	ldd	r24, Y+1	; 0x01
    3032:	9a 81       	ldd	r25, Y+2	; 0x02
    3034:	81 50       	subi	r24, 0x01	; 1
    3036:	9f 4f       	sbci	r25, 0xFF	; 255
    3038:	0e 94 1f 01 	call	0x23e	; 0x23e <_ZN11interpreter8indexreg6getValEv>
    303c:	9c 01       	movw	r18, r24
    303e:	89 81       	ldd	r24, Y+1	; 0x01
    3040:	9a 81       	ldd	r25, Y+2	; 0x02
    3042:	89 5e       	subi	r24, 0xE9	; 233
    3044:	9e 4f       	sbci	r25, 0xFE	; 254
    3046:	fc 01       	movw	r30, r24
    3048:	31 83       	std	Z+1, r19	; 0x01
    304a:	20 83       	st	Z, r18
    304c:	00 00       	nop
    304e:	0f 90       	pop	r0
    3050:	0f 90       	pop	r0
    3052:	df 91       	pop	r29
    3054:	cf 91       	pop	r28
    3056:	08 95       	ret

00003058 <_ZN11interpreter3txyEv>:
    3058:	cf 93       	push	r28
    305a:	df 93       	push	r29
    305c:	00 d0       	rcall	.+0      	; 0x305e <_ZN11interpreter3txyEv+0x6>
    305e:	cd b7       	in	r28, 0x3d	; 61
    3060:	de b7       	in	r29, 0x3e	; 62
    3062:	9a 83       	std	Y+2, r25	; 0x02
    3064:	89 83       	std	Y+1, r24	; 0x01
    3066:	89 81       	ldd	r24, Y+1	; 0x01
    3068:	9a 81       	ldd	r25, Y+2	; 0x02
    306a:	81 50       	subi	r24, 0x01	; 1
    306c:	9f 4f       	sbci	r25, 0xFF	; 255
    306e:	0e 94 1f 01 	call	0x23e	; 0x23e <_ZN11interpreter8indexreg6getValEv>
    3072:	9c 01       	movw	r18, r24
    3074:	89 81       	ldd	r24, Y+1	; 0x01
    3076:	9a 81       	ldd	r25, Y+2	; 0x02
    3078:	8d 5f       	subi	r24, 0xFD	; 253
    307a:	9e 4f       	sbci	r25, 0xFE	; 254
    307c:	b9 01       	movw	r22, r18
    307e:	0e 94 41 01 	call	0x282	; 0x282 <_ZN11interpreter8indexreg8setValueEj>
    3082:	00 00       	nop
    3084:	0f 90       	pop	r0
    3086:	0f 90       	pop	r0
    3088:	df 91       	pop	r29
    308a:	cf 91       	pop	r28
    308c:	08 95       	ret

0000308e <_ZN11interpreter3txzEv>:
    308e:	cf 93       	push	r28
    3090:	df 93       	push	r29
    3092:	00 d0       	rcall	.+0      	; 0x3094 <_ZN11interpreter3txzEv+0x6>
    3094:	cd b7       	in	r28, 0x3d	; 61
    3096:	de b7       	in	r29, 0x3e	; 62
    3098:	9a 83       	std	Y+2, r25	; 0x02
    309a:	89 83       	std	Y+1, r24	; 0x01
    309c:	89 81       	ldd	r24, Y+1	; 0x01
    309e:	9a 81       	ldd	r25, Y+2	; 0x02
    30a0:	81 50       	subi	r24, 0x01	; 1
    30a2:	9f 4f       	sbci	r25, 0xFF	; 255
    30a4:	0e 94 1f 01 	call	0x23e	; 0x23e <_ZN11interpreter8indexreg6getValEv>
    30a8:	9c 01       	movw	r18, r24
    30aa:	89 81       	ldd	r24, Y+1	; 0x01
    30ac:	9a 81       	ldd	r25, Y+2	; 0x02
    30ae:	89 5f       	subi	r24, 0xF9	; 249
    30b0:	9e 4f       	sbci	r25, 0xFE	; 254
    30b2:	b9 01       	movw	r22, r18
    30b4:	0e 94 41 01 	call	0x282	; 0x282 <_ZN11interpreter8indexreg8setValueEj>
    30b8:	00 00       	nop
    30ba:	0f 90       	pop	r0
    30bc:	0f 90       	pop	r0
    30be:	df 91       	pop	r29
    30c0:	cf 91       	pop	r28
    30c2:	08 95       	ret

000030c4 <_ZN11interpreter3tysEv>:
    30c4:	cf 93       	push	r28
    30c6:	df 93       	push	r29
    30c8:	00 d0       	rcall	.+0      	; 0x30ca <_ZN11interpreter3tysEv+0x6>
    30ca:	cd b7       	in	r28, 0x3d	; 61
    30cc:	de b7       	in	r29, 0x3e	; 62
    30ce:	9a 83       	std	Y+2, r25	; 0x02
    30d0:	89 83       	std	Y+1, r24	; 0x01
    30d2:	89 81       	ldd	r24, Y+1	; 0x01
    30d4:	9a 81       	ldd	r25, Y+2	; 0x02
    30d6:	8d 5f       	subi	r24, 0xFD	; 253
    30d8:	9e 4f       	sbci	r25, 0xFE	; 254
    30da:	0e 94 1f 01 	call	0x23e	; 0x23e <_ZN11interpreter8indexreg6getValEv>
    30de:	9c 01       	movw	r18, r24
    30e0:	89 81       	ldd	r24, Y+1	; 0x01
    30e2:	9a 81       	ldd	r25, Y+2	; 0x02
    30e4:	89 5e       	subi	r24, 0xE9	; 233
    30e6:	9e 4f       	sbci	r25, 0xFE	; 254
    30e8:	fc 01       	movw	r30, r24
    30ea:	31 83       	std	Z+1, r19	; 0x01
    30ec:	20 83       	st	Z, r18
    30ee:	00 00       	nop
    30f0:	0f 90       	pop	r0
    30f2:	0f 90       	pop	r0
    30f4:	df 91       	pop	r29
    30f6:	cf 91       	pop	r28
    30f8:	08 95       	ret

000030fa <_ZN11interpreter3tyxEv>:
    30fa:	cf 93       	push	r28
    30fc:	df 93       	push	r29
    30fe:	00 d0       	rcall	.+0      	; 0x3100 <_ZN11interpreter3tyxEv+0x6>
    3100:	cd b7       	in	r28, 0x3d	; 61
    3102:	de b7       	in	r29, 0x3e	; 62
    3104:	9a 83       	std	Y+2, r25	; 0x02
    3106:	89 83       	std	Y+1, r24	; 0x01
    3108:	89 81       	ldd	r24, Y+1	; 0x01
    310a:	9a 81       	ldd	r25, Y+2	; 0x02
    310c:	8d 5f       	subi	r24, 0xFD	; 253
    310e:	9e 4f       	sbci	r25, 0xFE	; 254
    3110:	0e 94 1f 01 	call	0x23e	; 0x23e <_ZN11interpreter8indexreg6getValEv>
    3114:	9c 01       	movw	r18, r24
    3116:	89 81       	ldd	r24, Y+1	; 0x01
    3118:	9a 81       	ldd	r25, Y+2	; 0x02
    311a:	81 50       	subi	r24, 0x01	; 1
    311c:	9f 4f       	sbci	r25, 0xFF	; 255
    311e:	b9 01       	movw	r22, r18
    3120:	0e 94 41 01 	call	0x282	; 0x282 <_ZN11interpreter8indexreg8setValueEj>
    3124:	00 00       	nop
    3126:	0f 90       	pop	r0
    3128:	0f 90       	pop	r0
    312a:	df 91       	pop	r29
    312c:	cf 91       	pop	r28
    312e:	08 95       	ret

00003130 <_ZN11interpreter3tyzEv>:
    3130:	cf 93       	push	r28
    3132:	df 93       	push	r29
    3134:	00 d0       	rcall	.+0      	; 0x3136 <_ZN11interpreter3tyzEv+0x6>
    3136:	cd b7       	in	r28, 0x3d	; 61
    3138:	de b7       	in	r29, 0x3e	; 62
    313a:	9a 83       	std	Y+2, r25	; 0x02
    313c:	89 83       	std	Y+1, r24	; 0x01
    313e:	89 81       	ldd	r24, Y+1	; 0x01
    3140:	9a 81       	ldd	r25, Y+2	; 0x02
    3142:	8d 5f       	subi	r24, 0xFD	; 253
    3144:	9e 4f       	sbci	r25, 0xFE	; 254
    3146:	0e 94 1f 01 	call	0x23e	; 0x23e <_ZN11interpreter8indexreg6getValEv>
    314a:	9c 01       	movw	r18, r24
    314c:	89 81       	ldd	r24, Y+1	; 0x01
    314e:	9a 81       	ldd	r25, Y+2	; 0x02
    3150:	89 5f       	subi	r24, 0xF9	; 249
    3152:	9e 4f       	sbci	r25, 0xFE	; 254
    3154:	b9 01       	movw	r22, r18
    3156:	0e 94 41 01 	call	0x282	; 0x282 <_ZN11interpreter8indexreg8setValueEj>
    315a:	00 00       	nop
    315c:	0f 90       	pop	r0
    315e:	0f 90       	pop	r0
    3160:	df 91       	pop	r29
    3162:	cf 91       	pop	r28
    3164:	08 95       	ret

00003166 <_ZN11interpreter3tzsEv>:
    3166:	cf 93       	push	r28
    3168:	df 93       	push	r29
    316a:	00 d0       	rcall	.+0      	; 0x316c <_ZN11interpreter3tzsEv+0x6>
    316c:	cd b7       	in	r28, 0x3d	; 61
    316e:	de b7       	in	r29, 0x3e	; 62
    3170:	9a 83       	std	Y+2, r25	; 0x02
    3172:	89 83       	std	Y+1, r24	; 0x01
    3174:	89 81       	ldd	r24, Y+1	; 0x01
    3176:	9a 81       	ldd	r25, Y+2	; 0x02
    3178:	89 5f       	subi	r24, 0xF9	; 249
    317a:	9e 4f       	sbci	r25, 0xFE	; 254
    317c:	0e 94 1f 01 	call	0x23e	; 0x23e <_ZN11interpreter8indexreg6getValEv>
    3180:	9c 01       	movw	r18, r24
    3182:	89 81       	ldd	r24, Y+1	; 0x01
    3184:	9a 81       	ldd	r25, Y+2	; 0x02
    3186:	89 5e       	subi	r24, 0xE9	; 233
    3188:	9e 4f       	sbci	r25, 0xFE	; 254
    318a:	fc 01       	movw	r30, r24
    318c:	31 83       	std	Z+1, r19	; 0x01
    318e:	20 83       	st	Z, r18
    3190:	00 00       	nop
    3192:	0f 90       	pop	r0
    3194:	0f 90       	pop	r0
    3196:	df 91       	pop	r29
    3198:	cf 91       	pop	r28
    319a:	08 95       	ret

0000319c <_ZN11interpreter3tzxEv>:
    319c:	cf 93       	push	r28
    319e:	df 93       	push	r29
    31a0:	00 d0       	rcall	.+0      	; 0x31a2 <_ZN11interpreter3tzxEv+0x6>
    31a2:	cd b7       	in	r28, 0x3d	; 61
    31a4:	de b7       	in	r29, 0x3e	; 62
    31a6:	9a 83       	std	Y+2, r25	; 0x02
    31a8:	89 83       	std	Y+1, r24	; 0x01
    31aa:	89 81       	ldd	r24, Y+1	; 0x01
    31ac:	9a 81       	ldd	r25, Y+2	; 0x02
    31ae:	89 5f       	subi	r24, 0xF9	; 249
    31b0:	9e 4f       	sbci	r25, 0xFE	; 254
    31b2:	0e 94 1f 01 	call	0x23e	; 0x23e <_ZN11interpreter8indexreg6getValEv>
    31b6:	9c 01       	movw	r18, r24
    31b8:	89 81       	ldd	r24, Y+1	; 0x01
    31ba:	9a 81       	ldd	r25, Y+2	; 0x02
    31bc:	81 50       	subi	r24, 0x01	; 1
    31be:	9f 4f       	sbci	r25, 0xFF	; 255
    31c0:	b9 01       	movw	r22, r18
    31c2:	0e 94 41 01 	call	0x282	; 0x282 <_ZN11interpreter8indexreg8setValueEj>
    31c6:	00 00       	nop
    31c8:	0f 90       	pop	r0
    31ca:	0f 90       	pop	r0
    31cc:	df 91       	pop	r29
    31ce:	cf 91       	pop	r28
    31d0:	08 95       	ret

000031d2 <_ZN11interpreter3tzyEv>:
    31d2:	cf 93       	push	r28
    31d4:	df 93       	push	r29
    31d6:	00 d0       	rcall	.+0      	; 0x31d8 <_ZN11interpreter3tzyEv+0x6>
    31d8:	cd b7       	in	r28, 0x3d	; 61
    31da:	de b7       	in	r29, 0x3e	; 62
    31dc:	9a 83       	std	Y+2, r25	; 0x02
    31de:	89 83       	std	Y+1, r24	; 0x01
    31e0:	89 81       	ldd	r24, Y+1	; 0x01
    31e2:	9a 81       	ldd	r25, Y+2	; 0x02
    31e4:	89 5f       	subi	r24, 0xF9	; 249
    31e6:	9e 4f       	sbci	r25, 0xFE	; 254
    31e8:	0e 94 1f 01 	call	0x23e	; 0x23e <_ZN11interpreter8indexreg6getValEv>
    31ec:	9c 01       	movw	r18, r24
    31ee:	89 81       	ldd	r24, Y+1	; 0x01
    31f0:	9a 81       	ldd	r25, Y+2	; 0x02
    31f2:	8d 5f       	subi	r24, 0xFD	; 253
    31f4:	9e 4f       	sbci	r25, 0xFE	; 254
    31f6:	b9 01       	movw	r22, r18
    31f8:	0e 94 41 01 	call	0x282	; 0x282 <_ZN11interpreter8indexreg8setValueEj>
    31fc:	00 00       	nop
    31fe:	0f 90       	pop	r0
    3200:	0f 90       	pop	r0
    3202:	df 91       	pop	r29
    3204:	cf 91       	pop	r28
    3206:	08 95       	ret

00003208 <_ZN11interpreter3tsxEv>:
    3208:	cf 93       	push	r28
    320a:	df 93       	push	r29
    320c:	00 d0       	rcall	.+0      	; 0x320e <_ZN11interpreter3tsxEv+0x6>
    320e:	cd b7       	in	r28, 0x3d	; 61
    3210:	de b7       	in	r29, 0x3e	; 62
    3212:	9a 83       	std	Y+2, r25	; 0x02
    3214:	89 83       	std	Y+1, r24	; 0x01
    3216:	89 81       	ldd	r24, Y+1	; 0x01
    3218:	9a 81       	ldd	r25, Y+2	; 0x02
    321a:	89 5e       	subi	r24, 0xE9	; 233
    321c:	9e 4f       	sbci	r25, 0xFE	; 254
    321e:	fc 01       	movw	r30, r24
    3220:	20 81       	ld	r18, Z
    3222:	31 81       	ldd	r19, Z+1	; 0x01
    3224:	89 81       	ldd	r24, Y+1	; 0x01
    3226:	9a 81       	ldd	r25, Y+2	; 0x02
    3228:	81 50       	subi	r24, 0x01	; 1
    322a:	9f 4f       	sbci	r25, 0xFF	; 255
    322c:	b9 01       	movw	r22, r18
    322e:	0e 94 41 01 	call	0x282	; 0x282 <_ZN11interpreter8indexreg8setValueEj>
    3232:	00 00       	nop
    3234:	0f 90       	pop	r0
    3236:	0f 90       	pop	r0
    3238:	df 91       	pop	r29
    323a:	cf 91       	pop	r28
    323c:	08 95       	ret

0000323e <_ZN11interpreter3tsyEv>:
    323e:	cf 93       	push	r28
    3240:	df 93       	push	r29
    3242:	00 d0       	rcall	.+0      	; 0x3244 <_ZN11interpreter3tsyEv+0x6>
    3244:	cd b7       	in	r28, 0x3d	; 61
    3246:	de b7       	in	r29, 0x3e	; 62
    3248:	9a 83       	std	Y+2, r25	; 0x02
    324a:	89 83       	std	Y+1, r24	; 0x01
    324c:	89 81       	ldd	r24, Y+1	; 0x01
    324e:	9a 81       	ldd	r25, Y+2	; 0x02
    3250:	89 5e       	subi	r24, 0xE9	; 233
    3252:	9e 4f       	sbci	r25, 0xFE	; 254
    3254:	fc 01       	movw	r30, r24
    3256:	20 81       	ld	r18, Z
    3258:	31 81       	ldd	r19, Z+1	; 0x01
    325a:	89 81       	ldd	r24, Y+1	; 0x01
    325c:	9a 81       	ldd	r25, Y+2	; 0x02
    325e:	8d 5f       	subi	r24, 0xFD	; 253
    3260:	9e 4f       	sbci	r25, 0xFE	; 254
    3262:	b9 01       	movw	r22, r18
    3264:	0e 94 41 01 	call	0x282	; 0x282 <_ZN11interpreter8indexreg8setValueEj>
    3268:	00 00       	nop
    326a:	0f 90       	pop	r0
    326c:	0f 90       	pop	r0
    326e:	df 91       	pop	r29
    3270:	cf 91       	pop	r28
    3272:	08 95       	ret

00003274 <_ZN11interpreter3tszEv>:
    3274:	cf 93       	push	r28
    3276:	df 93       	push	r29
    3278:	00 d0       	rcall	.+0      	; 0x327a <_ZN11interpreter3tszEv+0x6>
    327a:	cd b7       	in	r28, 0x3d	; 61
    327c:	de b7       	in	r29, 0x3e	; 62
    327e:	9a 83       	std	Y+2, r25	; 0x02
    3280:	89 83       	std	Y+1, r24	; 0x01
    3282:	89 81       	ldd	r24, Y+1	; 0x01
    3284:	9a 81       	ldd	r25, Y+2	; 0x02
    3286:	89 5e       	subi	r24, 0xE9	; 233
    3288:	9e 4f       	sbci	r25, 0xFE	; 254
    328a:	fc 01       	movw	r30, r24
    328c:	20 81       	ld	r18, Z
    328e:	31 81       	ldd	r19, Z+1	; 0x01
    3290:	89 81       	ldd	r24, Y+1	; 0x01
    3292:	9a 81       	ldd	r25, Y+2	; 0x02
    3294:	89 5f       	subi	r24, 0xF9	; 249
    3296:	9e 4f       	sbci	r25, 0xFE	; 254
    3298:	b9 01       	movw	r22, r18
    329a:	0e 94 41 01 	call	0x282	; 0x282 <_ZN11interpreter8indexreg8setValueEj>
    329e:	00 00       	nop
    32a0:	0f 90       	pop	r0
    32a2:	0f 90       	pop	r0
    32a4:	df 91       	pop	r29
    32a6:	cf 91       	pop	r28
    32a8:	08 95       	ret

000032aa <_ZN11interpreter3cmpEcc>:
    32aa:	cf 93       	push	r28
    32ac:	df 93       	push	r29
    32ae:	00 d0       	rcall	.+0      	; 0x32b0 <_ZN11interpreter3cmpEcc+0x6>
    32b0:	00 d0       	rcall	.+0      	; 0x32b2 <_ZN11interpreter3cmpEcc+0x8>
    32b2:	cd b7       	in	r28, 0x3d	; 61
    32b4:	de b7       	in	r29, 0x3e	; 62
    32b6:	9a 83       	std	Y+2, r25	; 0x02
    32b8:	89 83       	std	Y+1, r24	; 0x01
    32ba:	6b 83       	std	Y+3, r22	; 0x03
    32bc:	4c 83       	std	Y+4, r20	; 0x04
    32be:	9b 81       	ldd	r25, Y+3	; 0x03
    32c0:	8c 81       	ldd	r24, Y+4	; 0x04
    32c2:	98 17       	cp	r25, r24
    32c4:	41 f4       	brne	.+16     	; 0x32d6 <_ZN11interpreter3cmpEcc+0x2c>
    32c6:	89 81       	ldd	r24, Y+1	; 0x01
    32c8:	9a 81       	ldd	r25, Y+2	; 0x02
    32ca:	8f 5d       	subi	r24, 0xDF	; 223
    32cc:	9e 4f       	sbci	r25, 0xFE	; 254
    32ce:	41 e0       	ldi	r20, 0x01	; 1
    32d0:	63 e0       	ldi	r22, 0x03	; 3
    32d2:	0e 94 84 01 	call	0x308	; 0x308 <_ZN11interpreter8cpuflags7setflagENS0_8bitflagsEb>
    32d6:	9b 81       	ldd	r25, Y+3	; 0x03
    32d8:	8c 81       	ldd	r24, Y+4	; 0x04
    32da:	89 17       	cp	r24, r25
    32dc:	40 f4       	brcc	.+16     	; 0x32ee <_ZN11interpreter3cmpEcc+0x44>
    32de:	89 81       	ldd	r24, Y+1	; 0x01
    32e0:	9a 81       	ldd	r25, Y+2	; 0x02
    32e2:	8f 5d       	subi	r24, 0xDF	; 223
    32e4:	9e 4f       	sbci	r25, 0xFE	; 254
    32e6:	41 e0       	ldi	r20, 0x01	; 1
    32e8:	61 e0       	ldi	r22, 0x01	; 1
    32ea:	0e 94 84 01 	call	0x308	; 0x308 <_ZN11interpreter8cpuflags7setflagENS0_8bitflagsEb>
    32ee:	9b 81       	ldd	r25, Y+3	; 0x03
    32f0:	8c 81       	ldd	r24, Y+4	; 0x04
    32f2:	98 17       	cp	r25, r24
    32f4:	40 f4       	brcc	.+16     	; 0x3306 <_ZN11interpreter3cmpEcc+0x5c>
    32f6:	89 81       	ldd	r24, Y+1	; 0x01
    32f8:	9a 81       	ldd	r25, Y+2	; 0x02
    32fa:	8f 5d       	subi	r24, 0xDF	; 223
    32fc:	9e 4f       	sbci	r25, 0xFE	; 254
    32fe:	41 e0       	ldi	r20, 0x01	; 1
    3300:	62 e0       	ldi	r22, 0x02	; 2
    3302:	0e 94 84 01 	call	0x308	; 0x308 <_ZN11interpreter8cpuflags7setflagENS0_8bitflagsEb>
    3306:	00 00       	nop
    3308:	0f 90       	pop	r0
    330a:	0f 90       	pop	r0
    330c:	0f 90       	pop	r0
    330e:	0f 90       	pop	r0
    3310:	df 91       	pop	r29
    3312:	cf 91       	pop	r28
    3314:	08 95       	ret

00003316 <_ZN11interpreter3cpiEcc>:
    3316:	cf 93       	push	r28
    3318:	df 93       	push	r29
    331a:	00 d0       	rcall	.+0      	; 0x331c <_ZN11interpreter3cpiEcc+0x6>
    331c:	00 d0       	rcall	.+0      	; 0x331e <_ZN11interpreter3cpiEcc+0x8>
    331e:	cd b7       	in	r28, 0x3d	; 61
    3320:	de b7       	in	r29, 0x3e	; 62
    3322:	9a 83       	std	Y+2, r25	; 0x02
    3324:	89 83       	std	Y+1, r24	; 0x01
    3326:	6b 83       	std	Y+3, r22	; 0x03
    3328:	4c 83       	std	Y+4, r20	; 0x04
    332a:	9b 81       	ldd	r25, Y+3	; 0x03
    332c:	8c 81       	ldd	r24, Y+4	; 0x04
    332e:	98 17       	cp	r25, r24
    3330:	41 f4       	brne	.+16     	; 0x3342 <_ZN11interpreter3cpiEcc+0x2c>
    3332:	89 81       	ldd	r24, Y+1	; 0x01
    3334:	9a 81       	ldd	r25, Y+2	; 0x02
    3336:	8f 5d       	subi	r24, 0xDF	; 223
    3338:	9e 4f       	sbci	r25, 0xFE	; 254
    333a:	41 e0       	ldi	r20, 0x01	; 1
    333c:	63 e0       	ldi	r22, 0x03	; 3
    333e:	0e 94 84 01 	call	0x308	; 0x308 <_ZN11interpreter8cpuflags7setflagENS0_8bitflagsEb>
    3342:	9b 81       	ldd	r25, Y+3	; 0x03
    3344:	8c 81       	ldd	r24, Y+4	; 0x04
    3346:	89 17       	cp	r24, r25
    3348:	40 f4       	brcc	.+16     	; 0x335a <_ZN11interpreter3cpiEcc+0x44>
    334a:	89 81       	ldd	r24, Y+1	; 0x01
    334c:	9a 81       	ldd	r25, Y+2	; 0x02
    334e:	8f 5d       	subi	r24, 0xDF	; 223
    3350:	9e 4f       	sbci	r25, 0xFE	; 254
    3352:	41 e0       	ldi	r20, 0x01	; 1
    3354:	61 e0       	ldi	r22, 0x01	; 1
    3356:	0e 94 84 01 	call	0x308	; 0x308 <_ZN11interpreter8cpuflags7setflagENS0_8bitflagsEb>
    335a:	9b 81       	ldd	r25, Y+3	; 0x03
    335c:	8c 81       	ldd	r24, Y+4	; 0x04
    335e:	98 17       	cp	r25, r24
    3360:	40 f4       	brcc	.+16     	; 0x3372 <_ZN11interpreter3cpiEcc+0x5c>
    3362:	89 81       	ldd	r24, Y+1	; 0x01
    3364:	9a 81       	ldd	r25, Y+2	; 0x02
    3366:	8f 5d       	subi	r24, 0xDF	; 223
    3368:	9e 4f       	sbci	r25, 0xFE	; 254
    336a:	41 e0       	ldi	r20, 0x01	; 1
    336c:	62 e0       	ldi	r22, 0x02	; 2
    336e:	0e 94 84 01 	call	0x308	; 0x308 <_ZN11interpreter8cpuflags7setflagENS0_8bitflagsEb>
    3372:	00 00       	nop
    3374:	0f 90       	pop	r0
    3376:	0f 90       	pop	r0
    3378:	0f 90       	pop	r0
    337a:	0f 90       	pop	r0
    337c:	df 91       	pop	r29
    337e:	cf 91       	pop	r28
    3380:	08 95       	ret

00003382 <_ZN11interpreter3rorEc>:
    3382:	cf 93       	push	r28
    3384:	df 93       	push	r29
    3386:	00 d0       	rcall	.+0      	; 0x3388 <_ZN11interpreter3rorEc+0x6>
    3388:	1f 92       	push	r1
    338a:	cd b7       	in	r28, 0x3d	; 61
    338c:	de b7       	in	r29, 0x3e	; 62
    338e:	9a 83       	std	Y+2, r25	; 0x02
    3390:	89 83       	std	Y+1, r24	; 0x01
    3392:	6b 83       	std	Y+3, r22	; 0x03
    3394:	8b 81       	ldd	r24, Y+3	; 0x03
    3396:	88 2f       	mov	r24, r24
    3398:	90 e0       	ldi	r25, 0x00	; 0
    339a:	2b 81       	ldd	r18, Y+3	; 0x03
    339c:	22 2f       	mov	r18, r18
    339e:	30 e0       	ldi	r19, 0x00	; 0
    33a0:	49 81       	ldd	r20, Y+1	; 0x01
    33a2:	5a 81       	ldd	r21, Y+2	; 0x02
    33a4:	24 0f       	add	r18, r20
    33a6:	35 1f       	adc	r19, r21
    33a8:	f9 01       	movw	r30, r18
    33aa:	20 81       	ld	r18, Z
    33ac:	22 2f       	mov	r18, r18
    33ae:	30 e0       	ldi	r19, 0x00	; 0
    33b0:	35 95       	asr	r19
    33b2:	27 95       	ror	r18
    33b4:	42 2f       	mov	r20, r18
    33b6:	29 81       	ldd	r18, Y+1	; 0x01
    33b8:	3a 81       	ldd	r19, Y+2	; 0x02
    33ba:	82 0f       	add	r24, r18
    33bc:	93 1f       	adc	r25, r19
    33be:	fc 01       	movw	r30, r24
    33c0:	40 83       	st	Z, r20
    33c2:	00 00       	nop
    33c4:	0f 90       	pop	r0
    33c6:	0f 90       	pop	r0
    33c8:	0f 90       	pop	r0
    33ca:	df 91       	pop	r29
    33cc:	cf 91       	pop	r28
    33ce:	08 95       	ret

000033d0 <_ZN11interpreter3rolEc>:
    33d0:	cf 93       	push	r28
    33d2:	df 93       	push	r29
    33d4:	00 d0       	rcall	.+0      	; 0x33d6 <_ZN11interpreter3rolEc+0x6>
    33d6:	1f 92       	push	r1
    33d8:	cd b7       	in	r28, 0x3d	; 61
    33da:	de b7       	in	r29, 0x3e	; 62
    33dc:	9a 83       	std	Y+2, r25	; 0x02
    33de:	89 83       	std	Y+1, r24	; 0x01
    33e0:	6b 83       	std	Y+3, r22	; 0x03
    33e2:	8b 81       	ldd	r24, Y+3	; 0x03
    33e4:	88 2f       	mov	r24, r24
    33e6:	90 e0       	ldi	r25, 0x00	; 0
    33e8:	2b 81       	ldd	r18, Y+3	; 0x03
    33ea:	22 2f       	mov	r18, r18
    33ec:	30 e0       	ldi	r19, 0x00	; 0
    33ee:	49 81       	ldd	r20, Y+1	; 0x01
    33f0:	5a 81       	ldd	r21, Y+2	; 0x02
    33f2:	24 0f       	add	r18, r20
    33f4:	35 1f       	adc	r19, r21
    33f6:	f9 01       	movw	r30, r18
    33f8:	20 81       	ld	r18, Z
    33fa:	42 2f       	mov	r20, r18
    33fc:	44 0f       	add	r20, r20
    33fe:	29 81       	ldd	r18, Y+1	; 0x01
    3400:	3a 81       	ldd	r19, Y+2	; 0x02
    3402:	82 0f       	add	r24, r18
    3404:	93 1f       	adc	r25, r19
    3406:	fc 01       	movw	r30, r24
    3408:	40 83       	st	Z, r20
    340a:	00 00       	nop
    340c:	0f 90       	pop	r0
    340e:	0f 90       	pop	r0
    3410:	0f 90       	pop	r0
    3412:	df 91       	pop	r29
    3414:	cf 91       	pop	r28
    3416:	08 95       	ret

00003418 <_ZN11interpreter4breqEj>:
    3418:	cf 93       	push	r28
    341a:	df 93       	push	r29
    341c:	00 d0       	rcall	.+0      	; 0x341e <_ZN11interpreter4breqEj+0x6>
    341e:	00 d0       	rcall	.+0      	; 0x3420 <_ZN11interpreter4breqEj+0x8>
    3420:	cd b7       	in	r28, 0x3d	; 61
    3422:	de b7       	in	r29, 0x3e	; 62
    3424:	9a 83       	std	Y+2, r25	; 0x02
    3426:	89 83       	std	Y+1, r24	; 0x01
    3428:	7c 83       	std	Y+4, r23	; 0x04
    342a:	6b 83       	std	Y+3, r22	; 0x03
    342c:	89 81       	ldd	r24, Y+1	; 0x01
    342e:	9a 81       	ldd	r25, Y+2	; 0x02
    3430:	8f 5d       	subi	r24, 0xDF	; 223
    3432:	9e 4f       	sbci	r25, 0xFE	; 254
    3434:	63 e0       	ldi	r22, 0x03	; 3
    3436:	0e 94 66 01 	call	0x2cc	; 0x2cc <_ZN11interpreter8cpuflags7getflagENS0_8bitflagsE>
    343a:	98 2f       	mov	r25, r24
    343c:	81 e0       	ldi	r24, 0x01	; 1
    343e:	91 30       	cpi	r25, 0x01	; 1
    3440:	09 f0       	breq	.+2      	; 0x3444 <_ZN11interpreter4breqEj+0x2c>
    3442:	80 e0       	ldi	r24, 0x00	; 0
    3444:	88 23       	and	r24, r24
    3446:	39 f0       	breq	.+14     	; 0x3456 <_ZN11interpreter4breqEj+0x3e>
    3448:	2b 81       	ldd	r18, Y+3	; 0x03
    344a:	3c 81       	ldd	r19, Y+4	; 0x04
    344c:	89 81       	ldd	r24, Y+1	; 0x01
    344e:	9a 81       	ldd	r25, Y+2	; 0x02
    3450:	b9 01       	movw	r22, r18
    3452:	0e 94 41 1e 	call	0x3c82	; 0x3c82 <_ZN11interpreter3jmpEj>
    3456:	00 00       	nop
    3458:	0f 90       	pop	r0
    345a:	0f 90       	pop	r0
    345c:	0f 90       	pop	r0
    345e:	0f 90       	pop	r0
    3460:	df 91       	pop	r29
    3462:	cf 91       	pop	r28
    3464:	08 95       	ret

00003466 <_ZN11interpreter7breqpcfEj>:
    3466:	cf 93       	push	r28
    3468:	df 93       	push	r29
    346a:	00 d0       	rcall	.+0      	; 0x346c <_ZN11interpreter7breqpcfEj+0x6>
    346c:	00 d0       	rcall	.+0      	; 0x346e <_ZN11interpreter7breqpcfEj+0x8>
    346e:	cd b7       	in	r28, 0x3d	; 61
    3470:	de b7       	in	r29, 0x3e	; 62
    3472:	9a 83       	std	Y+2, r25	; 0x02
    3474:	89 83       	std	Y+1, r24	; 0x01
    3476:	7c 83       	std	Y+4, r23	; 0x04
    3478:	6b 83       	std	Y+3, r22	; 0x03
    347a:	89 81       	ldd	r24, Y+1	; 0x01
    347c:	9a 81       	ldd	r25, Y+2	; 0x02
    347e:	8f 5d       	subi	r24, 0xDF	; 223
    3480:	9e 4f       	sbci	r25, 0xFE	; 254
    3482:	63 e0       	ldi	r22, 0x03	; 3
    3484:	0e 94 66 01 	call	0x2cc	; 0x2cc <_ZN11interpreter8cpuflags7getflagENS0_8bitflagsE>
    3488:	98 2f       	mov	r25, r24
    348a:	81 e0       	ldi	r24, 0x01	; 1
    348c:	91 30       	cpi	r25, 0x01	; 1
    348e:	09 f0       	breq	.+2      	; 0x3492 <_ZN11interpreter7breqpcfEj+0x2c>
    3490:	80 e0       	ldi	r24, 0x00	; 0
    3492:	88 23       	and	r24, r24
    3494:	81 f0       	breq	.+32     	; 0x34b6 <_ZN11interpreter7breqpcfEj+0x50>
    3496:	89 81       	ldd	r24, Y+1	; 0x01
    3498:	9a 81       	ldd	r25, Y+2	; 0x02
    349a:	87 5e       	subi	r24, 0xE7	; 231
    349c:	9e 4f       	sbci	r25, 0xFE	; 254
    349e:	fc 01       	movw	r30, r24
    34a0:	20 81       	ld	r18, Z
    34a2:	31 81       	ldd	r19, Z+1	; 0x01
    34a4:	8b 81       	ldd	r24, Y+3	; 0x03
    34a6:	9c 81       	ldd	r25, Y+4	; 0x04
    34a8:	28 0f       	add	r18, r24
    34aa:	39 1f       	adc	r19, r25
    34ac:	89 81       	ldd	r24, Y+1	; 0x01
    34ae:	9a 81       	ldd	r25, Y+2	; 0x02
    34b0:	b9 01       	movw	r22, r18
    34b2:	0e 94 41 1e 	call	0x3c82	; 0x3c82 <_ZN11interpreter3jmpEj>
    34b6:	00 00       	nop
    34b8:	0f 90       	pop	r0
    34ba:	0f 90       	pop	r0
    34bc:	0f 90       	pop	r0
    34be:	0f 90       	pop	r0
    34c0:	df 91       	pop	r29
    34c2:	cf 91       	pop	r28
    34c4:	08 95       	ret

000034c6 <_ZN11interpreter7breqpcbEj>:
    34c6:	cf 93       	push	r28
    34c8:	df 93       	push	r29
    34ca:	00 d0       	rcall	.+0      	; 0x34cc <_ZN11interpreter7breqpcbEj+0x6>
    34cc:	00 d0       	rcall	.+0      	; 0x34ce <_ZN11interpreter7breqpcbEj+0x8>
    34ce:	cd b7       	in	r28, 0x3d	; 61
    34d0:	de b7       	in	r29, 0x3e	; 62
    34d2:	9a 83       	std	Y+2, r25	; 0x02
    34d4:	89 83       	std	Y+1, r24	; 0x01
    34d6:	7c 83       	std	Y+4, r23	; 0x04
    34d8:	6b 83       	std	Y+3, r22	; 0x03
    34da:	89 81       	ldd	r24, Y+1	; 0x01
    34dc:	9a 81       	ldd	r25, Y+2	; 0x02
    34de:	8f 5d       	subi	r24, 0xDF	; 223
    34e0:	9e 4f       	sbci	r25, 0xFE	; 254
    34e2:	63 e0       	ldi	r22, 0x03	; 3
    34e4:	0e 94 66 01 	call	0x2cc	; 0x2cc <_ZN11interpreter8cpuflags7getflagENS0_8bitflagsE>
    34e8:	98 2f       	mov	r25, r24
    34ea:	81 e0       	ldi	r24, 0x01	; 1
    34ec:	91 30       	cpi	r25, 0x01	; 1
    34ee:	09 f0       	breq	.+2      	; 0x34f2 <_ZN11interpreter7breqpcbEj+0x2c>
    34f0:	80 e0       	ldi	r24, 0x00	; 0
    34f2:	88 23       	and	r24, r24
    34f4:	81 f0       	breq	.+32     	; 0x3516 <_ZN11interpreter7breqpcbEj+0x50>
    34f6:	89 81       	ldd	r24, Y+1	; 0x01
    34f8:	9a 81       	ldd	r25, Y+2	; 0x02
    34fa:	87 5e       	subi	r24, 0xE7	; 231
    34fc:	9e 4f       	sbci	r25, 0xFE	; 254
    34fe:	fc 01       	movw	r30, r24
    3500:	20 81       	ld	r18, Z
    3502:	31 81       	ldd	r19, Z+1	; 0x01
    3504:	8b 81       	ldd	r24, Y+3	; 0x03
    3506:	9c 81       	ldd	r25, Y+4	; 0x04
    3508:	28 1b       	sub	r18, r24
    350a:	39 0b       	sbc	r19, r25
    350c:	89 81       	ldd	r24, Y+1	; 0x01
    350e:	9a 81       	ldd	r25, Y+2	; 0x02
    3510:	b9 01       	movw	r22, r18
    3512:	0e 94 41 1e 	call	0x3c82	; 0x3c82 <_ZN11interpreter3jmpEj>
    3516:	00 00       	nop
    3518:	0f 90       	pop	r0
    351a:	0f 90       	pop	r0
    351c:	0f 90       	pop	r0
    351e:	0f 90       	pop	r0
    3520:	df 91       	pop	r29
    3522:	cf 91       	pop	r28
    3524:	08 95       	ret

00003526 <_ZN11interpreter4brneEj>:
    3526:	cf 93       	push	r28
    3528:	df 93       	push	r29
    352a:	00 d0       	rcall	.+0      	; 0x352c <_ZN11interpreter4brneEj+0x6>
    352c:	00 d0       	rcall	.+0      	; 0x352e <_ZN11interpreter4brneEj+0x8>
    352e:	cd b7       	in	r28, 0x3d	; 61
    3530:	de b7       	in	r29, 0x3e	; 62
    3532:	9a 83       	std	Y+2, r25	; 0x02
    3534:	89 83       	std	Y+1, r24	; 0x01
    3536:	7c 83       	std	Y+4, r23	; 0x04
    3538:	6b 83       	std	Y+3, r22	; 0x03
    353a:	89 81       	ldd	r24, Y+1	; 0x01
    353c:	9a 81       	ldd	r25, Y+2	; 0x02
    353e:	8f 5d       	subi	r24, 0xDF	; 223
    3540:	9e 4f       	sbci	r25, 0xFE	; 254
    3542:	63 e0       	ldi	r22, 0x03	; 3
    3544:	0e 94 66 01 	call	0x2cc	; 0x2cc <_ZN11interpreter8cpuflags7getflagENS0_8bitflagsE>
    3548:	88 23       	and	r24, r24
    354a:	a1 f4       	brne	.+40     	; 0x3574 <_ZN11interpreter4brneEj+0x4e>
    354c:	89 81       	ldd	r24, Y+1	; 0x01
    354e:	9a 81       	ldd	r25, Y+2	; 0x02
    3550:	8f 5d       	subi	r24, 0xDF	; 223
    3552:	9e 4f       	sbci	r25, 0xFE	; 254
    3554:	61 e0       	ldi	r22, 0x01	; 1
    3556:	0e 94 66 01 	call	0x2cc	; 0x2cc <_ZN11interpreter8cpuflags7getflagENS0_8bitflagsE>
    355a:	81 30       	cpi	r24, 0x01	; 1
    355c:	49 f0       	breq	.+18     	; 0x3570 <_ZN11interpreter4brneEj+0x4a>
    355e:	89 81       	ldd	r24, Y+1	; 0x01
    3560:	9a 81       	ldd	r25, Y+2	; 0x02
    3562:	8f 5d       	subi	r24, 0xDF	; 223
    3564:	9e 4f       	sbci	r25, 0xFE	; 254
    3566:	62 e0       	ldi	r22, 0x02	; 2
    3568:	0e 94 66 01 	call	0x2cc	; 0x2cc <_ZN11interpreter8cpuflags7getflagENS0_8bitflagsE>
    356c:	81 30       	cpi	r24, 0x01	; 1
    356e:	11 f4       	brne	.+4      	; 0x3574 <_ZN11interpreter4brneEj+0x4e>
    3570:	81 e0       	ldi	r24, 0x01	; 1
    3572:	01 c0       	rjmp	.+2      	; 0x3576 <_ZN11interpreter4brneEj+0x50>
    3574:	80 e0       	ldi	r24, 0x00	; 0
    3576:	88 23       	and	r24, r24
    3578:	39 f0       	breq	.+14     	; 0x3588 <_ZN11interpreter4brneEj+0x62>
    357a:	2b 81       	ldd	r18, Y+3	; 0x03
    357c:	3c 81       	ldd	r19, Y+4	; 0x04
    357e:	89 81       	ldd	r24, Y+1	; 0x01
    3580:	9a 81       	ldd	r25, Y+2	; 0x02
    3582:	b9 01       	movw	r22, r18
    3584:	0e 94 41 1e 	call	0x3c82	; 0x3c82 <_ZN11interpreter3jmpEj>
    3588:	00 00       	nop
    358a:	0f 90       	pop	r0
    358c:	0f 90       	pop	r0
    358e:	0f 90       	pop	r0
    3590:	0f 90       	pop	r0
    3592:	df 91       	pop	r29
    3594:	cf 91       	pop	r28
    3596:	08 95       	ret

00003598 <_ZN11interpreter7brnepcfEj>:
    3598:	cf 93       	push	r28
    359a:	df 93       	push	r29
    359c:	00 d0       	rcall	.+0      	; 0x359e <_ZN11interpreter7brnepcfEj+0x6>
    359e:	00 d0       	rcall	.+0      	; 0x35a0 <_ZN11interpreter7brnepcfEj+0x8>
    35a0:	cd b7       	in	r28, 0x3d	; 61
    35a2:	de b7       	in	r29, 0x3e	; 62
    35a4:	9a 83       	std	Y+2, r25	; 0x02
    35a6:	89 83       	std	Y+1, r24	; 0x01
    35a8:	7c 83       	std	Y+4, r23	; 0x04
    35aa:	6b 83       	std	Y+3, r22	; 0x03
    35ac:	89 81       	ldd	r24, Y+1	; 0x01
    35ae:	9a 81       	ldd	r25, Y+2	; 0x02
    35b0:	8f 5d       	subi	r24, 0xDF	; 223
    35b2:	9e 4f       	sbci	r25, 0xFE	; 254
    35b4:	63 e0       	ldi	r22, 0x03	; 3
    35b6:	0e 94 66 01 	call	0x2cc	; 0x2cc <_ZN11interpreter8cpuflags7getflagENS0_8bitflagsE>
    35ba:	88 23       	and	r24, r24
    35bc:	a1 f4       	brne	.+40     	; 0x35e6 <_ZN11interpreter7brnepcfEj+0x4e>
    35be:	89 81       	ldd	r24, Y+1	; 0x01
    35c0:	9a 81       	ldd	r25, Y+2	; 0x02
    35c2:	8f 5d       	subi	r24, 0xDF	; 223
    35c4:	9e 4f       	sbci	r25, 0xFE	; 254
    35c6:	61 e0       	ldi	r22, 0x01	; 1
    35c8:	0e 94 66 01 	call	0x2cc	; 0x2cc <_ZN11interpreter8cpuflags7getflagENS0_8bitflagsE>
    35cc:	81 30       	cpi	r24, 0x01	; 1
    35ce:	49 f0       	breq	.+18     	; 0x35e2 <_ZN11interpreter7brnepcfEj+0x4a>
    35d0:	89 81       	ldd	r24, Y+1	; 0x01
    35d2:	9a 81       	ldd	r25, Y+2	; 0x02
    35d4:	8f 5d       	subi	r24, 0xDF	; 223
    35d6:	9e 4f       	sbci	r25, 0xFE	; 254
    35d8:	62 e0       	ldi	r22, 0x02	; 2
    35da:	0e 94 66 01 	call	0x2cc	; 0x2cc <_ZN11interpreter8cpuflags7getflagENS0_8bitflagsE>
    35de:	81 30       	cpi	r24, 0x01	; 1
    35e0:	11 f4       	brne	.+4      	; 0x35e6 <_ZN11interpreter7brnepcfEj+0x4e>
    35e2:	81 e0       	ldi	r24, 0x01	; 1
    35e4:	01 c0       	rjmp	.+2      	; 0x35e8 <_ZN11interpreter7brnepcfEj+0x50>
    35e6:	80 e0       	ldi	r24, 0x00	; 0
    35e8:	88 23       	and	r24, r24
    35ea:	81 f0       	breq	.+32     	; 0x360c <_ZN11interpreter7brnepcfEj+0x74>
    35ec:	89 81       	ldd	r24, Y+1	; 0x01
    35ee:	9a 81       	ldd	r25, Y+2	; 0x02
    35f0:	87 5e       	subi	r24, 0xE7	; 231
    35f2:	9e 4f       	sbci	r25, 0xFE	; 254
    35f4:	fc 01       	movw	r30, r24
    35f6:	20 81       	ld	r18, Z
    35f8:	31 81       	ldd	r19, Z+1	; 0x01
    35fa:	8b 81       	ldd	r24, Y+3	; 0x03
    35fc:	9c 81       	ldd	r25, Y+4	; 0x04
    35fe:	28 0f       	add	r18, r24
    3600:	39 1f       	adc	r19, r25
    3602:	89 81       	ldd	r24, Y+1	; 0x01
    3604:	9a 81       	ldd	r25, Y+2	; 0x02
    3606:	b9 01       	movw	r22, r18
    3608:	0e 94 41 1e 	call	0x3c82	; 0x3c82 <_ZN11interpreter3jmpEj>
    360c:	00 00       	nop
    360e:	0f 90       	pop	r0
    3610:	0f 90       	pop	r0
    3612:	0f 90       	pop	r0
    3614:	0f 90       	pop	r0
    3616:	df 91       	pop	r29
    3618:	cf 91       	pop	r28
    361a:	08 95       	ret

0000361c <_ZN11interpreter7brnepcbEj>:
    361c:	cf 93       	push	r28
    361e:	df 93       	push	r29
    3620:	00 d0       	rcall	.+0      	; 0x3622 <_ZN11interpreter7brnepcbEj+0x6>
    3622:	00 d0       	rcall	.+0      	; 0x3624 <_ZN11interpreter7brnepcbEj+0x8>
    3624:	cd b7       	in	r28, 0x3d	; 61
    3626:	de b7       	in	r29, 0x3e	; 62
    3628:	9a 83       	std	Y+2, r25	; 0x02
    362a:	89 83       	std	Y+1, r24	; 0x01
    362c:	7c 83       	std	Y+4, r23	; 0x04
    362e:	6b 83       	std	Y+3, r22	; 0x03
    3630:	89 81       	ldd	r24, Y+1	; 0x01
    3632:	9a 81       	ldd	r25, Y+2	; 0x02
    3634:	8f 5d       	subi	r24, 0xDF	; 223
    3636:	9e 4f       	sbci	r25, 0xFE	; 254
    3638:	63 e0       	ldi	r22, 0x03	; 3
    363a:	0e 94 66 01 	call	0x2cc	; 0x2cc <_ZN11interpreter8cpuflags7getflagENS0_8bitflagsE>
    363e:	88 23       	and	r24, r24
    3640:	a1 f4       	brne	.+40     	; 0x366a <_ZN11interpreter7brnepcbEj+0x4e>
    3642:	89 81       	ldd	r24, Y+1	; 0x01
    3644:	9a 81       	ldd	r25, Y+2	; 0x02
    3646:	8f 5d       	subi	r24, 0xDF	; 223
    3648:	9e 4f       	sbci	r25, 0xFE	; 254
    364a:	61 e0       	ldi	r22, 0x01	; 1
    364c:	0e 94 66 01 	call	0x2cc	; 0x2cc <_ZN11interpreter8cpuflags7getflagENS0_8bitflagsE>
    3650:	81 30       	cpi	r24, 0x01	; 1
    3652:	49 f0       	breq	.+18     	; 0x3666 <_ZN11interpreter7brnepcbEj+0x4a>
    3654:	89 81       	ldd	r24, Y+1	; 0x01
    3656:	9a 81       	ldd	r25, Y+2	; 0x02
    3658:	8f 5d       	subi	r24, 0xDF	; 223
    365a:	9e 4f       	sbci	r25, 0xFE	; 254
    365c:	62 e0       	ldi	r22, 0x02	; 2
    365e:	0e 94 66 01 	call	0x2cc	; 0x2cc <_ZN11interpreter8cpuflags7getflagENS0_8bitflagsE>
    3662:	81 30       	cpi	r24, 0x01	; 1
    3664:	11 f4       	brne	.+4      	; 0x366a <_ZN11interpreter7brnepcbEj+0x4e>
    3666:	81 e0       	ldi	r24, 0x01	; 1
    3668:	01 c0       	rjmp	.+2      	; 0x366c <_ZN11interpreter7brnepcbEj+0x50>
    366a:	80 e0       	ldi	r24, 0x00	; 0
    366c:	88 23       	and	r24, r24
    366e:	81 f0       	breq	.+32     	; 0x3690 <_ZN11interpreter7brnepcbEj+0x74>
    3670:	89 81       	ldd	r24, Y+1	; 0x01
    3672:	9a 81       	ldd	r25, Y+2	; 0x02
    3674:	87 5e       	subi	r24, 0xE7	; 231
    3676:	9e 4f       	sbci	r25, 0xFE	; 254
    3678:	fc 01       	movw	r30, r24
    367a:	20 81       	ld	r18, Z
    367c:	31 81       	ldd	r19, Z+1	; 0x01
    367e:	8b 81       	ldd	r24, Y+3	; 0x03
    3680:	9c 81       	ldd	r25, Y+4	; 0x04
    3682:	28 1b       	sub	r18, r24
    3684:	39 0b       	sbc	r19, r25
    3686:	89 81       	ldd	r24, Y+1	; 0x01
    3688:	9a 81       	ldd	r25, Y+2	; 0x02
    368a:	b9 01       	movw	r22, r18
    368c:	0e 94 41 1e 	call	0x3c82	; 0x3c82 <_ZN11interpreter3jmpEj>
    3690:	00 00       	nop
    3692:	0f 90       	pop	r0
    3694:	0f 90       	pop	r0
    3696:	0f 90       	pop	r0
    3698:	0f 90       	pop	r0
    369a:	df 91       	pop	r29
    369c:	cf 91       	pop	r28
    369e:	08 95       	ret

000036a0 <_ZN11interpreter4brgeEj>:
    36a0:	cf 93       	push	r28
    36a2:	df 93       	push	r29
    36a4:	00 d0       	rcall	.+0      	; 0x36a6 <_ZN11interpreter4brgeEj+0x6>
    36a6:	00 d0       	rcall	.+0      	; 0x36a8 <_ZN11interpreter4brgeEj+0x8>
    36a8:	cd b7       	in	r28, 0x3d	; 61
    36aa:	de b7       	in	r29, 0x3e	; 62
    36ac:	9a 83       	std	Y+2, r25	; 0x02
    36ae:	89 83       	std	Y+1, r24	; 0x01
    36b0:	7c 83       	std	Y+4, r23	; 0x04
    36b2:	6b 83       	std	Y+3, r22	; 0x03
    36b4:	89 81       	ldd	r24, Y+1	; 0x01
    36b6:	9a 81       	ldd	r25, Y+2	; 0x02
    36b8:	8f 5d       	subi	r24, 0xDF	; 223
    36ba:	9e 4f       	sbci	r25, 0xFE	; 254
    36bc:	63 e0       	ldi	r22, 0x03	; 3
    36be:	0e 94 66 01 	call	0x2cc	; 0x2cc <_ZN11interpreter8cpuflags7getflagENS0_8bitflagsE>
    36c2:	88 23       	and	r24, r24
    36c4:	49 f4       	brne	.+18     	; 0x36d8 <_ZN11interpreter4brgeEj+0x38>
    36c6:	89 81       	ldd	r24, Y+1	; 0x01
    36c8:	9a 81       	ldd	r25, Y+2	; 0x02
    36ca:	8f 5d       	subi	r24, 0xDF	; 223
    36cc:	9e 4f       	sbci	r25, 0xFE	; 254
    36ce:	61 e0       	ldi	r22, 0x01	; 1
    36d0:	0e 94 66 01 	call	0x2cc	; 0x2cc <_ZN11interpreter8cpuflags7getflagENS0_8bitflagsE>
    36d4:	88 23       	and	r24, r24
    36d6:	11 f0       	breq	.+4      	; 0x36dc <_ZN11interpreter4brgeEj+0x3c>
    36d8:	81 e0       	ldi	r24, 0x01	; 1
    36da:	01 c0       	rjmp	.+2      	; 0x36de <_ZN11interpreter4brgeEj+0x3e>
    36dc:	80 e0       	ldi	r24, 0x00	; 0
    36de:	88 23       	and	r24, r24
    36e0:	39 f0       	breq	.+14     	; 0x36f0 <_ZN11interpreter4brgeEj+0x50>
    36e2:	2b 81       	ldd	r18, Y+3	; 0x03
    36e4:	3c 81       	ldd	r19, Y+4	; 0x04
    36e6:	89 81       	ldd	r24, Y+1	; 0x01
    36e8:	9a 81       	ldd	r25, Y+2	; 0x02
    36ea:	b9 01       	movw	r22, r18
    36ec:	0e 94 41 1e 	call	0x3c82	; 0x3c82 <_ZN11interpreter3jmpEj>
    36f0:	00 00       	nop
    36f2:	0f 90       	pop	r0
    36f4:	0f 90       	pop	r0
    36f6:	0f 90       	pop	r0
    36f8:	0f 90       	pop	r0
    36fa:	df 91       	pop	r29
    36fc:	cf 91       	pop	r28
    36fe:	08 95       	ret

00003700 <_ZN11interpreter7brgepcfEj>:
    3700:	cf 93       	push	r28
    3702:	df 93       	push	r29
    3704:	00 d0       	rcall	.+0      	; 0x3706 <_ZN11interpreter7brgepcfEj+0x6>
    3706:	00 d0       	rcall	.+0      	; 0x3708 <_ZN11interpreter7brgepcfEj+0x8>
    3708:	cd b7       	in	r28, 0x3d	; 61
    370a:	de b7       	in	r29, 0x3e	; 62
    370c:	9a 83       	std	Y+2, r25	; 0x02
    370e:	89 83       	std	Y+1, r24	; 0x01
    3710:	7c 83       	std	Y+4, r23	; 0x04
    3712:	6b 83       	std	Y+3, r22	; 0x03
    3714:	89 81       	ldd	r24, Y+1	; 0x01
    3716:	9a 81       	ldd	r25, Y+2	; 0x02
    3718:	8f 5d       	subi	r24, 0xDF	; 223
    371a:	9e 4f       	sbci	r25, 0xFE	; 254
    371c:	63 e0       	ldi	r22, 0x03	; 3
    371e:	0e 94 66 01 	call	0x2cc	; 0x2cc <_ZN11interpreter8cpuflags7getflagENS0_8bitflagsE>
    3722:	88 23       	and	r24, r24
    3724:	49 f4       	brne	.+18     	; 0x3738 <_ZN11interpreter7brgepcfEj+0x38>
    3726:	89 81       	ldd	r24, Y+1	; 0x01
    3728:	9a 81       	ldd	r25, Y+2	; 0x02
    372a:	8f 5d       	subi	r24, 0xDF	; 223
    372c:	9e 4f       	sbci	r25, 0xFE	; 254
    372e:	61 e0       	ldi	r22, 0x01	; 1
    3730:	0e 94 66 01 	call	0x2cc	; 0x2cc <_ZN11interpreter8cpuflags7getflagENS0_8bitflagsE>
    3734:	88 23       	and	r24, r24
    3736:	11 f0       	breq	.+4      	; 0x373c <_ZN11interpreter7brgepcfEj+0x3c>
    3738:	81 e0       	ldi	r24, 0x01	; 1
    373a:	01 c0       	rjmp	.+2      	; 0x373e <_ZN11interpreter7brgepcfEj+0x3e>
    373c:	80 e0       	ldi	r24, 0x00	; 0
    373e:	88 23       	and	r24, r24
    3740:	81 f0       	breq	.+32     	; 0x3762 <_ZN11interpreter7brgepcfEj+0x62>
    3742:	89 81       	ldd	r24, Y+1	; 0x01
    3744:	9a 81       	ldd	r25, Y+2	; 0x02
    3746:	87 5e       	subi	r24, 0xE7	; 231
    3748:	9e 4f       	sbci	r25, 0xFE	; 254
    374a:	fc 01       	movw	r30, r24
    374c:	20 81       	ld	r18, Z
    374e:	31 81       	ldd	r19, Z+1	; 0x01
    3750:	8b 81       	ldd	r24, Y+3	; 0x03
    3752:	9c 81       	ldd	r25, Y+4	; 0x04
    3754:	28 0f       	add	r18, r24
    3756:	39 1f       	adc	r19, r25
    3758:	89 81       	ldd	r24, Y+1	; 0x01
    375a:	9a 81       	ldd	r25, Y+2	; 0x02
    375c:	b9 01       	movw	r22, r18
    375e:	0e 94 41 1e 	call	0x3c82	; 0x3c82 <_ZN11interpreter3jmpEj>
    3762:	00 00       	nop
    3764:	0f 90       	pop	r0
    3766:	0f 90       	pop	r0
    3768:	0f 90       	pop	r0
    376a:	0f 90       	pop	r0
    376c:	df 91       	pop	r29
    376e:	cf 91       	pop	r28
    3770:	08 95       	ret

00003772 <_ZN11interpreter7brgepcbEj>:
    3772:	cf 93       	push	r28
    3774:	df 93       	push	r29
    3776:	00 d0       	rcall	.+0      	; 0x3778 <_ZN11interpreter7brgepcbEj+0x6>
    3778:	00 d0       	rcall	.+0      	; 0x377a <_ZN11interpreter7brgepcbEj+0x8>
    377a:	cd b7       	in	r28, 0x3d	; 61
    377c:	de b7       	in	r29, 0x3e	; 62
    377e:	9a 83       	std	Y+2, r25	; 0x02
    3780:	89 83       	std	Y+1, r24	; 0x01
    3782:	7c 83       	std	Y+4, r23	; 0x04
    3784:	6b 83       	std	Y+3, r22	; 0x03
    3786:	89 81       	ldd	r24, Y+1	; 0x01
    3788:	9a 81       	ldd	r25, Y+2	; 0x02
    378a:	8f 5d       	subi	r24, 0xDF	; 223
    378c:	9e 4f       	sbci	r25, 0xFE	; 254
    378e:	63 e0       	ldi	r22, 0x03	; 3
    3790:	0e 94 66 01 	call	0x2cc	; 0x2cc <_ZN11interpreter8cpuflags7getflagENS0_8bitflagsE>
    3794:	88 23       	and	r24, r24
    3796:	49 f4       	brne	.+18     	; 0x37aa <_ZN11interpreter7brgepcbEj+0x38>
    3798:	89 81       	ldd	r24, Y+1	; 0x01
    379a:	9a 81       	ldd	r25, Y+2	; 0x02
    379c:	8f 5d       	subi	r24, 0xDF	; 223
    379e:	9e 4f       	sbci	r25, 0xFE	; 254
    37a0:	61 e0       	ldi	r22, 0x01	; 1
    37a2:	0e 94 66 01 	call	0x2cc	; 0x2cc <_ZN11interpreter8cpuflags7getflagENS0_8bitflagsE>
    37a6:	88 23       	and	r24, r24
    37a8:	11 f0       	breq	.+4      	; 0x37ae <_ZN11interpreter7brgepcbEj+0x3c>
    37aa:	81 e0       	ldi	r24, 0x01	; 1
    37ac:	01 c0       	rjmp	.+2      	; 0x37b0 <_ZN11interpreter7brgepcbEj+0x3e>
    37ae:	80 e0       	ldi	r24, 0x00	; 0
    37b0:	88 23       	and	r24, r24
    37b2:	81 f0       	breq	.+32     	; 0x37d4 <_ZN11interpreter7brgepcbEj+0x62>
    37b4:	89 81       	ldd	r24, Y+1	; 0x01
    37b6:	9a 81       	ldd	r25, Y+2	; 0x02
    37b8:	87 5e       	subi	r24, 0xE7	; 231
    37ba:	9e 4f       	sbci	r25, 0xFE	; 254
    37bc:	fc 01       	movw	r30, r24
    37be:	20 81       	ld	r18, Z
    37c0:	31 81       	ldd	r19, Z+1	; 0x01
    37c2:	8b 81       	ldd	r24, Y+3	; 0x03
    37c4:	9c 81       	ldd	r25, Y+4	; 0x04
    37c6:	28 1b       	sub	r18, r24
    37c8:	39 0b       	sbc	r19, r25
    37ca:	89 81       	ldd	r24, Y+1	; 0x01
    37cc:	9a 81       	ldd	r25, Y+2	; 0x02
    37ce:	b9 01       	movw	r22, r18
    37d0:	0e 94 41 1e 	call	0x3c82	; 0x3c82 <_ZN11interpreter3jmpEj>
    37d4:	00 00       	nop
    37d6:	0f 90       	pop	r0
    37d8:	0f 90       	pop	r0
    37da:	0f 90       	pop	r0
    37dc:	0f 90       	pop	r0
    37de:	df 91       	pop	r29
    37e0:	cf 91       	pop	r28
    37e2:	08 95       	ret

000037e4 <_ZN11interpreter4brleEj>:
    37e4:	cf 93       	push	r28
    37e6:	df 93       	push	r29
    37e8:	00 d0       	rcall	.+0      	; 0x37ea <_ZN11interpreter4brleEj+0x6>
    37ea:	00 d0       	rcall	.+0      	; 0x37ec <_ZN11interpreter4brleEj+0x8>
    37ec:	cd b7       	in	r28, 0x3d	; 61
    37ee:	de b7       	in	r29, 0x3e	; 62
    37f0:	9a 83       	std	Y+2, r25	; 0x02
    37f2:	89 83       	std	Y+1, r24	; 0x01
    37f4:	7c 83       	std	Y+4, r23	; 0x04
    37f6:	6b 83       	std	Y+3, r22	; 0x03
    37f8:	89 81       	ldd	r24, Y+1	; 0x01
    37fa:	9a 81       	ldd	r25, Y+2	; 0x02
    37fc:	8f 5d       	subi	r24, 0xDF	; 223
    37fe:	9e 4f       	sbci	r25, 0xFE	; 254
    3800:	63 e0       	ldi	r22, 0x03	; 3
    3802:	0e 94 66 01 	call	0x2cc	; 0x2cc <_ZN11interpreter8cpuflags7getflagENS0_8bitflagsE>
    3806:	88 23       	and	r24, r24
    3808:	49 f4       	brne	.+18     	; 0x381c <_ZN11interpreter4brleEj+0x38>
    380a:	89 81       	ldd	r24, Y+1	; 0x01
    380c:	9a 81       	ldd	r25, Y+2	; 0x02
    380e:	8f 5d       	subi	r24, 0xDF	; 223
    3810:	9e 4f       	sbci	r25, 0xFE	; 254
    3812:	62 e0       	ldi	r22, 0x02	; 2
    3814:	0e 94 66 01 	call	0x2cc	; 0x2cc <_ZN11interpreter8cpuflags7getflagENS0_8bitflagsE>
    3818:	88 23       	and	r24, r24
    381a:	11 f0       	breq	.+4      	; 0x3820 <_ZN11interpreter4brleEj+0x3c>
    381c:	81 e0       	ldi	r24, 0x01	; 1
    381e:	01 c0       	rjmp	.+2      	; 0x3822 <_ZN11interpreter4brleEj+0x3e>
    3820:	80 e0       	ldi	r24, 0x00	; 0
    3822:	88 23       	and	r24, r24
    3824:	39 f0       	breq	.+14     	; 0x3834 <_ZN11interpreter4brleEj+0x50>
    3826:	2b 81       	ldd	r18, Y+3	; 0x03
    3828:	3c 81       	ldd	r19, Y+4	; 0x04
    382a:	89 81       	ldd	r24, Y+1	; 0x01
    382c:	9a 81       	ldd	r25, Y+2	; 0x02
    382e:	b9 01       	movw	r22, r18
    3830:	0e 94 41 1e 	call	0x3c82	; 0x3c82 <_ZN11interpreter3jmpEj>
    3834:	00 00       	nop
    3836:	0f 90       	pop	r0
    3838:	0f 90       	pop	r0
    383a:	0f 90       	pop	r0
    383c:	0f 90       	pop	r0
    383e:	df 91       	pop	r29
    3840:	cf 91       	pop	r28
    3842:	08 95       	ret

00003844 <_ZN11interpreter7brlepcfEj>:
    3844:	cf 93       	push	r28
    3846:	df 93       	push	r29
    3848:	00 d0       	rcall	.+0      	; 0x384a <_ZN11interpreter7brlepcfEj+0x6>
    384a:	00 d0       	rcall	.+0      	; 0x384c <_ZN11interpreter7brlepcfEj+0x8>
    384c:	cd b7       	in	r28, 0x3d	; 61
    384e:	de b7       	in	r29, 0x3e	; 62
    3850:	9a 83       	std	Y+2, r25	; 0x02
    3852:	89 83       	std	Y+1, r24	; 0x01
    3854:	7c 83       	std	Y+4, r23	; 0x04
    3856:	6b 83       	std	Y+3, r22	; 0x03
    3858:	89 81       	ldd	r24, Y+1	; 0x01
    385a:	9a 81       	ldd	r25, Y+2	; 0x02
    385c:	8f 5d       	subi	r24, 0xDF	; 223
    385e:	9e 4f       	sbci	r25, 0xFE	; 254
    3860:	63 e0       	ldi	r22, 0x03	; 3
    3862:	0e 94 66 01 	call	0x2cc	; 0x2cc <_ZN11interpreter8cpuflags7getflagENS0_8bitflagsE>
    3866:	88 23       	and	r24, r24
    3868:	49 f4       	brne	.+18     	; 0x387c <_ZN11interpreter7brlepcfEj+0x38>
    386a:	89 81       	ldd	r24, Y+1	; 0x01
    386c:	9a 81       	ldd	r25, Y+2	; 0x02
    386e:	8f 5d       	subi	r24, 0xDF	; 223
    3870:	9e 4f       	sbci	r25, 0xFE	; 254
    3872:	62 e0       	ldi	r22, 0x02	; 2
    3874:	0e 94 66 01 	call	0x2cc	; 0x2cc <_ZN11interpreter8cpuflags7getflagENS0_8bitflagsE>
    3878:	88 23       	and	r24, r24
    387a:	11 f0       	breq	.+4      	; 0x3880 <_ZN11interpreter7brlepcfEj+0x3c>
    387c:	81 e0       	ldi	r24, 0x01	; 1
    387e:	01 c0       	rjmp	.+2      	; 0x3882 <_ZN11interpreter7brlepcfEj+0x3e>
    3880:	80 e0       	ldi	r24, 0x00	; 0
    3882:	88 23       	and	r24, r24
    3884:	81 f0       	breq	.+32     	; 0x38a6 <_ZN11interpreter7brlepcfEj+0x62>
    3886:	89 81       	ldd	r24, Y+1	; 0x01
    3888:	9a 81       	ldd	r25, Y+2	; 0x02
    388a:	87 5e       	subi	r24, 0xE7	; 231
    388c:	9e 4f       	sbci	r25, 0xFE	; 254
    388e:	fc 01       	movw	r30, r24
    3890:	20 81       	ld	r18, Z
    3892:	31 81       	ldd	r19, Z+1	; 0x01
    3894:	8b 81       	ldd	r24, Y+3	; 0x03
    3896:	9c 81       	ldd	r25, Y+4	; 0x04
    3898:	28 0f       	add	r18, r24
    389a:	39 1f       	adc	r19, r25
    389c:	89 81       	ldd	r24, Y+1	; 0x01
    389e:	9a 81       	ldd	r25, Y+2	; 0x02
    38a0:	b9 01       	movw	r22, r18
    38a2:	0e 94 41 1e 	call	0x3c82	; 0x3c82 <_ZN11interpreter3jmpEj>
    38a6:	00 00       	nop
    38a8:	0f 90       	pop	r0
    38aa:	0f 90       	pop	r0
    38ac:	0f 90       	pop	r0
    38ae:	0f 90       	pop	r0
    38b0:	df 91       	pop	r29
    38b2:	cf 91       	pop	r28
    38b4:	08 95       	ret

000038b6 <_ZN11interpreter7brlepcbEj>:
    38b6:	cf 93       	push	r28
    38b8:	df 93       	push	r29
    38ba:	00 d0       	rcall	.+0      	; 0x38bc <_ZN11interpreter7brlepcbEj+0x6>
    38bc:	00 d0       	rcall	.+0      	; 0x38be <_ZN11interpreter7brlepcbEj+0x8>
    38be:	cd b7       	in	r28, 0x3d	; 61
    38c0:	de b7       	in	r29, 0x3e	; 62
    38c2:	9a 83       	std	Y+2, r25	; 0x02
    38c4:	89 83       	std	Y+1, r24	; 0x01
    38c6:	7c 83       	std	Y+4, r23	; 0x04
    38c8:	6b 83       	std	Y+3, r22	; 0x03
    38ca:	89 81       	ldd	r24, Y+1	; 0x01
    38cc:	9a 81       	ldd	r25, Y+2	; 0x02
    38ce:	8f 5d       	subi	r24, 0xDF	; 223
    38d0:	9e 4f       	sbci	r25, 0xFE	; 254
    38d2:	63 e0       	ldi	r22, 0x03	; 3
    38d4:	0e 94 66 01 	call	0x2cc	; 0x2cc <_ZN11interpreter8cpuflags7getflagENS0_8bitflagsE>
    38d8:	88 23       	and	r24, r24
    38da:	49 f4       	brne	.+18     	; 0x38ee <_ZN11interpreter7brlepcbEj+0x38>
    38dc:	89 81       	ldd	r24, Y+1	; 0x01
    38de:	9a 81       	ldd	r25, Y+2	; 0x02
    38e0:	8f 5d       	subi	r24, 0xDF	; 223
    38e2:	9e 4f       	sbci	r25, 0xFE	; 254
    38e4:	62 e0       	ldi	r22, 0x02	; 2
    38e6:	0e 94 66 01 	call	0x2cc	; 0x2cc <_ZN11interpreter8cpuflags7getflagENS0_8bitflagsE>
    38ea:	88 23       	and	r24, r24
    38ec:	11 f0       	breq	.+4      	; 0x38f2 <_ZN11interpreter7brlepcbEj+0x3c>
    38ee:	81 e0       	ldi	r24, 0x01	; 1
    38f0:	01 c0       	rjmp	.+2      	; 0x38f4 <_ZN11interpreter7brlepcbEj+0x3e>
    38f2:	80 e0       	ldi	r24, 0x00	; 0
    38f4:	88 23       	and	r24, r24
    38f6:	81 f0       	breq	.+32     	; 0x3918 <_ZN11interpreter7brlepcbEj+0x62>
    38f8:	89 81       	ldd	r24, Y+1	; 0x01
    38fa:	9a 81       	ldd	r25, Y+2	; 0x02
    38fc:	87 5e       	subi	r24, 0xE7	; 231
    38fe:	9e 4f       	sbci	r25, 0xFE	; 254
    3900:	fc 01       	movw	r30, r24
    3902:	20 81       	ld	r18, Z
    3904:	31 81       	ldd	r19, Z+1	; 0x01
    3906:	8b 81       	ldd	r24, Y+3	; 0x03
    3908:	9c 81       	ldd	r25, Y+4	; 0x04
    390a:	28 1b       	sub	r18, r24
    390c:	39 0b       	sbc	r19, r25
    390e:	89 81       	ldd	r24, Y+1	; 0x01
    3910:	9a 81       	ldd	r25, Y+2	; 0x02
    3912:	b9 01       	movw	r22, r18
    3914:	0e 94 41 1e 	call	0x3c82	; 0x3c82 <_ZN11interpreter3jmpEj>
    3918:	00 00       	nop
    391a:	0f 90       	pop	r0
    391c:	0f 90       	pop	r0
    391e:	0f 90       	pop	r0
    3920:	0f 90       	pop	r0
    3922:	df 91       	pop	r29
    3924:	cf 91       	pop	r28
    3926:	08 95       	ret

00003928 <_ZN11interpreter3brgEj>:
    3928:	cf 93       	push	r28
    392a:	df 93       	push	r29
    392c:	00 d0       	rcall	.+0      	; 0x392e <_ZN11interpreter3brgEj+0x6>
    392e:	00 d0       	rcall	.+0      	; 0x3930 <_ZN11interpreter3brgEj+0x8>
    3930:	cd b7       	in	r28, 0x3d	; 61
    3932:	de b7       	in	r29, 0x3e	; 62
    3934:	9a 83       	std	Y+2, r25	; 0x02
    3936:	89 83       	std	Y+1, r24	; 0x01
    3938:	7c 83       	std	Y+4, r23	; 0x04
    393a:	6b 83       	std	Y+3, r22	; 0x03
    393c:	89 81       	ldd	r24, Y+1	; 0x01
    393e:	9a 81       	ldd	r25, Y+2	; 0x02
    3940:	8f 5d       	subi	r24, 0xDF	; 223
    3942:	9e 4f       	sbci	r25, 0xFE	; 254
    3944:	63 e0       	ldi	r22, 0x03	; 3
    3946:	0e 94 66 01 	call	0x2cc	; 0x2cc <_ZN11interpreter8cpuflags7getflagENS0_8bitflagsE>
    394a:	88 23       	and	r24, r24
    394c:	59 f4       	brne	.+22     	; 0x3964 <_ZN11interpreter3brgEj+0x3c>
    394e:	89 81       	ldd	r24, Y+1	; 0x01
    3950:	9a 81       	ldd	r25, Y+2	; 0x02
    3952:	8f 5d       	subi	r24, 0xDF	; 223
    3954:	9e 4f       	sbci	r25, 0xFE	; 254
    3956:	61 e0       	ldi	r22, 0x01	; 1
    3958:	0e 94 66 01 	call	0x2cc	; 0x2cc <_ZN11interpreter8cpuflags7getflagENS0_8bitflagsE>
    395c:	88 23       	and	r24, r24
    395e:	11 f0       	breq	.+4      	; 0x3964 <_ZN11interpreter3brgEj+0x3c>
    3960:	81 e0       	ldi	r24, 0x01	; 1
    3962:	01 c0       	rjmp	.+2      	; 0x3966 <_ZN11interpreter3brgEj+0x3e>
    3964:	80 e0       	ldi	r24, 0x00	; 0
    3966:	88 23       	and	r24, r24
    3968:	39 f0       	breq	.+14     	; 0x3978 <_ZN11interpreter3brgEj+0x50>
    396a:	2b 81       	ldd	r18, Y+3	; 0x03
    396c:	3c 81       	ldd	r19, Y+4	; 0x04
    396e:	89 81       	ldd	r24, Y+1	; 0x01
    3970:	9a 81       	ldd	r25, Y+2	; 0x02
    3972:	b9 01       	movw	r22, r18
    3974:	0e 94 41 1e 	call	0x3c82	; 0x3c82 <_ZN11interpreter3jmpEj>
    3978:	00 00       	nop
    397a:	0f 90       	pop	r0
    397c:	0f 90       	pop	r0
    397e:	0f 90       	pop	r0
    3980:	0f 90       	pop	r0
    3982:	df 91       	pop	r29
    3984:	cf 91       	pop	r28
    3986:	08 95       	ret

00003988 <_ZN11interpreter6brgpcfEj>:
    3988:	cf 93       	push	r28
    398a:	df 93       	push	r29
    398c:	00 d0       	rcall	.+0      	; 0x398e <_ZN11interpreter6brgpcfEj+0x6>
    398e:	00 d0       	rcall	.+0      	; 0x3990 <_ZN11interpreter6brgpcfEj+0x8>
    3990:	cd b7       	in	r28, 0x3d	; 61
    3992:	de b7       	in	r29, 0x3e	; 62
    3994:	9a 83       	std	Y+2, r25	; 0x02
    3996:	89 83       	std	Y+1, r24	; 0x01
    3998:	7c 83       	std	Y+4, r23	; 0x04
    399a:	6b 83       	std	Y+3, r22	; 0x03
    399c:	89 81       	ldd	r24, Y+1	; 0x01
    399e:	9a 81       	ldd	r25, Y+2	; 0x02
    39a0:	8f 5d       	subi	r24, 0xDF	; 223
    39a2:	9e 4f       	sbci	r25, 0xFE	; 254
    39a4:	63 e0       	ldi	r22, 0x03	; 3
    39a6:	0e 94 66 01 	call	0x2cc	; 0x2cc <_ZN11interpreter8cpuflags7getflagENS0_8bitflagsE>
    39aa:	88 23       	and	r24, r24
    39ac:	59 f4       	brne	.+22     	; 0x39c4 <_ZN11interpreter6brgpcfEj+0x3c>
    39ae:	89 81       	ldd	r24, Y+1	; 0x01
    39b0:	9a 81       	ldd	r25, Y+2	; 0x02
    39b2:	8f 5d       	subi	r24, 0xDF	; 223
    39b4:	9e 4f       	sbci	r25, 0xFE	; 254
    39b6:	61 e0       	ldi	r22, 0x01	; 1
    39b8:	0e 94 66 01 	call	0x2cc	; 0x2cc <_ZN11interpreter8cpuflags7getflagENS0_8bitflagsE>
    39bc:	88 23       	and	r24, r24
    39be:	11 f0       	breq	.+4      	; 0x39c4 <_ZN11interpreter6brgpcfEj+0x3c>
    39c0:	81 e0       	ldi	r24, 0x01	; 1
    39c2:	01 c0       	rjmp	.+2      	; 0x39c6 <_ZN11interpreter6brgpcfEj+0x3e>
    39c4:	80 e0       	ldi	r24, 0x00	; 0
    39c6:	88 23       	and	r24, r24
    39c8:	81 f0       	breq	.+32     	; 0x39ea <_ZN11interpreter6brgpcfEj+0x62>
    39ca:	89 81       	ldd	r24, Y+1	; 0x01
    39cc:	9a 81       	ldd	r25, Y+2	; 0x02
    39ce:	87 5e       	subi	r24, 0xE7	; 231
    39d0:	9e 4f       	sbci	r25, 0xFE	; 254
    39d2:	fc 01       	movw	r30, r24
    39d4:	20 81       	ld	r18, Z
    39d6:	31 81       	ldd	r19, Z+1	; 0x01
    39d8:	8b 81       	ldd	r24, Y+3	; 0x03
    39da:	9c 81       	ldd	r25, Y+4	; 0x04
    39dc:	28 0f       	add	r18, r24
    39de:	39 1f       	adc	r19, r25
    39e0:	89 81       	ldd	r24, Y+1	; 0x01
    39e2:	9a 81       	ldd	r25, Y+2	; 0x02
    39e4:	b9 01       	movw	r22, r18
    39e6:	0e 94 41 1e 	call	0x3c82	; 0x3c82 <_ZN11interpreter3jmpEj>
    39ea:	00 00       	nop
    39ec:	0f 90       	pop	r0
    39ee:	0f 90       	pop	r0
    39f0:	0f 90       	pop	r0
    39f2:	0f 90       	pop	r0
    39f4:	df 91       	pop	r29
    39f6:	cf 91       	pop	r28
    39f8:	08 95       	ret

000039fa <_ZN11interpreter6brgpcbEj>:
    39fa:	cf 93       	push	r28
    39fc:	df 93       	push	r29
    39fe:	00 d0       	rcall	.+0      	; 0x3a00 <_ZN11interpreter6brgpcbEj+0x6>
    3a00:	00 d0       	rcall	.+0      	; 0x3a02 <_ZN11interpreter6brgpcbEj+0x8>
    3a02:	cd b7       	in	r28, 0x3d	; 61
    3a04:	de b7       	in	r29, 0x3e	; 62
    3a06:	9a 83       	std	Y+2, r25	; 0x02
    3a08:	89 83       	std	Y+1, r24	; 0x01
    3a0a:	7c 83       	std	Y+4, r23	; 0x04
    3a0c:	6b 83       	std	Y+3, r22	; 0x03
    3a0e:	89 81       	ldd	r24, Y+1	; 0x01
    3a10:	9a 81       	ldd	r25, Y+2	; 0x02
    3a12:	8f 5d       	subi	r24, 0xDF	; 223
    3a14:	9e 4f       	sbci	r25, 0xFE	; 254
    3a16:	63 e0       	ldi	r22, 0x03	; 3
    3a18:	0e 94 66 01 	call	0x2cc	; 0x2cc <_ZN11interpreter8cpuflags7getflagENS0_8bitflagsE>
    3a1c:	88 23       	and	r24, r24
    3a1e:	59 f4       	brne	.+22     	; 0x3a36 <_ZN11interpreter6brgpcbEj+0x3c>
    3a20:	89 81       	ldd	r24, Y+1	; 0x01
    3a22:	9a 81       	ldd	r25, Y+2	; 0x02
    3a24:	8f 5d       	subi	r24, 0xDF	; 223
    3a26:	9e 4f       	sbci	r25, 0xFE	; 254
    3a28:	61 e0       	ldi	r22, 0x01	; 1
    3a2a:	0e 94 66 01 	call	0x2cc	; 0x2cc <_ZN11interpreter8cpuflags7getflagENS0_8bitflagsE>
    3a2e:	88 23       	and	r24, r24
    3a30:	11 f0       	breq	.+4      	; 0x3a36 <_ZN11interpreter6brgpcbEj+0x3c>
    3a32:	81 e0       	ldi	r24, 0x01	; 1
    3a34:	01 c0       	rjmp	.+2      	; 0x3a38 <_ZN11interpreter6brgpcbEj+0x3e>
    3a36:	80 e0       	ldi	r24, 0x00	; 0
    3a38:	88 23       	and	r24, r24
    3a3a:	81 f0       	breq	.+32     	; 0x3a5c <_ZN11interpreter6brgpcbEj+0x62>
    3a3c:	89 81       	ldd	r24, Y+1	; 0x01
    3a3e:	9a 81       	ldd	r25, Y+2	; 0x02
    3a40:	87 5e       	subi	r24, 0xE7	; 231
    3a42:	9e 4f       	sbci	r25, 0xFE	; 254
    3a44:	fc 01       	movw	r30, r24
    3a46:	20 81       	ld	r18, Z
    3a48:	31 81       	ldd	r19, Z+1	; 0x01
    3a4a:	8b 81       	ldd	r24, Y+3	; 0x03
    3a4c:	9c 81       	ldd	r25, Y+4	; 0x04
    3a4e:	28 1b       	sub	r18, r24
    3a50:	39 0b       	sbc	r19, r25
    3a52:	89 81       	ldd	r24, Y+1	; 0x01
    3a54:	9a 81       	ldd	r25, Y+2	; 0x02
    3a56:	b9 01       	movw	r22, r18
    3a58:	0e 94 41 1e 	call	0x3c82	; 0x3c82 <_ZN11interpreter3jmpEj>
    3a5c:	00 00       	nop
    3a5e:	0f 90       	pop	r0
    3a60:	0f 90       	pop	r0
    3a62:	0f 90       	pop	r0
    3a64:	0f 90       	pop	r0
    3a66:	df 91       	pop	r29
    3a68:	cf 91       	pop	r28
    3a6a:	08 95       	ret

00003a6c <_ZN11interpreter3brlEj>:
    3a6c:	cf 93       	push	r28
    3a6e:	df 93       	push	r29
    3a70:	00 d0       	rcall	.+0      	; 0x3a72 <_ZN11interpreter3brlEj+0x6>
    3a72:	00 d0       	rcall	.+0      	; 0x3a74 <_ZN11interpreter3brlEj+0x8>
    3a74:	cd b7       	in	r28, 0x3d	; 61
    3a76:	de b7       	in	r29, 0x3e	; 62
    3a78:	9a 83       	std	Y+2, r25	; 0x02
    3a7a:	89 83       	std	Y+1, r24	; 0x01
    3a7c:	7c 83       	std	Y+4, r23	; 0x04
    3a7e:	6b 83       	std	Y+3, r22	; 0x03
    3a80:	89 81       	ldd	r24, Y+1	; 0x01
    3a82:	9a 81       	ldd	r25, Y+2	; 0x02
    3a84:	8f 5d       	subi	r24, 0xDF	; 223
    3a86:	9e 4f       	sbci	r25, 0xFE	; 254
    3a88:	63 e0       	ldi	r22, 0x03	; 3
    3a8a:	0e 94 66 01 	call	0x2cc	; 0x2cc <_ZN11interpreter8cpuflags7getflagENS0_8bitflagsE>
    3a8e:	88 23       	and	r24, r24
    3a90:	59 f4       	brne	.+22     	; 0x3aa8 <_ZN11interpreter3brlEj+0x3c>
    3a92:	89 81       	ldd	r24, Y+1	; 0x01
    3a94:	9a 81       	ldd	r25, Y+2	; 0x02
    3a96:	8f 5d       	subi	r24, 0xDF	; 223
    3a98:	9e 4f       	sbci	r25, 0xFE	; 254
    3a9a:	62 e0       	ldi	r22, 0x02	; 2
    3a9c:	0e 94 66 01 	call	0x2cc	; 0x2cc <_ZN11interpreter8cpuflags7getflagENS0_8bitflagsE>
    3aa0:	88 23       	and	r24, r24
    3aa2:	11 f0       	breq	.+4      	; 0x3aa8 <_ZN11interpreter3brlEj+0x3c>
    3aa4:	81 e0       	ldi	r24, 0x01	; 1
    3aa6:	01 c0       	rjmp	.+2      	; 0x3aaa <_ZN11interpreter3brlEj+0x3e>
    3aa8:	80 e0       	ldi	r24, 0x00	; 0
    3aaa:	88 23       	and	r24, r24
    3aac:	39 f0       	breq	.+14     	; 0x3abc <_ZN11interpreter3brlEj+0x50>
    3aae:	2b 81       	ldd	r18, Y+3	; 0x03
    3ab0:	3c 81       	ldd	r19, Y+4	; 0x04
    3ab2:	89 81       	ldd	r24, Y+1	; 0x01
    3ab4:	9a 81       	ldd	r25, Y+2	; 0x02
    3ab6:	b9 01       	movw	r22, r18
    3ab8:	0e 94 41 1e 	call	0x3c82	; 0x3c82 <_ZN11interpreter3jmpEj>
    3abc:	00 00       	nop
    3abe:	0f 90       	pop	r0
    3ac0:	0f 90       	pop	r0
    3ac2:	0f 90       	pop	r0
    3ac4:	0f 90       	pop	r0
    3ac6:	df 91       	pop	r29
    3ac8:	cf 91       	pop	r28
    3aca:	08 95       	ret

00003acc <_ZN11interpreter6brlpcfEj>:
    3acc:	cf 93       	push	r28
    3ace:	df 93       	push	r29
    3ad0:	00 d0       	rcall	.+0      	; 0x3ad2 <_ZN11interpreter6brlpcfEj+0x6>
    3ad2:	00 d0       	rcall	.+0      	; 0x3ad4 <_ZN11interpreter6brlpcfEj+0x8>
    3ad4:	cd b7       	in	r28, 0x3d	; 61
    3ad6:	de b7       	in	r29, 0x3e	; 62
    3ad8:	9a 83       	std	Y+2, r25	; 0x02
    3ada:	89 83       	std	Y+1, r24	; 0x01
    3adc:	7c 83       	std	Y+4, r23	; 0x04
    3ade:	6b 83       	std	Y+3, r22	; 0x03
    3ae0:	89 81       	ldd	r24, Y+1	; 0x01
    3ae2:	9a 81       	ldd	r25, Y+2	; 0x02
    3ae4:	8f 5d       	subi	r24, 0xDF	; 223
    3ae6:	9e 4f       	sbci	r25, 0xFE	; 254
    3ae8:	63 e0       	ldi	r22, 0x03	; 3
    3aea:	0e 94 66 01 	call	0x2cc	; 0x2cc <_ZN11interpreter8cpuflags7getflagENS0_8bitflagsE>
    3aee:	88 23       	and	r24, r24
    3af0:	59 f4       	brne	.+22     	; 0x3b08 <_ZN11interpreter6brlpcfEj+0x3c>
    3af2:	89 81       	ldd	r24, Y+1	; 0x01
    3af4:	9a 81       	ldd	r25, Y+2	; 0x02
    3af6:	8f 5d       	subi	r24, 0xDF	; 223
    3af8:	9e 4f       	sbci	r25, 0xFE	; 254
    3afa:	62 e0       	ldi	r22, 0x02	; 2
    3afc:	0e 94 66 01 	call	0x2cc	; 0x2cc <_ZN11interpreter8cpuflags7getflagENS0_8bitflagsE>
    3b00:	88 23       	and	r24, r24
    3b02:	11 f0       	breq	.+4      	; 0x3b08 <_ZN11interpreter6brlpcfEj+0x3c>
    3b04:	81 e0       	ldi	r24, 0x01	; 1
    3b06:	01 c0       	rjmp	.+2      	; 0x3b0a <_ZN11interpreter6brlpcfEj+0x3e>
    3b08:	80 e0       	ldi	r24, 0x00	; 0
    3b0a:	88 23       	and	r24, r24
    3b0c:	81 f0       	breq	.+32     	; 0x3b2e <_ZN11interpreter6brlpcfEj+0x62>
    3b0e:	89 81       	ldd	r24, Y+1	; 0x01
    3b10:	9a 81       	ldd	r25, Y+2	; 0x02
    3b12:	87 5e       	subi	r24, 0xE7	; 231
    3b14:	9e 4f       	sbci	r25, 0xFE	; 254
    3b16:	fc 01       	movw	r30, r24
    3b18:	20 81       	ld	r18, Z
    3b1a:	31 81       	ldd	r19, Z+1	; 0x01
    3b1c:	8b 81       	ldd	r24, Y+3	; 0x03
    3b1e:	9c 81       	ldd	r25, Y+4	; 0x04
    3b20:	28 0f       	add	r18, r24
    3b22:	39 1f       	adc	r19, r25
    3b24:	89 81       	ldd	r24, Y+1	; 0x01
    3b26:	9a 81       	ldd	r25, Y+2	; 0x02
    3b28:	b9 01       	movw	r22, r18
    3b2a:	0e 94 41 1e 	call	0x3c82	; 0x3c82 <_ZN11interpreter3jmpEj>
    3b2e:	00 00       	nop
    3b30:	0f 90       	pop	r0
    3b32:	0f 90       	pop	r0
    3b34:	0f 90       	pop	r0
    3b36:	0f 90       	pop	r0
    3b38:	df 91       	pop	r29
    3b3a:	cf 91       	pop	r28
    3b3c:	08 95       	ret

00003b3e <_ZN11interpreter6brlpcbEj>:
    3b3e:	cf 93       	push	r28
    3b40:	df 93       	push	r29
    3b42:	00 d0       	rcall	.+0      	; 0x3b44 <_ZN11interpreter6brlpcbEj+0x6>
    3b44:	00 d0       	rcall	.+0      	; 0x3b46 <_ZN11interpreter6brlpcbEj+0x8>
    3b46:	cd b7       	in	r28, 0x3d	; 61
    3b48:	de b7       	in	r29, 0x3e	; 62
    3b4a:	9a 83       	std	Y+2, r25	; 0x02
    3b4c:	89 83       	std	Y+1, r24	; 0x01
    3b4e:	7c 83       	std	Y+4, r23	; 0x04
    3b50:	6b 83       	std	Y+3, r22	; 0x03
    3b52:	89 81       	ldd	r24, Y+1	; 0x01
    3b54:	9a 81       	ldd	r25, Y+2	; 0x02
    3b56:	8f 5d       	subi	r24, 0xDF	; 223
    3b58:	9e 4f       	sbci	r25, 0xFE	; 254
    3b5a:	63 e0       	ldi	r22, 0x03	; 3
    3b5c:	0e 94 66 01 	call	0x2cc	; 0x2cc <_ZN11interpreter8cpuflags7getflagENS0_8bitflagsE>
    3b60:	88 23       	and	r24, r24
    3b62:	59 f4       	brne	.+22     	; 0x3b7a <_ZN11interpreter6brlpcbEj+0x3c>
    3b64:	89 81       	ldd	r24, Y+1	; 0x01
    3b66:	9a 81       	ldd	r25, Y+2	; 0x02
    3b68:	8f 5d       	subi	r24, 0xDF	; 223
    3b6a:	9e 4f       	sbci	r25, 0xFE	; 254
    3b6c:	62 e0       	ldi	r22, 0x02	; 2
    3b6e:	0e 94 66 01 	call	0x2cc	; 0x2cc <_ZN11interpreter8cpuflags7getflagENS0_8bitflagsE>
    3b72:	88 23       	and	r24, r24
    3b74:	11 f0       	breq	.+4      	; 0x3b7a <_ZN11interpreter6brlpcbEj+0x3c>
    3b76:	81 e0       	ldi	r24, 0x01	; 1
    3b78:	01 c0       	rjmp	.+2      	; 0x3b7c <_ZN11interpreter6brlpcbEj+0x3e>
    3b7a:	80 e0       	ldi	r24, 0x00	; 0
    3b7c:	88 23       	and	r24, r24
    3b7e:	81 f0       	breq	.+32     	; 0x3ba0 <_ZN11interpreter6brlpcbEj+0x62>
    3b80:	89 81       	ldd	r24, Y+1	; 0x01
    3b82:	9a 81       	ldd	r25, Y+2	; 0x02
    3b84:	87 5e       	subi	r24, 0xE7	; 231
    3b86:	9e 4f       	sbci	r25, 0xFE	; 254
    3b88:	fc 01       	movw	r30, r24
    3b8a:	20 81       	ld	r18, Z
    3b8c:	31 81       	ldd	r19, Z+1	; 0x01
    3b8e:	8b 81       	ldd	r24, Y+3	; 0x03
    3b90:	9c 81       	ldd	r25, Y+4	; 0x04
    3b92:	28 1b       	sub	r18, r24
    3b94:	39 0b       	sbc	r19, r25
    3b96:	89 81       	ldd	r24, Y+1	; 0x01
    3b98:	9a 81       	ldd	r25, Y+2	; 0x02
    3b9a:	b9 01       	movw	r22, r18
    3b9c:	0e 94 41 1e 	call	0x3c82	; 0x3c82 <_ZN11interpreter3jmpEj>
    3ba0:	00 00       	nop
    3ba2:	0f 90       	pop	r0
    3ba4:	0f 90       	pop	r0
    3ba6:	0f 90       	pop	r0
    3ba8:	0f 90       	pop	r0
    3baa:	df 91       	pop	r29
    3bac:	cf 91       	pop	r28
    3bae:	08 95       	ret

00003bb0 <_ZN11interpreter3clrEc>:
    3bb0:	cf 93       	push	r28
    3bb2:	df 93       	push	r29
    3bb4:	00 d0       	rcall	.+0      	; 0x3bb6 <_ZN11interpreter3clrEc+0x6>
    3bb6:	1f 92       	push	r1
    3bb8:	cd b7       	in	r28, 0x3d	; 61
    3bba:	de b7       	in	r29, 0x3e	; 62
    3bbc:	9a 83       	std	Y+2, r25	; 0x02
    3bbe:	89 83       	std	Y+1, r24	; 0x01
    3bc0:	6b 83       	std	Y+3, r22	; 0x03
    3bc2:	8b 81       	ldd	r24, Y+3	; 0x03
    3bc4:	88 2f       	mov	r24, r24
    3bc6:	90 e0       	ldi	r25, 0x00	; 0
    3bc8:	29 81       	ldd	r18, Y+1	; 0x01
    3bca:	3a 81       	ldd	r19, Y+2	; 0x02
    3bcc:	82 0f       	add	r24, r18
    3bce:	93 1f       	adc	r25, r19
    3bd0:	fc 01       	movw	r30, r24
    3bd2:	10 82       	st	Z, r1
    3bd4:	00 00       	nop
    3bd6:	0f 90       	pop	r0
    3bd8:	0f 90       	pop	r0
    3bda:	0f 90       	pop	r0
    3bdc:	df 91       	pop	r29
    3bde:	cf 91       	pop	r28
    3be0:	08 95       	ret

00003be2 <_ZN11interpreter3nopEv>:
    3be2:	cf 93       	push	r28
    3be4:	df 93       	push	r29
    3be6:	00 d0       	rcall	.+0      	; 0x3be8 <_ZN11interpreter3nopEv+0x6>
    3be8:	cd b7       	in	r28, 0x3d	; 61
    3bea:	de b7       	in	r29, 0x3e	; 62
    3bec:	9a 83       	std	Y+2, r25	; 0x02
    3bee:	89 83       	std	Y+1, r24	; 0x01
    3bf0:	00 00       	nop
    3bf2:	00 00       	nop
    3bf4:	0f 90       	pop	r0
    3bf6:	0f 90       	pop	r0
    3bf8:	df 91       	pop	r29
    3bfa:	cf 91       	pop	r28
    3bfc:	08 95       	ret

00003bfe <_ZN11interpreter4callEj>:
    3bfe:	0f 93       	push	r16
    3c00:	1f 93       	push	r17
    3c02:	cf 93       	push	r28
    3c04:	df 93       	push	r29
    3c06:	00 d0       	rcall	.+0      	; 0x3c08 <_ZN11interpreter4callEj+0xa>
    3c08:	00 d0       	rcall	.+0      	; 0x3c0a <_ZN11interpreter4callEj+0xc>
    3c0a:	cd b7       	in	r28, 0x3d	; 61
    3c0c:	de b7       	in	r29, 0x3e	; 62
    3c0e:	9a 83       	std	Y+2, r25	; 0x02
    3c10:	89 83       	std	Y+1, r24	; 0x01
    3c12:	7c 83       	std	Y+4, r23	; 0x04
    3c14:	6b 83       	std	Y+3, r22	; 0x03
    3c16:	89 81       	ldd	r24, Y+1	; 0x01
    3c18:	9a 81       	ldd	r25, Y+2	; 0x02
    3c1a:	89 5e       	subi	r24, 0xE9	; 233
    3c1c:	9e 4f       	sbci	r25, 0xFE	; 254
    3c1e:	fc 01       	movw	r30, r24
    3c20:	80 81       	ld	r24, Z
    3c22:	91 81       	ldd	r25, Z+1	; 0x01
    3c24:	28 2f       	mov	r18, r24
    3c26:	89 81       	ldd	r24, Y+1	; 0x01
    3c28:	9a 81       	ldd	r25, Y+2	; 0x02
    3c2a:	62 2f       	mov	r22, r18
    3c2c:	0e 94 5c 1e 	call	0x3cb8	; 0x3cb8 <_ZN11interpreter4pushEc>
    3c30:	2b 81       	ldd	r18, Y+3	; 0x03
    3c32:	3c 81       	ldd	r19, Y+4	; 0x04
    3c34:	89 81       	ldd	r24, Y+1	; 0x01
    3c36:	9a 81       	ldd	r25, Y+2	; 0x02
    3c38:	b9 01       	movw	r22, r18
    3c3a:	0e 94 41 1e 	call	0x3c82	; 0x3c82 <_ZN11interpreter3jmpEj>
    3c3e:	89 81       	ldd	r24, Y+1	; 0x01
    3c40:	9a 81       	ldd	r25, Y+2	; 0x02
    3c42:	0e 94 ca 1e 	call	0x3d94	; 0x3d94 <_ZN11interpreter3popEv>
    3c46:	88 2f       	mov	r24, r24
    3c48:	90 e0       	ldi	r25, 0x00	; 0
    3c4a:	18 2f       	mov	r17, r24
    3c4c:	00 27       	eor	r16, r16
    3c4e:	89 81       	ldd	r24, Y+1	; 0x01
    3c50:	9a 81       	ldd	r25, Y+2	; 0x02
    3c52:	0e 94 ca 1e 	call	0x3d94	; 0x3d94 <_ZN11interpreter3popEv>
    3c56:	88 2f       	mov	r24, r24
    3c58:	90 e0       	ldi	r25, 0x00	; 0
    3c5a:	80 2b       	or	r24, r16
    3c5c:	91 2b       	or	r25, r17
    3c5e:	9c 01       	movw	r18, r24
    3c60:	89 81       	ldd	r24, Y+1	; 0x01
    3c62:	9a 81       	ldd	r25, Y+2	; 0x02
    3c64:	87 5e       	subi	r24, 0xE7	; 231
    3c66:	9e 4f       	sbci	r25, 0xFE	; 254
    3c68:	fc 01       	movw	r30, r24
    3c6a:	31 83       	std	Z+1, r19	; 0x01
    3c6c:	20 83       	st	Z, r18
    3c6e:	00 00       	nop
    3c70:	0f 90       	pop	r0
    3c72:	0f 90       	pop	r0
    3c74:	0f 90       	pop	r0
    3c76:	0f 90       	pop	r0
    3c78:	df 91       	pop	r29
    3c7a:	cf 91       	pop	r28
    3c7c:	1f 91       	pop	r17
    3c7e:	0f 91       	pop	r16
    3c80:	08 95       	ret

00003c82 <_ZN11interpreter3jmpEj>:
    3c82:	cf 93       	push	r28
    3c84:	df 93       	push	r29
    3c86:	00 d0       	rcall	.+0      	; 0x3c88 <_ZN11interpreter3jmpEj+0x6>
    3c88:	00 d0       	rcall	.+0      	; 0x3c8a <_ZN11interpreter3jmpEj+0x8>
    3c8a:	cd b7       	in	r28, 0x3d	; 61
    3c8c:	de b7       	in	r29, 0x3e	; 62
    3c8e:	9a 83       	std	Y+2, r25	; 0x02
    3c90:	89 83       	std	Y+1, r24	; 0x01
    3c92:	7c 83       	std	Y+4, r23	; 0x04
    3c94:	6b 83       	std	Y+3, r22	; 0x03
    3c96:	89 81       	ldd	r24, Y+1	; 0x01
    3c98:	9a 81       	ldd	r25, Y+2	; 0x02
    3c9a:	87 5e       	subi	r24, 0xE7	; 231
    3c9c:	9e 4f       	sbci	r25, 0xFE	; 254
    3c9e:	2b 81       	ldd	r18, Y+3	; 0x03
    3ca0:	3c 81       	ldd	r19, Y+4	; 0x04
    3ca2:	fc 01       	movw	r30, r24
    3ca4:	31 83       	std	Z+1, r19	; 0x01
    3ca6:	20 83       	st	Z, r18
    3ca8:	00 00       	nop
    3caa:	0f 90       	pop	r0
    3cac:	0f 90       	pop	r0
    3cae:	0f 90       	pop	r0
    3cb0:	0f 90       	pop	r0
    3cb2:	df 91       	pop	r29
    3cb4:	cf 91       	pop	r28
    3cb6:	08 95       	ret

00003cb8 <_ZN11interpreter4pushEc>:

void interpreter::push(char reg)
{
    3cb8:	cf 93       	push	r28
    3cba:	df 93       	push	r29
    3cbc:	00 d0       	rcall	.+0      	; 0x3cbe <_ZN11interpreter4pushEc+0x6>
    3cbe:	1f 92       	push	r1
    3cc0:	cd b7       	in	r28, 0x3d	; 61
    3cc2:	de b7       	in	r29, 0x3e	; 62
    3cc4:	9a 83       	std	Y+2, r25	; 0x02
    3cc6:	89 83       	std	Y+1, r24	; 0x01
    3cc8:	6b 83       	std	Y+3, r22	; 0x03
	stackram->write(stackptr,registers[(int)reg]);
    3cca:	8b 81       	ldd	r24, Y+3	; 0x03
    3ccc:	88 2f       	mov	r24, r24
    3cce:	90 e0       	ldi	r25, 0x00	; 0
    3cd0:	29 81       	ldd	r18, Y+1	; 0x01
    3cd2:	3a 81       	ldd	r19, Y+2	; 0x02
    3cd4:	82 0f       	add	r24, r18
    3cd6:	93 1f       	adc	r25, r19
    3cd8:	fc 01       	movw	r30, r24
    3cda:	40 81       	ld	r20, Z
    3cdc:	89 81       	ldd	r24, Y+1	; 0x01
    3cde:	9a 81       	ldd	r25, Y+2	; 0x02
    3ce0:	89 5e       	subi	r24, 0xE9	; 233
    3ce2:	9e 4f       	sbci	r25, 0xFE	; 254
    3ce4:	fc 01       	movw	r30, r24
    3ce6:	20 81       	ld	r18, Z
    3ce8:	31 81       	ldd	r19, Z+1	; 0x01
    3cea:	89 81       	ldd	r24, Y+1	; 0x01
    3cec:	9a 81       	ldd	r25, Y+2	; 0x02
    3cee:	81 5f       	subi	r24, 0xF1	; 241
    3cf0:	9e 4f       	sbci	r25, 0xFE	; 254
    3cf2:	fc 01       	movw	r30, r24
    3cf4:	80 81       	ld	r24, Z
    3cf6:	91 81       	ldd	r25, Z+1	; 0x01
    3cf8:	b9 01       	movw	r22, r18
    3cfa:	0e 94 ce 25 	call	0x4b9c	; 0x4b9c <_ZN3ram5writeEjc>
	stackptr--;
    3cfe:	89 81       	ldd	r24, Y+1	; 0x01
    3d00:	9a 81       	ldd	r25, Y+2	; 0x02
    3d02:	89 5e       	subi	r24, 0xE9	; 233
    3d04:	9e 4f       	sbci	r25, 0xFE	; 254
    3d06:	fc 01       	movw	r30, r24
    3d08:	80 81       	ld	r24, Z
    3d0a:	91 81       	ldd	r25, Z+1	; 0x01
    3d0c:	9c 01       	movw	r18, r24
    3d0e:	21 50       	subi	r18, 0x01	; 1
    3d10:	31 09       	sbc	r19, r1
    3d12:	89 81       	ldd	r24, Y+1	; 0x01
    3d14:	9a 81       	ldd	r25, Y+2	; 0x02
    3d16:	89 5e       	subi	r24, 0xE9	; 233
    3d18:	9e 4f       	sbci	r25, 0xFE	; 254
    3d1a:	fc 01       	movw	r30, r24
    3d1c:	31 83       	std	Z+1, r19	; 0x01
    3d1e:	20 83       	st	Z, r18
}
    3d20:	00 00       	nop
    3d22:	0f 90       	pop	r0
    3d24:	0f 90       	pop	r0
    3d26:	0f 90       	pop	r0
    3d28:	df 91       	pop	r29
    3d2a:	cf 91       	pop	r28
    3d2c:	08 95       	ret

00003d2e <_ZN11interpreter5pushiEh>:
void interpreter::pushi(uint8_t value)
{
    3d2e:	cf 93       	push	r28
    3d30:	df 93       	push	r29
    3d32:	00 d0       	rcall	.+0      	; 0x3d34 <_ZN11interpreter5pushiEh+0x6>
    3d34:	1f 92       	push	r1
    3d36:	cd b7       	in	r28, 0x3d	; 61
    3d38:	de b7       	in	r29, 0x3e	; 62
    3d3a:	9a 83       	std	Y+2, r25	; 0x02
    3d3c:	89 83       	std	Y+1, r24	; 0x01
    3d3e:	6b 83       	std	Y+3, r22	; 0x03
	stackram->write(stackptr,value);
    3d40:	89 81       	ldd	r24, Y+1	; 0x01
    3d42:	9a 81       	ldd	r25, Y+2	; 0x02
    3d44:	89 5e       	subi	r24, 0xE9	; 233
    3d46:	9e 4f       	sbci	r25, 0xFE	; 254
    3d48:	fc 01       	movw	r30, r24
    3d4a:	20 81       	ld	r18, Z
    3d4c:	31 81       	ldd	r19, Z+1	; 0x01
    3d4e:	89 81       	ldd	r24, Y+1	; 0x01
    3d50:	9a 81       	ldd	r25, Y+2	; 0x02
    3d52:	81 5f       	subi	r24, 0xF1	; 241
    3d54:	9e 4f       	sbci	r25, 0xFE	; 254
    3d56:	fc 01       	movw	r30, r24
    3d58:	80 81       	ld	r24, Z
    3d5a:	91 81       	ldd	r25, Z+1	; 0x01
    3d5c:	4b 81       	ldd	r20, Y+3	; 0x03
    3d5e:	b9 01       	movw	r22, r18
    3d60:	0e 94 ce 25 	call	0x4b9c	; 0x4b9c <_ZN3ram5writeEjc>
	stackptr--;
    3d64:	89 81       	ldd	r24, Y+1	; 0x01
    3d66:	9a 81       	ldd	r25, Y+2	; 0x02
    3d68:	89 5e       	subi	r24, 0xE9	; 233
    3d6a:	9e 4f       	sbci	r25, 0xFE	; 254
    3d6c:	fc 01       	movw	r30, r24
    3d6e:	80 81       	ld	r24, Z
    3d70:	91 81       	ldd	r25, Z+1	; 0x01
    3d72:	9c 01       	movw	r18, r24
    3d74:	21 50       	subi	r18, 0x01	; 1
    3d76:	31 09       	sbc	r19, r1
    3d78:	89 81       	ldd	r24, Y+1	; 0x01
    3d7a:	9a 81       	ldd	r25, Y+2	; 0x02
    3d7c:	89 5e       	subi	r24, 0xE9	; 233
    3d7e:	9e 4f       	sbci	r25, 0xFE	; 254
    3d80:	fc 01       	movw	r30, r24
    3d82:	31 83       	std	Z+1, r19	; 0x01
    3d84:	20 83       	st	Z, r18
}
    3d86:	00 00       	nop
    3d88:	0f 90       	pop	r0
    3d8a:	0f 90       	pop	r0
    3d8c:	0f 90       	pop	r0
    3d8e:	df 91       	pop	r29
    3d90:	cf 91       	pop	r28
    3d92:	08 95       	ret

00003d94 <_ZN11interpreter3popEv>:
uint8_t interpreter::pop()
{
    3d94:	cf 93       	push	r28
    3d96:	df 93       	push	r29
    3d98:	00 d0       	rcall	.+0      	; 0x3d9a <_ZN11interpreter3popEv+0x6>
    3d9a:	1f 92       	push	r1
    3d9c:	cd b7       	in	r28, 0x3d	; 61
    3d9e:	de b7       	in	r29, 0x3e	; 62
    3da0:	9b 83       	std	Y+3, r25	; 0x03
    3da2:	8a 83       	std	Y+2, r24	; 0x02
	uint8_t val = stackram->read(stackptr);
    3da4:	8a 81       	ldd	r24, Y+2	; 0x02
    3da6:	9b 81       	ldd	r25, Y+3	; 0x03
    3da8:	89 5e       	subi	r24, 0xE9	; 233
    3daa:	9e 4f       	sbci	r25, 0xFE	; 254
    3dac:	fc 01       	movw	r30, r24
    3dae:	80 81       	ld	r24, Z
    3db0:	91 81       	ldd	r25, Z+1	; 0x01
    3db2:	9c 01       	movw	r18, r24
    3db4:	8a 81       	ldd	r24, Y+2	; 0x02
    3db6:	9b 81       	ldd	r25, Y+3	; 0x03
    3db8:	81 5f       	subi	r24, 0xF1	; 241
    3dba:	9e 4f       	sbci	r25, 0xFE	; 254
    3dbc:	fc 01       	movw	r30, r24
    3dbe:	80 81       	ld	r24, Z
    3dc0:	91 81       	ldd	r25, Z+1	; 0x01
    3dc2:	b9 01       	movw	r22, r18
    3dc4:	0e 94 ac 25 	call	0x4b58	; 0x4b58 <_ZN3ram4readEi>
    3dc8:	89 83       	std	Y+1, r24	; 0x01
	stackptr++;
    3dca:	8a 81       	ldd	r24, Y+2	; 0x02
    3dcc:	9b 81       	ldd	r25, Y+3	; 0x03
    3dce:	89 5e       	subi	r24, 0xE9	; 233
    3dd0:	9e 4f       	sbci	r25, 0xFE	; 254
    3dd2:	fc 01       	movw	r30, r24
    3dd4:	80 81       	ld	r24, Z
    3dd6:	91 81       	ldd	r25, Z+1	; 0x01
    3dd8:	9c 01       	movw	r18, r24
    3dda:	2f 5f       	subi	r18, 0xFF	; 255
    3ddc:	3f 4f       	sbci	r19, 0xFF	; 255
    3dde:	8a 81       	ldd	r24, Y+2	; 0x02
    3de0:	9b 81       	ldd	r25, Y+3	; 0x03
    3de2:	89 5e       	subi	r24, 0xE9	; 233
    3de4:	9e 4f       	sbci	r25, 0xFE	; 254
    3de6:	fc 01       	movw	r30, r24
    3de8:	31 83       	std	Z+1, r19	; 0x01
    3dea:	20 83       	st	Z, r18
	return val;
    3dec:	89 81       	ldd	r24, Y+1	; 0x01
}
    3dee:	0f 90       	pop	r0
    3df0:	0f 90       	pop	r0
    3df2:	0f 90       	pop	r0
    3df4:	df 91       	pop	r29
    3df6:	cf 91       	pop	r28
    3df8:	08 95       	ret

00003dfa <_ZN11interpreter3popEc>:
void interpreter::pop(char reg)
{
    3dfa:	0f 93       	push	r16
    3dfc:	1f 93       	push	r17
    3dfe:	cf 93       	push	r28
    3e00:	df 93       	push	r29
    3e02:	00 d0       	rcall	.+0      	; 0x3e04 <_ZN11interpreter3popEc+0xa>
    3e04:	1f 92       	push	r1
    3e06:	cd b7       	in	r28, 0x3d	; 61
    3e08:	de b7       	in	r29, 0x3e	; 62
    3e0a:	9a 83       	std	Y+2, r25	; 0x02
    3e0c:	89 83       	std	Y+1, r24	; 0x01
    3e0e:	6b 83       	std	Y+3, r22	; 0x03
	registers[(int)reg]=stackram->read(stackptr);
    3e10:	8b 81       	ldd	r24, Y+3	; 0x03
    3e12:	08 2f       	mov	r16, r24
    3e14:	10 e0       	ldi	r17, 0x00	; 0
    3e16:	89 81       	ldd	r24, Y+1	; 0x01
    3e18:	9a 81       	ldd	r25, Y+2	; 0x02
    3e1a:	89 5e       	subi	r24, 0xE9	; 233
    3e1c:	9e 4f       	sbci	r25, 0xFE	; 254
    3e1e:	fc 01       	movw	r30, r24
    3e20:	80 81       	ld	r24, Z
    3e22:	91 81       	ldd	r25, Z+1	; 0x01
    3e24:	9c 01       	movw	r18, r24
    3e26:	89 81       	ldd	r24, Y+1	; 0x01
    3e28:	9a 81       	ldd	r25, Y+2	; 0x02
    3e2a:	81 5f       	subi	r24, 0xF1	; 241
    3e2c:	9e 4f       	sbci	r25, 0xFE	; 254
    3e2e:	fc 01       	movw	r30, r24
    3e30:	80 81       	ld	r24, Z
    3e32:	91 81       	ldd	r25, Z+1	; 0x01
    3e34:	b9 01       	movw	r22, r18
    3e36:	0e 94 ac 25 	call	0x4b58	; 0x4b58 <_ZN3ram4readEi>
    3e3a:	28 2f       	mov	r18, r24
    3e3c:	89 81       	ldd	r24, Y+1	; 0x01
    3e3e:	9a 81       	ldd	r25, Y+2	; 0x02
    3e40:	80 0f       	add	r24, r16
    3e42:	91 1f       	adc	r25, r17
    3e44:	fc 01       	movw	r30, r24
    3e46:	20 83       	st	Z, r18
	stackptr++;
    3e48:	89 81       	ldd	r24, Y+1	; 0x01
    3e4a:	9a 81       	ldd	r25, Y+2	; 0x02
    3e4c:	89 5e       	subi	r24, 0xE9	; 233
    3e4e:	9e 4f       	sbci	r25, 0xFE	; 254
    3e50:	fc 01       	movw	r30, r24
    3e52:	80 81       	ld	r24, Z
    3e54:	91 81       	ldd	r25, Z+1	; 0x01
    3e56:	9c 01       	movw	r18, r24
    3e58:	2f 5f       	subi	r18, 0xFF	; 255
    3e5a:	3f 4f       	sbci	r19, 0xFF	; 255
    3e5c:	89 81       	ldd	r24, Y+1	; 0x01
    3e5e:	9a 81       	ldd	r25, Y+2	; 0x02
    3e60:	89 5e       	subi	r24, 0xE9	; 233
    3e62:	9e 4f       	sbci	r25, 0xFE	; 254
    3e64:	fc 01       	movw	r30, r24
    3e66:	31 83       	std	Z+1, r19	; 0x01
    3e68:	20 83       	st	Z, r18
}
    3e6a:	00 00       	nop
    3e6c:	0f 90       	pop	r0
    3e6e:	0f 90       	pop	r0
    3e70:	0f 90       	pop	r0
    3e72:	df 91       	pop	r29
    3e74:	cf 91       	pop	r28
    3e76:	1f 91       	pop	r17
    3e78:	0f 91       	pop	r16
    3e7a:	08 95       	ret

00003e7c <_ZN11interpreter4swapEc>:
void interpreter::swap(char reg)
{
    3e7c:	cf 93       	push	r28
    3e7e:	df 93       	push	r29
    3e80:	00 d0       	rcall	.+0      	; 0x3e82 <_ZN11interpreter4swapEc+0x6>
    3e82:	1f 92       	push	r1
    3e84:	cd b7       	in	r28, 0x3d	; 61
    3e86:	de b7       	in	r29, 0x3e	; 62
    3e88:	9a 83       	std	Y+2, r25	; 0x02
    3e8a:	89 83       	std	Y+1, r24	; 0x01
    3e8c:	6b 83       	std	Y+3, r22	; 0x03
	registers[(int)reg]=(registers[(int)reg]<<4) | (registers[(int)reg]>>4);	
    3e8e:	8b 81       	ldd	r24, Y+3	; 0x03
    3e90:	88 2f       	mov	r24, r24
    3e92:	90 e0       	ldi	r25, 0x00	; 0
    3e94:	2b 81       	ldd	r18, Y+3	; 0x03
    3e96:	22 2f       	mov	r18, r18
    3e98:	30 e0       	ldi	r19, 0x00	; 0
    3e9a:	49 81       	ldd	r20, Y+1	; 0x01
    3e9c:	5a 81       	ldd	r21, Y+2	; 0x02
    3e9e:	24 0f       	add	r18, r20
    3ea0:	35 1f       	adc	r19, r21
    3ea2:	f9 01       	movw	r30, r18
    3ea4:	20 81       	ld	r18, Z
    3ea6:	22 2f       	mov	r18, r18
    3ea8:	30 e0       	ldi	r19, 0x00	; 0
    3eaa:	22 95       	swap	r18
    3eac:	32 95       	swap	r19
    3eae:	30 7f       	andi	r19, 0xF0	; 240
    3eb0:	32 27       	eor	r19, r18
    3eb2:	20 7f       	andi	r18, 0xF0	; 240
    3eb4:	32 27       	eor	r19, r18
    3eb6:	62 2f       	mov	r22, r18
    3eb8:	2b 81       	ldd	r18, Y+3	; 0x03
    3eba:	22 2f       	mov	r18, r18
    3ebc:	30 e0       	ldi	r19, 0x00	; 0
    3ebe:	49 81       	ldd	r20, Y+1	; 0x01
    3ec0:	5a 81       	ldd	r21, Y+2	; 0x02
    3ec2:	24 0f       	add	r18, r20
    3ec4:	35 1f       	adc	r19, r21
    3ec6:	f9 01       	movw	r30, r18
    3ec8:	20 81       	ld	r18, Z
    3eca:	22 2f       	mov	r18, r18
    3ecc:	30 e0       	ldi	r19, 0x00	; 0
    3ece:	35 95       	asr	r19
    3ed0:	27 95       	ror	r18
    3ed2:	35 95       	asr	r19
    3ed4:	27 95       	ror	r18
    3ed6:	35 95       	asr	r19
    3ed8:	27 95       	ror	r18
    3eda:	35 95       	asr	r19
    3edc:	27 95       	ror	r18
    3ede:	26 2b       	or	r18, r22
    3ee0:	42 2f       	mov	r20, r18
    3ee2:	29 81       	ldd	r18, Y+1	; 0x01
    3ee4:	3a 81       	ldd	r19, Y+2	; 0x02
    3ee6:	82 0f       	add	r24, r18
    3ee8:	93 1f       	adc	r25, r19
    3eea:	fc 01       	movw	r30, r24
    3eec:	40 83       	st	Z, r20
}
    3eee:	00 00       	nop
    3ef0:	0f 90       	pop	r0
    3ef2:	0f 90       	pop	r0
    3ef4:	0f 90       	pop	r0
    3ef6:	df 91       	pop	r29
    3ef8:	cf 91       	pop	r28
    3efa:	08 95       	ret

00003efc <_ZN11interpreter7syscallEv>:

char interpreter::syscall()
{
    3efc:	cf 93       	push	r28
    3efe:	df 93       	push	r29
    3f00:	cd b7       	in	r28, 0x3d	; 61
    3f02:	de b7       	in	r29, 0x3e	; 62
    3f04:	62 97       	sbiw	r28, 0x12	; 18
    3f06:	0f b6       	in	r0, 0x3f	; 63
    3f08:	f8 94       	cli
    3f0a:	de bf       	out	0x3e, r29	; 62
    3f0c:	0f be       	out	0x3f, r0	; 63
    3f0e:	cd bf       	out	0x3d, r28	; 61
    3f10:	9a 8b       	std	Y+18, r25	; 0x12
    3f12:	89 8b       	std	Y+17, r24	; 0x11
	// rn >r0 is data
	/*
		0-  sleep 1 ms
		
	*/
	if (registers[0]==0)
    3f14:	89 89       	ldd	r24, Y+17	; 0x11
    3f16:	9a 89       	ldd	r25, Y+18	; 0x12
    3f18:	fc 01       	movw	r30, r24
    3f1a:	80 81       	ld	r24, Z
    3f1c:	88 23       	and	r24, r24
    3f1e:	09 f0       	breq	.+2      	; 0x3f22 <_ZN11interpreter7syscallEv+0x26>
    3f20:	85 c0       	rjmp	.+266    	; 0x402c <_ZN11interpreter7syscallEv+0x130>
	{
		//sleep
		int i = registers[1];
    3f22:	89 89       	ldd	r24, Y+17	; 0x11
    3f24:	9a 89       	ldd	r25, Y+18	; 0x12
    3f26:	fc 01       	movw	r30, r24
    3f28:	81 81       	ldd	r24, Z+1	; 0x01
    3f2a:	88 2f       	mov	r24, r24
    3f2c:	90 e0       	ldi	r25, 0x00	; 0
    3f2e:	9a 83       	std	Y+2, r25	; 0x02
    3f30:	89 83       	std	Y+1, r24	; 0x01
    3f32:	80 e0       	ldi	r24, 0x00	; 0
    3f34:	90 e0       	ldi	r25, 0x00	; 0
    3f36:	a0 e8       	ldi	r26, 0x80	; 128
    3f38:	bf e3       	ldi	r27, 0x3F	; 63
    3f3a:	8b 83       	std	Y+3, r24	; 0x03
    3f3c:	9c 83       	std	Y+4, r25	; 0x04
    3f3e:	ad 83       	std	Y+5, r26	; 0x05
    3f40:	be 83       	std	Y+6, r27	; 0x06

	__builtin_avr_delay_cycles(__ticks_dc);

#else
	uint16_t __ticks;
	__tmp = ((F_CPU) / 4e3) * __ms;
    3f42:	20 e0       	ldi	r18, 0x00	; 0
    3f44:	30 e0       	ldi	r19, 0x00	; 0
    3f46:	4a e7       	ldi	r20, 0x7A	; 122
    3f48:	53 e4       	ldi	r21, 0x43	; 67
    3f4a:	6b 81       	ldd	r22, Y+3	; 0x03
    3f4c:	7c 81       	ldd	r23, Y+4	; 0x04
    3f4e:	8d 81       	ldd	r24, Y+5	; 0x05
    3f50:	9e 81       	ldd	r25, Y+6	; 0x06
    3f52:	0e 94 1f 2b 	call	0x563e	; 0x563e <__mulsf3>
    3f56:	dc 01       	movw	r26, r24
    3f58:	cb 01       	movw	r24, r22
    3f5a:	8f 83       	std	Y+7, r24	; 0x07
    3f5c:	98 87       	std	Y+8, r25	; 0x08
    3f5e:	a9 87       	std	Y+9, r26	; 0x09
    3f60:	ba 87       	std	Y+10, r27	; 0x0a
	if (__tmp < 1.0)
    3f62:	20 e0       	ldi	r18, 0x00	; 0
    3f64:	30 e0       	ldi	r19, 0x00	; 0
    3f66:	40 e8       	ldi	r20, 0x80	; 128
    3f68:	5f e3       	ldi	r21, 0x3F	; 63
    3f6a:	6f 81       	ldd	r22, Y+7	; 0x07
    3f6c:	78 85       	ldd	r23, Y+8	; 0x08
    3f6e:	89 85       	ldd	r24, Y+9	; 0x09
    3f70:	9a 85       	ldd	r25, Y+10	; 0x0a
    3f72:	0e 94 99 2a 	call	0x5532	; 0x5532 <__cmpsf2>
    3f76:	88 23       	and	r24, r24
    3f78:	2c f4       	brge	.+10     	; 0x3f84 <_ZN11interpreter7syscallEv+0x88>
		__ticks = 1;
    3f7a:	81 e0       	ldi	r24, 0x01	; 1
    3f7c:	90 e0       	ldi	r25, 0x00	; 0
    3f7e:	9c 87       	std	Y+12, r25	; 0x0c
    3f80:	8b 87       	std	Y+11, r24	; 0x0b
    3f82:	3e c0       	rjmp	.+124    	; 0x4000 <_ZN11interpreter7syscallEv+0x104>
	else if (__tmp > 65535)
    3f84:	20 e0       	ldi	r18, 0x00	; 0
    3f86:	3f ef       	ldi	r19, 0xFF	; 255
    3f88:	4f e7       	ldi	r20, 0x7F	; 127
    3f8a:	57 e4       	ldi	r21, 0x47	; 71
    3f8c:	6f 81       	ldd	r22, Y+7	; 0x07
    3f8e:	78 85       	ldd	r23, Y+8	; 0x08
    3f90:	89 85       	ldd	r24, Y+9	; 0x09
    3f92:	9a 85       	ldd	r25, Y+10	; 0x0a
    3f94:	0e 94 1a 2b 	call	0x5634	; 0x5634 <__gesf2>
    3f98:	18 16       	cp	r1, r24
    3f9a:	44 f5       	brge	.+80     	; 0x3fec <_ZN11interpreter7syscallEv+0xf0>
	{
		//	__ticks = requested delay in 1/10 ms
		__ticks = (uint16_t) (__ms * 10.0);
    3f9c:	20 e0       	ldi	r18, 0x00	; 0
    3f9e:	30 e0       	ldi	r19, 0x00	; 0
    3fa0:	40 e2       	ldi	r20, 0x20	; 32
    3fa2:	51 e4       	ldi	r21, 0x41	; 65
    3fa4:	6b 81       	ldd	r22, Y+3	; 0x03
    3fa6:	7c 81       	ldd	r23, Y+4	; 0x04
    3fa8:	8d 81       	ldd	r24, Y+5	; 0x05
    3faa:	9e 81       	ldd	r25, Y+6	; 0x06
    3fac:	0e 94 1f 2b 	call	0x563e	; 0x563e <__mulsf3>
    3fb0:	dc 01       	movw	r26, r24
    3fb2:	cb 01       	movw	r24, r22
    3fb4:	bc 01       	movw	r22, r24
    3fb6:	cd 01       	movw	r24, r26
    3fb8:	0e 94 9e 2a 	call	0x553c	; 0x553c <__fixunssfsi>
    3fbc:	dc 01       	movw	r26, r24
    3fbe:	cb 01       	movw	r24, r22
    3fc0:	9c 87       	std	Y+12, r25	; 0x0c
    3fc2:	8b 87       	std	Y+11, r24	; 0x0b
		while(__ticks)
    3fc4:	8b 85       	ldd	r24, Y+11	; 0x0b
    3fc6:	9c 85       	ldd	r25, Y+12	; 0x0c
    3fc8:	89 2b       	or	r24, r25
    3fca:	21 f1       	breq	.+72     	; 0x4014 <_ZN11interpreter7syscallEv+0x118>
    3fcc:	89 e1       	ldi	r24, 0x19	; 25
    3fce:	90 e0       	ldi	r25, 0x00	; 0
    3fd0:	9e 87       	std	Y+14, r25	; 0x0e
    3fd2:	8d 87       	std	Y+13, r24	; 0x0d
	__asm__ volatile (
		"1: sbiw %0,1" "\n\t"
		"brne 1b"
		: "=w" (__count)
		: "0" (__count)
	);
    3fd4:	8d 85       	ldd	r24, Y+13	; 0x0d
    3fd6:	9e 85       	ldd	r25, Y+14	; 0x0e
    3fd8:	01 97       	sbiw	r24, 0x01	; 1
    3fda:	f1 f7       	brne	.-4      	; 0x3fd8 <_ZN11interpreter7syscallEv+0xdc>
    3fdc:	9e 87       	std	Y+14, r25	; 0x0e
    3fde:	8d 87       	std	Y+13, r24	; 0x0d
		{
			// wait 1/10 ms
			_delay_loop_2(((F_CPU) / 4e3) / 10);
			__ticks --;
    3fe0:	8b 85       	ldd	r24, Y+11	; 0x0b
    3fe2:	9c 85       	ldd	r25, Y+12	; 0x0c
    3fe4:	01 97       	sbiw	r24, 0x01	; 1
    3fe6:	9c 87       	std	Y+12, r25	; 0x0c
    3fe8:	8b 87       	std	Y+11, r24	; 0x0b
    3fea:	ec cf       	rjmp	.-40     	; 0x3fc4 <_ZN11interpreter7syscallEv+0xc8>
		}
		return;
	}
	else
		__ticks = (uint16_t)__tmp;
    3fec:	6f 81       	ldd	r22, Y+7	; 0x07
    3fee:	78 85       	ldd	r23, Y+8	; 0x08
    3ff0:	89 85       	ldd	r24, Y+9	; 0x09
    3ff2:	9a 85       	ldd	r25, Y+10	; 0x0a
    3ff4:	0e 94 9e 2a 	call	0x553c	; 0x553c <__fixunssfsi>
    3ff8:	dc 01       	movw	r26, r24
    3ffa:	cb 01       	movw	r24, r22
    3ffc:	9c 87       	std	Y+12, r25	; 0x0c
    3ffe:	8b 87       	std	Y+11, r24	; 0x0b
    4000:	8b 85       	ldd	r24, Y+11	; 0x0b
    4002:	9c 85       	ldd	r25, Y+12	; 0x0c
    4004:	98 8b       	std	Y+16, r25	; 0x10
    4006:	8f 87       	std	Y+15, r24	; 0x0f
    4008:	8f 85       	ldd	r24, Y+15	; 0x0f
    400a:	98 89       	ldd	r25, Y+16	; 0x10
    400c:	01 97       	sbiw	r24, 0x01	; 1
    400e:	f1 f7       	brne	.-4      	; 0x400c <_ZN11interpreter7syscallEv+0x110>
    4010:	98 8b       	std	Y+16, r25	; 0x10
    4012:	8f 87       	std	Y+15, r24	; 0x0f
		do 
		{
			_delay_ms(1);
			i--;	
    4014:	89 81       	ldd	r24, Y+1	; 0x01
    4016:	9a 81       	ldd	r25, Y+2	; 0x02
    4018:	01 97       	sbiw	r24, 0x01	; 1
    401a:	9a 83       	std	Y+2, r25	; 0x02
    401c:	89 83       	std	Y+1, r24	; 0x01
		} while (i>0);	
    401e:	89 81       	ldd	r24, Y+1	; 0x01
    4020:	9a 81       	ldd	r25, Y+2	; 0x02
    4022:	18 16       	cp	r1, r24
    4024:	19 06       	cpc	r1, r25
    4026:	0c f0       	brlt	.+2      	; 0x402a <_ZN11interpreter7syscallEv+0x12e>
    4028:	80 c0       	rjmp	.+256    	; 0x412a <_ZN11interpreter7syscallEv+0x22e>
	*/
	if (registers[0]==0)
	{
		//sleep
		int i = registers[1];
		do 
    402a:	83 cf       	rjmp	.-250    	; 0x3f32 <_ZN11interpreter7syscallEv+0x36>
		} while (i>0);	
	}
	/*
		
	*/
	else if (registers[0]==1)
    402c:	89 89       	ldd	r24, Y+17	; 0x11
    402e:	9a 89       	ldd	r25, Y+18	; 0x12
    4030:	fc 01       	movw	r30, r24
    4032:	80 81       	ld	r24, Z
    4034:	81 30       	cpi	r24, 0x01	; 1
    4036:	11 f5       	brne	.+68     	; 0x407c <_ZN11interpreter7syscallEv+0x180>
	{
		//multiply 
		if (registers[1]==0||registers[2]==0)
    4038:	89 89       	ldd	r24, Y+17	; 0x11
    403a:	9a 89       	ldd	r25, Y+18	; 0x12
    403c:	fc 01       	movw	r30, r24
    403e:	81 81       	ldd	r24, Z+1	; 0x01
    4040:	88 23       	and	r24, r24
    4042:	31 f0       	breq	.+12     	; 0x4050 <_ZN11interpreter7syscallEv+0x154>
    4044:	89 89       	ldd	r24, Y+17	; 0x11
    4046:	9a 89       	ldd	r25, Y+18	; 0x12
    4048:	fc 01       	movw	r30, r24
    404a:	82 81       	ldd	r24, Z+2	; 0x02
    404c:	88 23       	and	r24, r24
    404e:	31 f4       	brne	.+12     	; 0x405c <_ZN11interpreter7syscallEv+0x160>
		{
			registers[3]=1;
    4050:	89 89       	ldd	r24, Y+17	; 0x11
    4052:	9a 89       	ldd	r25, Y+18	; 0x12
    4054:	21 e0       	ldi	r18, 0x01	; 1
    4056:	fc 01       	movw	r30, r24
    4058:	23 83       	std	Z+3, r18	; 0x03
    405a:	67 c0       	rjmp	.+206    	; 0x412a <_ZN11interpreter7syscallEv+0x22e>
		}
		else
		{
			registers[3]=registers[1]*registers[2];
    405c:	89 89       	ldd	r24, Y+17	; 0x11
    405e:	9a 89       	ldd	r25, Y+18	; 0x12
    4060:	fc 01       	movw	r30, r24
    4062:	21 81       	ldd	r18, Z+1	; 0x01
    4064:	89 89       	ldd	r24, Y+17	; 0x11
    4066:	9a 89       	ldd	r25, Y+18	; 0x12
    4068:	fc 01       	movw	r30, r24
    406a:	82 81       	ldd	r24, Z+2	; 0x02
    406c:	28 9f       	mul	r18, r24
    406e:	20 2d       	mov	r18, r0
    4070:	11 24       	eor	r1, r1
    4072:	89 89       	ldd	r24, Y+17	; 0x11
    4074:	9a 89       	ldd	r25, Y+18	; 0x12
    4076:	fc 01       	movw	r30, r24
    4078:	23 83       	std	Z+3, r18	; 0x03
    407a:	57 c0       	rjmp	.+174    	; 0x412a <_ZN11interpreter7syscallEv+0x22e>
		}
	}
	else if (registers[0]==2)
    407c:	89 89       	ldd	r24, Y+17	; 0x11
    407e:	9a 89       	ldd	r25, Y+18	; 0x12
    4080:	fc 01       	movw	r30, r24
    4082:	80 81       	ld	r24, Z
    4084:	82 30       	cpi	r24, 0x02	; 2
    4086:	31 f5       	brne	.+76     	; 0x40d4 <_ZN11interpreter7syscallEv+0x1d8>
		//int divide
		// reg 1 neumerator
		//reg 2 denemonator
		//reg 3 result
		// reg 4 error
		if(registers[2]==0)
    4088:	89 89       	ldd	r24, Y+17	; 0x11
    408a:	9a 89       	ldd	r25, Y+18	; 0x12
    408c:	fc 01       	movw	r30, r24
    408e:	82 81       	ldd	r24, Z+2	; 0x02
    4090:	88 23       	and	r24, r24
    4092:	51 f4       	brne	.+20     	; 0x40a8 <_ZN11interpreter7syscallEv+0x1ac>
		{
			registers[3]=0;
    4094:	89 89       	ldd	r24, Y+17	; 0x11
    4096:	9a 89       	ldd	r25, Y+18	; 0x12
    4098:	fc 01       	movw	r30, r24
    409a:	13 82       	std	Z+3, r1	; 0x03
			registers[4]=1;
    409c:	89 89       	ldd	r24, Y+17	; 0x11
    409e:	9a 89       	ldd	r25, Y+18	; 0x12
    40a0:	21 e0       	ldi	r18, 0x01	; 1
    40a2:	fc 01       	movw	r30, r24
    40a4:	24 83       	std	Z+4, r18	; 0x04
    40a6:	41 c0       	rjmp	.+130    	; 0x412a <_ZN11interpreter7syscallEv+0x22e>
		}
		else
		{
			registers[3]=registers[1]/registers[2];
    40a8:	89 89       	ldd	r24, Y+17	; 0x11
    40aa:	9a 89       	ldd	r25, Y+18	; 0x12
    40ac:	fc 01       	movw	r30, r24
    40ae:	21 81       	ldd	r18, Z+1	; 0x01
    40b0:	89 89       	ldd	r24, Y+17	; 0x11
    40b2:	9a 89       	ldd	r25, Y+18	; 0x12
    40b4:	fc 01       	movw	r30, r24
    40b6:	92 81       	ldd	r25, Z+2	; 0x02
    40b8:	82 2f       	mov	r24, r18
    40ba:	69 2f       	mov	r22, r25
    40bc:	0e 94 b4 2b 	call	0x5768	; 0x5768 <__udivmodqi4>
    40c0:	28 2f       	mov	r18, r24
    40c2:	89 89       	ldd	r24, Y+17	; 0x11
    40c4:	9a 89       	ldd	r25, Y+18	; 0x12
    40c6:	fc 01       	movw	r30, r24
    40c8:	23 83       	std	Z+3, r18	; 0x03
			registers[4]=0;                                                                                                                 
    40ca:	89 89       	ldd	r24, Y+17	; 0x11
    40cc:	9a 89       	ldd	r25, Y+18	; 0x12
    40ce:	fc 01       	movw	r30, r24
    40d0:	14 82       	std	Z+4, r1	; 0x04
    40d2:	2b c0       	rjmp	.+86     	; 0x412a <_ZN11interpreter7syscallEv+0x22e>
		}
	}
	else if (registers[0]==3)
    40d4:	89 89       	ldd	r24, Y+17	; 0x11
    40d6:	9a 89       	ldd	r25, Y+18	; 0x12
    40d8:	fc 01       	movw	r30, r24
    40da:	80 81       	ld	r24, Z
    40dc:	83 30       	cpi	r24, 0x03	; 3
    40de:	11 f4       	brne	.+4      	; 0x40e4 <_ZN11interpreter7syscallEv+0x1e8>
				
		*/
		
		
		
		return 'b';
    40e0:	82 e6       	ldi	r24, 0x62	; 98
    40e2:	24 c0       	rjmp	.+72     	; 0x412c <_ZN11interpreter7syscallEv+0x230>
		
		
	}
	else if (registers[0]==4)
    40e4:	89 89       	ldd	r24, Y+17	; 0x11
    40e6:	9a 89       	ldd	r25, Y+18	; 0x12
    40e8:	fc 01       	movw	r30, r24
    40ea:	80 81       	ld	r24, Z
    40ec:	84 30       	cpi	r24, 0x04	; 4
    40ee:	11 f4       	brne	.+4      	; 0x40f4 <_ZN11interpreter7syscallEv+0x1f8>
	{
		/*
			switch data ram bank  
		*/
		return 'b';
    40f0:	82 e6       	ldi	r24, 0x62	; 98
    40f2:	1c c0       	rjmp	.+56     	; 0x412c <_ZN11interpreter7syscallEv+0x230>
	}
	else if (registers[0]==5)
    40f4:	89 89       	ldd	r24, Y+17	; 0x11
    40f6:	9a 89       	ldd	r25, Y+18	; 0x12
    40f8:	fc 01       	movw	r30, r24
    40fa:	80 81       	ld	r24, Z
    40fc:	85 30       	cpi	r24, 0x05	; 5
    40fe:	11 f4       	brne	.+4      	; 0x4104 <_ZN11interpreter7syscallEv+0x208>
		*/
		if (registers[1]==1)
		{
			
		}
		return 'b';
    4100:	82 e6       	ldi	r24, 0x62	; 98
    4102:	14 c0       	rjmp	.+40     	; 0x412c <_ZN11interpreter7syscallEv+0x230>
		
		
	}
	else if (registers[0]==6)
    4104:	89 89       	ldd	r24, Y+17	; 0x11
    4106:	9a 89       	ldd	r25, Y+18	; 0x12
    4108:	fc 01       	movw	r30, r24
    410a:	80 81       	ld	r24, Z
    410c:	86 30       	cpi	r24, 0x06	; 6
    410e:	69 f0       	breq	.+26     	; 0x412a <_ZN11interpreter7syscallEv+0x22e>
				  		
	}



	else if (registers[0]==255)
    4110:	89 89       	ldd	r24, Y+17	; 0x11
    4112:	9a 89       	ldd	r25, Y+18	; 0x12
    4114:	fc 01       	movw	r30, r24
    4116:	80 81       	ld	r24, Z
    4118:	8f 3f       	cpi	r24, 0xFF	; 255
    411a:	39 f4       	brne	.+14     	; 0x412a <_ZN11interpreter7syscallEv+0x22e>
	{
		registers[1]=1;
    411c:	89 89       	ldd	r24, Y+17	; 0x11
    411e:	9a 89       	ldd	r25, Y+18	; 0x12
    4120:	21 e0       	ldi	r18, 0x01	; 1
    4122:	fc 01       	movw	r30, r24
    4124:	21 83       	std	Z+1, r18	; 0x01
		return 'e';
    4126:	85 e6       	ldi	r24, 0x65	; 101
    4128:	01 c0       	rjmp	.+2      	; 0x412c <_ZN11interpreter7syscallEv+0x230>
	}
	return 0;
    412a:	80 e0       	ldi	r24, 0x00	; 0
}
    412c:	62 96       	adiw	r28, 0x12	; 18
    412e:	0f b6       	in	r0, 0x3f	; 63
    4130:	f8 94       	cli
    4132:	de bf       	out	0x3e, r29	; 62
    4134:	0f be       	out	0x3f, r0	; 63
    4136:	cd bf       	out	0x3d, r28	; 61
    4138:	df 91       	pop	r29
    413a:	cf 91       	pop	r28
    413c:	08 95       	ret

0000413e <_ZN11interpreter3clfEc>:
void interpreter::clf(char flags)
{
    413e:	cf 93       	push	r28
    4140:	df 93       	push	r29
    4142:	00 d0       	rcall	.+0      	; 0x4144 <_ZN11interpreter3clfEc+0x6>
    4144:	1f 92       	push	r1
    4146:	cd b7       	in	r28, 0x3d	; 61
    4148:	de b7       	in	r29, 0x3e	; 62
    414a:	9a 83       	std	Y+2, r25	; 0x02
    414c:	89 83       	std	Y+1, r24	; 0x01
    414e:	6b 83       	std	Y+3, r22	; 0x03
	flag.clear();
    4150:	89 81       	ldd	r24, Y+1	; 0x01
    4152:	9a 81       	ldd	r25, Y+2	; 0x02
    4154:	8f 5d       	subi	r24, 0xDF	; 223
    4156:	9e 4f       	sbci	r25, 0xFE	; 254
    4158:	0e 94 49 02 	call	0x492	; 0x492 <_ZN11interpreter8cpuflags5clearEv>
}
    415c:	00 00       	nop
    415e:	0f 90       	pop	r0
    4160:	0f 90       	pop	r0
    4162:	0f 90       	pop	r0
    4164:	df 91       	pop	r29
    4166:	cf 91       	pop	r28
    4168:	08 95       	ret

0000416a <_ZN11interpreter3retEv>:
void interpreter::ret()
{
    416a:	cf 93       	push	r28
    416c:	df 93       	push	r29
    416e:	00 d0       	rcall	.+0      	; 0x4170 <_ZN11interpreter3retEv+0x6>
    4170:	cd b7       	in	r28, 0x3d	; 61
    4172:	de b7       	in	r29, 0x3e	; 62
    4174:	9a 83       	std	Y+2, r25	; 0x02
    4176:	89 83       	std	Y+1, r24	; 0x01
	
}
    4178:	00 00       	nop
    417a:	0f 90       	pop	r0
    417c:	0f 90       	pop	r0
    417e:	df 91       	pop	r29
    4180:	cf 91       	pop	r28
    4182:	08 95       	ret

00004184 <_ZN11interpreter8clearregEv>:
void interpreter::clearreg()
{
    4184:	cf 93       	push	r28
    4186:	df 93       	push	r29
    4188:	00 d0       	rcall	.+0      	; 0x418a <_ZN11interpreter8clearregEv+0x6>
    418a:	00 d0       	rcall	.+0      	; 0x418c <_ZN11interpreter8clearregEv+0x8>
    418c:	cd b7       	in	r28, 0x3d	; 61
    418e:	de b7       	in	r29, 0x3e	; 62
    4190:	9c 83       	std	Y+4, r25	; 0x04
    4192:	8b 83       	std	Y+3, r24	; 0x03
	for (int i =0;i<sizeof(registers);i++)
    4194:	1a 82       	std	Y+2, r1	; 0x02
    4196:	19 82       	std	Y+1, r1	; 0x01
    4198:	89 81       	ldd	r24, Y+1	; 0x01
    419a:	9a 81       	ldd	r25, Y+2	; 0x02
    419c:	8f 3f       	cpi	r24, 0xFF	; 255
    419e:	91 05       	cpc	r25, r1
    41a0:	70 f4       	brcc	.+28     	; 0x41be <_ZN11interpreter8clearregEv+0x3a>
	{
		registers[i]=0;
    41a2:	2b 81       	ldd	r18, Y+3	; 0x03
    41a4:	3c 81       	ldd	r19, Y+4	; 0x04
    41a6:	89 81       	ldd	r24, Y+1	; 0x01
    41a8:	9a 81       	ldd	r25, Y+2	; 0x02
    41aa:	82 0f       	add	r24, r18
    41ac:	93 1f       	adc	r25, r19
    41ae:	fc 01       	movw	r30, r24
    41b0:	10 82       	st	Z, r1
{
	
}
void interpreter::clearreg()
{
	for (int i =0;i<sizeof(registers);i++)
    41b2:	89 81       	ldd	r24, Y+1	; 0x01
    41b4:	9a 81       	ldd	r25, Y+2	; 0x02
    41b6:	01 96       	adiw	r24, 0x01	; 1
    41b8:	9a 83       	std	Y+2, r25	; 0x02
    41ba:	89 83       	std	Y+1, r24	; 0x01
    41bc:	ed cf       	rjmp	.-38     	; 0x4198 <_ZN11interpreter8clearregEv+0x14>
	{
		registers[i]=0;
	}
}
    41be:	00 00       	nop
    41c0:	0f 90       	pop	r0
    41c2:	0f 90       	pop	r0
    41c4:	0f 90       	pop	r0
    41c6:	0f 90       	pop	r0
    41c8:	df 91       	pop	r29
    41ca:	cf 91       	pop	r28
    41cc:	08 95       	ret

000041ce <_ZN11interpreterD1Ev>:
// default destructor
interpreter::~interpreter()
    41ce:	cf 93       	push	r28
    41d0:	df 93       	push	r29
    41d2:	00 d0       	rcall	.+0      	; 0x41d4 <_ZN11interpreterD1Ev+0x6>
    41d4:	cd b7       	in	r28, 0x3d	; 61
    41d6:	de b7       	in	r29, 0x3e	; 62
    41d8:	9a 83       	std	Y+2, r25	; 0x02
    41da:	89 83       	std	Y+1, r24	; 0x01
{
		baseprogram=NULL;
    41dc:	89 81       	ldd	r24, Y+1	; 0x01
    41de:	9a 81       	ldd	r25, Y+2	; 0x02
    41e0:	85 5f       	subi	r24, 0xF5	; 245
    41e2:	9e 4f       	sbci	r25, 0xFE	; 254
    41e4:	fc 01       	movw	r30, r24
    41e6:	11 82       	std	Z+1, r1	; 0x01
    41e8:	10 82       	st	Z, r1
		dataram=NULL;
    41ea:	89 81       	ldd	r24, Y+1	; 0x01
    41ec:	9a 81       	ldd	r25, Y+2	; 0x02
    41ee:	83 5f       	subi	r24, 0xF3	; 243
    41f0:	9e 4f       	sbci	r25, 0xFE	; 254
    41f2:	fc 01       	movw	r30, r24
    41f4:	11 82       	std	Z+1, r1	; 0x01
    41f6:	10 82       	st	Z, r1
		stackram=NULL;
    41f8:	89 81       	ldd	r24, Y+1	; 0x01
    41fa:	9a 81       	ldd	r25, Y+2	; 0x02
    41fc:	81 5f       	subi	r24, 0xF1	; 241
    41fe:	9e 4f       	sbci	r25, 0xFE	; 254
    4200:	fc 01       	movw	r30, r24
    4202:	11 82       	std	Z+1, r1	; 0x01
    4204:	10 82       	st	Z, r1
		
		videoram=NULL;
    4206:	89 81       	ldd	r24, Y+1	; 0x01
    4208:	9a 81       	ldd	r25, Y+2	; 0x02
    420a:	8f 5e       	subi	r24, 0xEF	; 239
    420c:	9e 4f       	sbci	r25, 0xFE	; 254
    420e:	fc 01       	movw	r30, r24
    4210:	11 82       	std	Z+1, r1	; 0x01
    4212:	10 82       	st	Z, r1
		videoinstructionram=NULL;
    4214:	89 81       	ldd	r24, Y+1	; 0x01
    4216:	9a 81       	ldd	r25, Y+2	; 0x02
    4218:	8d 5e       	subi	r24, 0xED	; 237
    421a:	9e 4f       	sbci	r25, 0xFE	; 254
    421c:	fc 01       	movw	r30, r24
    421e:	11 82       	std	Z+1, r1	; 0x01
    4220:	10 82       	st	Z, r1
		videocustomcharram=NULL;
    4222:	89 81       	ldd	r24, Y+1	; 0x01
    4224:	9a 81       	ldd	r25, Y+2	; 0x02
    4226:	8b 5e       	subi	r24, 0xEB	; 235
    4228:	9e 4f       	sbci	r25, 0xFE	; 254
    422a:	fc 01       	movw	r30, r24
    422c:	11 82       	std	Z+1, r1	; 0x01
    422e:	10 82       	st	Z, r1
    4230:	00 00       	nop
    4232:	0f 90       	pop	r0
    4234:	0f 90       	pop	r0
    4236:	df 91       	pop	r29
    4238:	cf 91       	pop	r28
    423a:	08 95       	ret

0000423c <_ZN10interruptsC1Ev>:
	{
	}
	else if ((irqprotected&0b10000000)==128)
	{
	}
}
    423c:	cf 93       	push	r28
    423e:	df 93       	push	r29
    4240:	00 d0       	rcall	.+0      	; 0x4242 <_ZN10interruptsC1Ev+0x6>
    4242:	cd b7       	in	r28, 0x3d	; 61
    4244:	de b7       	in	r29, 0x3e	; 62
    4246:	9a 83       	std	Y+2, r25	; 0x02
    4248:	89 83       	std	Y+1, r24	; 0x01
    424a:	00 00       	nop
    424c:	0f 90       	pop	r0
    424e:	0f 90       	pop	r0
    4250:	df 91       	pop	r29
    4252:	cf 91       	pop	r28
    4254:	08 95       	ret

00004256 <_ZN10interruptsD1Ev>:

// default destructor
interrupts::~interrupts()
    4256:	cf 93       	push	r28
    4258:	df 93       	push	r29
    425a:	00 d0       	rcall	.+0      	; 0x425c <_ZN10interruptsD1Ev+0x6>
    425c:	cd b7       	in	r28, 0x3d	; 61
    425e:	de b7       	in	r29, 0x3e	; 62
    4260:	9a 83       	std	Y+2, r25	; 0x02
    4262:	89 83       	std	Y+1, r24	; 0x01
{
} //~interrupts
    4264:	00 00       	nop
    4266:	0f 90       	pop	r0
    4268:	0f 90       	pop	r0
    426a:	df 91       	pop	r29
    426c:	cf 91       	pop	r28
    426e:	08 95       	ret

00004270 <_ZN8keyboardC1Em>:
	{
		buff[i]=port->readportb();
		i++;
	}
	
}
    4270:	cf 93       	push	r28
    4272:	df 93       	push	r29
    4274:	00 d0       	rcall	.+0      	; 0x4276 <_ZN8keyboardC1Em+0x6>
    4276:	00 d0       	rcall	.+0      	; 0x4278 <_ZN8keyboardC1Em+0x8>
    4278:	00 d0       	rcall	.+0      	; 0x427a <_ZN8keyboardC1Em+0xa>
    427a:	cd b7       	in	r28, 0x3d	; 61
    427c:	de b7       	in	r29, 0x3e	; 62
    427e:	9a 83       	std	Y+2, r25	; 0x02
    4280:	89 83       	std	Y+1, r24	; 0x01
    4282:	4b 83       	std	Y+3, r20	; 0x03
    4284:	5c 83       	std	Y+4, r21	; 0x04
    4286:	6d 83       	std	Y+5, r22	; 0x05
    4288:	7e 83       	std	Y+6, r23	; 0x06
    428a:	29 81       	ldd	r18, Y+1	; 0x01
    428c:	3a 81       	ldd	r19, Y+2	; 0x02
    428e:	8b 81       	ldd	r24, Y+3	; 0x03
    4290:	9c 81       	ldd	r25, Y+4	; 0x04
    4292:	ad 81       	ldd	r26, Y+5	; 0x05
    4294:	be 81       	ldd	r27, Y+6	; 0x06
    4296:	f9 01       	movw	r30, r18
    4298:	84 83       	std	Z+4, r24	; 0x04
    429a:	95 83       	std	Z+5, r25	; 0x05
    429c:	a6 83       	std	Z+6, r26	; 0x06
    429e:	b7 83       	std	Z+7, r27	; 0x07
    42a0:	00 00       	nop
    42a2:	26 96       	adiw	r28, 0x06	; 6
    42a4:	0f b6       	in	r0, 0x3f	; 63
    42a6:	f8 94       	cli
    42a8:	de bf       	out	0x3e, r29	; 62
    42aa:	0f be       	out	0x3f, r0	; 63
    42ac:	cd bf       	out	0x3d, r28	; 61
    42ae:	df 91       	pop	r29
    42b0:	cf 91       	pop	r28
    42b2:	08 95       	ret

000042b4 <_ZN8keyboard7getsizeEv>:
uint8_t keyboard::getsize()
{
    42b4:	cf 93       	push	r28
    42b6:	df 93       	push	r29
    42b8:	00 d0       	rcall	.+0      	; 0x42ba <_ZN8keyboard7getsizeEv+0x6>
    42ba:	cd b7       	in	r28, 0x3d	; 61
    42bc:	de b7       	in	r29, 0x3e	; 62
    42be:	9a 83       	std	Y+2, r25	; 0x02
    42c0:	89 83       	std	Y+1, r24	; 0x01
	addrreg->shiftout32(address+1);
    42c2:	89 81       	ldd	r24, Y+1	; 0x01
    42c4:	9a 81       	ldd	r25, Y+2	; 0x02
    42c6:	fc 01       	movw	r30, r24
    42c8:	84 81       	ldd	r24, Z+4	; 0x04
    42ca:	95 81       	ldd	r25, Z+5	; 0x05
    42cc:	a6 81       	ldd	r26, Z+6	; 0x06
    42ce:	b7 81       	ldd	r27, Z+7	; 0x07
    42d0:	01 96       	adiw	r24, 0x01	; 1
    42d2:	a1 1d       	adc	r26, r1
    42d4:	b1 1d       	adc	r27, r1
    42d6:	29 81       	ldd	r18, Y+1	; 0x01
    42d8:	3a 81       	ldd	r19, Y+2	; 0x02
    42da:	f9 01       	movw	r30, r18
    42dc:	22 85       	ldd	r18, Z+10	; 0x0a
    42de:	33 85       	ldd	r19, Z+11	; 0x0b
    42e0:	ac 01       	movw	r20, r24
    42e2:	bd 01       	movw	r22, r26
    42e4:	c9 01       	movw	r24, r18
    42e6:	0e 94 4a 24 	call	0x4894	; 0x4894 <_ZN8shiftreg10shiftout32Em>
	return 255;
    42ea:	8f ef       	ldi	r24, 0xFF	; 255
}
    42ec:	0f 90       	pop	r0
    42ee:	0f 90       	pop	r0
    42f0:	df 91       	pop	r29
    42f2:	cf 91       	pop	r28
    42f4:	08 95       	ret

000042f6 <_ZN8keyboardD1Ev>:
// default destructor
keyboard::~keyboard()
    42f6:	cf 93       	push	r28
    42f8:	df 93       	push	r29
    42fa:	00 d0       	rcall	.+0      	; 0x42fc <_ZN8keyboardD1Ev+0x6>
    42fc:	cd b7       	in	r28, 0x3d	; 61
    42fe:	de b7       	in	r29, 0x3e	; 62
    4300:	9a 83       	std	Y+2, r25	; 0x02
    4302:	89 83       	std	Y+1, r24	; 0x01
{
} //~keyboard
    4304:	00 00       	nop
    4306:	0f 90       	pop	r0
    4308:	0f 90       	pop	r0
    430a:	df 91       	pop	r29
    430c:	cf 91       	pop	r28
    430e:	08 95       	ret

00004310 <_ZN14portcontrollerC1Ev>:
		{
			PORTD&=0b01111111;
		}
	}
*/
}
    4310:	cf 93       	push	r28
    4312:	df 93       	push	r29
    4314:	00 d0       	rcall	.+0      	; 0x4316 <_ZN14portcontrollerC1Ev+0x6>
    4316:	cd b7       	in	r28, 0x3d	; 61
    4318:	de b7       	in	r29, 0x3e	; 62
    431a:	9a 83       	std	Y+2, r25	; 0x02
    431c:	89 83       	std	Y+1, r24	; 0x01
    431e:	00 00       	nop
    4320:	0f 90       	pop	r0
    4322:	0f 90       	pop	r0
    4324:	df 91       	pop	r29
    4326:	cf 91       	pop	r28
    4328:	08 95       	ret

0000432a <_ZN14portcontroller9readportdEv>:
    432a:	cf 93       	push	r28
    432c:	df 93       	push	r29
    432e:	00 d0       	rcall	.+0      	; 0x4330 <_ZN14portcontroller9readportdEv+0x6>
    4330:	cd b7       	in	r28, 0x3d	; 61
    4332:	de b7       	in	r29, 0x3e	; 62
    4334:	9a 83       	std	Y+2, r25	; 0x02
    4336:	89 83       	std	Y+1, r24	; 0x01
    4338:	89 e2       	ldi	r24, 0x29	; 41
    433a:	90 e0       	ldi	r25, 0x00	; 0
    433c:	fc 01       	movw	r30, r24
    433e:	80 81       	ld	r24, Z
    4340:	0f 90       	pop	r0
    4342:	0f 90       	pop	r0
    4344:	df 91       	pop	r29
    4346:	cf 91       	pop	r28
    4348:	08 95       	ret

0000434a <_ZN14portcontroller10writeportcEc>:
    434a:	cf 93       	push	r28
    434c:	df 93       	push	r29
    434e:	00 d0       	rcall	.+0      	; 0x4350 <_ZN14portcontroller10writeportcEc+0x6>
    4350:	1f 92       	push	r1
    4352:	cd b7       	in	r28, 0x3d	; 61
    4354:	de b7       	in	r29, 0x3e	; 62
    4356:	9a 83       	std	Y+2, r25	; 0x02
    4358:	89 83       	std	Y+1, r24	; 0x01
    435a:	6b 83       	std	Y+3, r22	; 0x03
    435c:	88 e2       	ldi	r24, 0x28	; 40
    435e:	90 e0       	ldi	r25, 0x00	; 0
    4360:	2b 81       	ldd	r18, Y+3	; 0x03
    4362:	fc 01       	movw	r30, r24
    4364:	20 83       	st	Z, r18
    4366:	00 00       	nop
    4368:	0f 90       	pop	r0
    436a:	0f 90       	pop	r0
    436c:	0f 90       	pop	r0
    436e:	df 91       	pop	r29
    4370:	cf 91       	pop	r28
    4372:	08 95       	ret

00004374 <_ZN14portcontroller9writeddraEc>:
    4374:	cf 93       	push	r28
    4376:	df 93       	push	r29
    4378:	00 d0       	rcall	.+0      	; 0x437a <_ZN14portcontroller9writeddraEc+0x6>
    437a:	1f 92       	push	r1
    437c:	cd b7       	in	r28, 0x3d	; 61
    437e:	de b7       	in	r29, 0x3e	; 62
    4380:	9a 83       	std	Y+2, r25	; 0x02
    4382:	89 83       	std	Y+1, r24	; 0x01
    4384:	6b 83       	std	Y+3, r22	; 0x03
    4386:	81 e2       	ldi	r24, 0x21	; 33
    4388:	90 e0       	ldi	r25, 0x00	; 0
    438a:	2b 81       	ldd	r18, Y+3	; 0x03
    438c:	fc 01       	movw	r30, r24
    438e:	20 83       	st	Z, r18
    4390:	00 00       	nop
    4392:	0f 90       	pop	r0
    4394:	0f 90       	pop	r0
    4396:	0f 90       	pop	r0
    4398:	df 91       	pop	r29
    439a:	cf 91       	pop	r28
    439c:	08 95       	ret

0000439e <_ZN14portcontroller9writeddrbEc>:
    439e:	cf 93       	push	r28
    43a0:	df 93       	push	r29
    43a2:	00 d0       	rcall	.+0      	; 0x43a4 <_ZN14portcontroller9writeddrbEc+0x6>
    43a4:	1f 92       	push	r1
    43a6:	cd b7       	in	r28, 0x3d	; 61
    43a8:	de b7       	in	r29, 0x3e	; 62
    43aa:	9a 83       	std	Y+2, r25	; 0x02
    43ac:	89 83       	std	Y+1, r24	; 0x01
    43ae:	6b 83       	std	Y+3, r22	; 0x03
    43b0:	84 e2       	ldi	r24, 0x24	; 36
    43b2:	90 e0       	ldi	r25, 0x00	; 0
    43b4:	2b 81       	ldd	r18, Y+3	; 0x03
    43b6:	fc 01       	movw	r30, r24
    43b8:	20 83       	st	Z, r18
    43ba:	00 00       	nop
    43bc:	0f 90       	pop	r0
    43be:	0f 90       	pop	r0
    43c0:	0f 90       	pop	r0
    43c2:	df 91       	pop	r29
    43c4:	cf 91       	pop	r28
    43c6:	08 95       	ret

000043c8 <_ZN14portcontroller9writeddrcEc>:
    43c8:	cf 93       	push	r28
    43ca:	df 93       	push	r29
    43cc:	00 d0       	rcall	.+0      	; 0x43ce <_ZN14portcontroller9writeddrcEc+0x6>
    43ce:	1f 92       	push	r1
    43d0:	cd b7       	in	r28, 0x3d	; 61
    43d2:	de b7       	in	r29, 0x3e	; 62
    43d4:	9a 83       	std	Y+2, r25	; 0x02
    43d6:	89 83       	std	Y+1, r24	; 0x01
    43d8:	6b 83       	std	Y+3, r22	; 0x03
    43da:	87 e2       	ldi	r24, 0x27	; 39
    43dc:	90 e0       	ldi	r25, 0x00	; 0
    43de:	2b 81       	ldd	r18, Y+3	; 0x03
    43e0:	fc 01       	movw	r30, r24
    43e2:	20 83       	st	Z, r18
    43e4:	00 00       	nop
    43e6:	0f 90       	pop	r0
    43e8:	0f 90       	pop	r0
    43ea:	0f 90       	pop	r0
    43ec:	df 91       	pop	r29
    43ee:	cf 91       	pop	r28
    43f0:	08 95       	ret

000043f2 <_ZN14portcontroller9writeddrdEc>:
    43f2:	cf 93       	push	r28
    43f4:	df 93       	push	r29
    43f6:	00 d0       	rcall	.+0      	; 0x43f8 <_ZN14portcontroller9writeddrdEc+0x6>
    43f8:	1f 92       	push	r1
    43fa:	cd b7       	in	r28, 0x3d	; 61
    43fc:	de b7       	in	r29, 0x3e	; 62
    43fe:	9a 83       	std	Y+2, r25	; 0x02
    4400:	89 83       	std	Y+1, r24	; 0x01
    4402:	6b 83       	std	Y+3, r22	; 0x03
    4404:	8a e2       	ldi	r24, 0x2A	; 42
    4406:	90 e0       	ldi	r25, 0x00	; 0
    4408:	2b 81       	ldd	r18, Y+3	; 0x03
    440a:	fc 01       	movw	r30, r24
    440c:	20 83       	st	Z, r18
    440e:	00 00       	nop
    4410:	0f 90       	pop	r0
    4412:	0f 90       	pop	r0
    4414:	0f 90       	pop	r0
    4416:	df 91       	pop	r29
    4418:	cf 91       	pop	r28
    441a:	08 95       	ret

0000441c <_ZN14portcontroller12digitalwriteEhb>:
    441c:	cf 93       	push	r28
    441e:	df 93       	push	r29
    4420:	00 d0       	rcall	.+0      	; 0x4422 <_ZN14portcontroller12digitalwriteEhb+0x6>
    4422:	00 d0       	rcall	.+0      	; 0x4424 <_ZN14portcontroller12digitalwriteEhb+0x8>
    4424:	cd b7       	in	r28, 0x3d	; 61
    4426:	de b7       	in	r29, 0x3e	; 62
    4428:	9a 83       	std	Y+2, r25	; 0x02
    442a:	89 83       	std	Y+1, r24	; 0x01
    442c:	6b 83       	std	Y+3, r22	; 0x03
    442e:	4c 83       	std	Y+4, r20	; 0x04
    4430:	8b 81       	ldd	r24, Y+3	; 0x03
    4432:	88 23       	and	r24, r24
    4434:	69 f0       	breq	.+26     	; 0x4450 <_ZN14portcontroller12digitalwriteEhb+0x34>
    4436:	8b 81       	ldd	r24, Y+3	; 0x03
    4438:	89 30       	cpi	r24, 0x09	; 9
    443a:	50 f4       	brcc	.+20     	; 0x4450 <_ZN14portcontroller12digitalwriteEhb+0x34>
    443c:	8b 81       	ldd	r24, Y+3	; 0x03
    443e:	2f ef       	ldi	r18, 0xFF	; 255
    4440:	28 0f       	add	r18, r24
    4442:	89 81       	ldd	r24, Y+1	; 0x01
    4444:	9a 81       	ldd	r25, Y+2	; 0x02
    4446:	4c 81       	ldd	r20, Y+4	; 0x04
    4448:	62 2f       	mov	r22, r18
    444a:	0e 94 60 22 	call	0x44c0	; 0x44c0 <_ZN14portcontroller13digitalwriteaEhb>
    444e:	30 c0       	rjmp	.+96     	; 0x44b0 <_ZN14portcontroller12digitalwriteEhb+0x94>
    4450:	8b 81       	ldd	r24, Y+3	; 0x03
    4452:	8e 30       	cpi	r24, 0x0E	; 14
    4454:	68 f0       	brcs	.+26     	; 0x4470 <_ZN14portcontroller12digitalwriteEhb+0x54>
    4456:	8b 81       	ldd	r24, Y+3	; 0x03
    4458:	86 31       	cpi	r24, 0x16	; 22
    445a:	50 f4       	brcc	.+20     	; 0x4470 <_ZN14portcontroller12digitalwriteEhb+0x54>
    445c:	8b 81       	ldd	r24, Y+3	; 0x03
    445e:	23 ef       	ldi	r18, 0xF3	; 243
    4460:	28 0f       	add	r18, r24
    4462:	89 81       	ldd	r24, Y+1	; 0x01
    4464:	9a 81       	ldd	r25, Y+2	; 0x02
    4466:	4c 81       	ldd	r20, Y+4	; 0x04
    4468:	62 2f       	mov	r22, r18
    446a:	0e 94 60 22 	call	0x44c0	; 0x44c0 <_ZN14portcontroller13digitalwriteaEhb>
    446e:	20 c0       	rjmp	.+64     	; 0x44b0 <_ZN14portcontroller12digitalwriteEhb+0x94>
    4470:	8b 81       	ldd	r24, Y+3	; 0x03
    4472:	86 31       	cpi	r24, 0x16	; 22
    4474:	68 f0       	brcs	.+26     	; 0x4490 <_ZN14portcontroller12digitalwriteEhb+0x74>
    4476:	8b 81       	ldd	r24, Y+3	; 0x03
    4478:	8e 31       	cpi	r24, 0x1E	; 30
    447a:	50 f4       	brcc	.+20     	; 0x4490 <_ZN14portcontroller12digitalwriteEhb+0x74>
    447c:	8b 81       	ldd	r24, Y+3	; 0x03
    447e:	2b ee       	ldi	r18, 0xEB	; 235
    4480:	28 0f       	add	r18, r24
    4482:	89 81       	ldd	r24, Y+1	; 0x01
    4484:	9a 81       	ldd	r25, Y+2	; 0x02
    4486:	4c 81       	ldd	r20, Y+4	; 0x04
    4488:	62 2f       	mov	r22, r18
    448a:	0e 94 60 22 	call	0x44c0	; 0x44c0 <_ZN14portcontroller13digitalwriteaEhb>
    448e:	10 c0       	rjmp	.+32     	; 0x44b0 <_ZN14portcontroller12digitalwriteEhb+0x94>
    4490:	8b 81       	ldd	r24, Y+3	; 0x03
    4492:	81 32       	cpi	r24, 0x21	; 33
    4494:	68 f0       	brcs	.+26     	; 0x44b0 <_ZN14portcontroller12digitalwriteEhb+0x94>
    4496:	8b 81       	ldd	r24, Y+3	; 0x03
    4498:	89 32       	cpi	r24, 0x29	; 41
    449a:	50 f4       	brcc	.+20     	; 0x44b0 <_ZN14portcontroller12digitalwriteEhb+0x94>
    449c:	8b 81       	ldd	r24, Y+3	; 0x03
    449e:	20 ee       	ldi	r18, 0xE0	; 224
    44a0:	28 0f       	add	r18, r24
    44a2:	89 81       	ldd	r24, Y+1	; 0x01
    44a4:	9a 81       	ldd	r25, Y+2	; 0x02
    44a6:	4c 81       	ldd	r20, Y+4	; 0x04
    44a8:	62 2f       	mov	r22, r18
    44aa:	0e 94 60 22 	call	0x44c0	; 0x44c0 <_ZN14portcontroller13digitalwriteaEhb>
    44ae:	00 c0       	rjmp	.+0      	; 0x44b0 <_ZN14portcontroller12digitalwriteEhb+0x94>
    44b0:	00 00       	nop
    44b2:	0f 90       	pop	r0
    44b4:	0f 90       	pop	r0
    44b6:	0f 90       	pop	r0
    44b8:	0f 90       	pop	r0
    44ba:	df 91       	pop	r29
    44bc:	cf 91       	pop	r28
    44be:	08 95       	ret

000044c0 <_ZN14portcontroller13digitalwriteaEhb>:
    44c0:	cf 93       	push	r28
    44c2:	df 93       	push	r29
    44c4:	00 d0       	rcall	.+0      	; 0x44c6 <_ZN14portcontroller13digitalwriteaEhb+0x6>
    44c6:	00 d0       	rcall	.+0      	; 0x44c8 <_ZN14portcontroller13digitalwriteaEhb+0x8>
    44c8:	cd b7       	in	r28, 0x3d	; 61
    44ca:	de b7       	in	r29, 0x3e	; 62
    44cc:	9a 83       	std	Y+2, r25	; 0x02
    44ce:	89 83       	std	Y+1, r24	; 0x01
    44d0:	6b 83       	std	Y+3, r22	; 0x03
    44d2:	4c 83       	std	Y+4, r20	; 0x04
    44d4:	8c 81       	ldd	r24, Y+4	; 0x04
    44d6:	88 23       	and	r24, r24
    44d8:	a9 f0       	breq	.+42     	; 0x4504 <_ZN14portcontroller13digitalwriteaEhb+0x44>
    44da:	82 e2       	ldi	r24, 0x22	; 34
    44dc:	90 e0       	ldi	r25, 0x00	; 0
    44de:	22 e2       	ldi	r18, 0x22	; 34
    44e0:	30 e0       	ldi	r19, 0x00	; 0
    44e2:	f9 01       	movw	r30, r18
    44e4:	20 81       	ld	r18, Z
    44e6:	62 2f       	mov	r22, r18
    44e8:	2b 81       	ldd	r18, Y+3	; 0x03
    44ea:	42 2f       	mov	r20, r18
    44ec:	50 e0       	ldi	r21, 0x00	; 0
    44ee:	21 e0       	ldi	r18, 0x01	; 1
    44f0:	30 e0       	ldi	r19, 0x00	; 0
    44f2:	02 c0       	rjmp	.+4      	; 0x44f8 <_ZN14portcontroller13digitalwriteaEhb+0x38>
    44f4:	22 0f       	add	r18, r18
    44f6:	33 1f       	adc	r19, r19
    44f8:	4a 95       	dec	r20
    44fa:	e2 f7       	brpl	.-8      	; 0x44f4 <_ZN14portcontroller13digitalwriteaEhb+0x34>
    44fc:	26 2b       	or	r18, r22
    44fe:	fc 01       	movw	r30, r24
    4500:	20 83       	st	Z, r18
    4502:	15 c0       	rjmp	.+42     	; 0x452e <_ZN14portcontroller13digitalwriteaEhb+0x6e>
    4504:	82 e2       	ldi	r24, 0x22	; 34
    4506:	90 e0       	ldi	r25, 0x00	; 0
    4508:	22 e2       	ldi	r18, 0x22	; 34
    450a:	30 e0       	ldi	r19, 0x00	; 0
    450c:	f9 01       	movw	r30, r18
    450e:	20 81       	ld	r18, Z
    4510:	62 2f       	mov	r22, r18
    4512:	2b 81       	ldd	r18, Y+3	; 0x03
    4514:	42 2f       	mov	r20, r18
    4516:	50 e0       	ldi	r21, 0x00	; 0
    4518:	21 e0       	ldi	r18, 0x01	; 1
    451a:	30 e0       	ldi	r19, 0x00	; 0
    451c:	02 c0       	rjmp	.+4      	; 0x4522 <_ZN14portcontroller13digitalwriteaEhb+0x62>
    451e:	22 0f       	add	r18, r18
    4520:	33 1f       	adc	r19, r19
    4522:	4a 95       	dec	r20
    4524:	e2 f7       	brpl	.-8      	; 0x451e <_ZN14portcontroller13digitalwriteaEhb+0x5e>
    4526:	20 95       	com	r18
    4528:	26 23       	and	r18, r22
    452a:	fc 01       	movw	r30, r24
    452c:	20 83       	st	Z, r18
    452e:	00 00       	nop
    4530:	0f 90       	pop	r0
    4532:	0f 90       	pop	r0
    4534:	0f 90       	pop	r0
    4536:	0f 90       	pop	r0
    4538:	df 91       	pop	r29
    453a:	cf 91       	pop	r28
    453c:	08 95       	ret

0000453e <_ZN14portcontrollerD1Ev>:

// default destructor
portcontroller::~portcontroller()
    453e:	cf 93       	push	r28
    4540:	df 93       	push	r29
    4542:	00 d0       	rcall	.+0      	; 0x4544 <_ZN14portcontrollerD1Ev+0x6>
    4544:	cd b7       	in	r28, 0x3d	; 61
    4546:	de b7       	in	r29, 0x3e	; 62
    4548:	9a 83       	std	Y+2, r25	; 0x02
    454a:	89 83       	std	Y+1, r24	; 0x01
{
} //~portcontroller
    454c:	00 00       	nop
    454e:	0f 90       	pop	r0
    4550:	0f 90       	pop	r0
    4552:	df 91       	pop	r29
    4554:	cf 91       	pop	r28
    4556:	08 95       	ret

00004558 <_ZN8shiftregC1EhhhP14portcontroller>:
	}
	port->digitalwrite(latchclkpin,true);

	port->digitalwrite(latchclkpin,false);

}
    4558:	0f 93       	push	r16
    455a:	1f 93       	push	r17
    455c:	cf 93       	push	r28
    455e:	df 93       	push	r29
    4560:	cd b7       	in	r28, 0x3d	; 61
    4562:	de b7       	in	r29, 0x3e	; 62
    4564:	27 97       	sbiw	r28, 0x07	; 7
    4566:	0f b6       	in	r0, 0x3f	; 63
    4568:	f8 94       	cli
    456a:	de bf       	out	0x3e, r29	; 62
    456c:	0f be       	out	0x3f, r0	; 63
    456e:	cd bf       	out	0x3d, r28	; 61
    4570:	9a 83       	std	Y+2, r25	; 0x02
    4572:	89 83       	std	Y+1, r24	; 0x01
    4574:	6b 83       	std	Y+3, r22	; 0x03
    4576:	4c 83       	std	Y+4, r20	; 0x04
    4578:	2d 83       	std	Y+5, r18	; 0x05
    457a:	1f 83       	std	Y+7, r17	; 0x07
    457c:	0e 83       	std	Y+6, r16	; 0x06
    457e:	89 81       	ldd	r24, Y+1	; 0x01
    4580:	9a 81       	ldd	r25, Y+2	; 0x02
    4582:	2b 81       	ldd	r18, Y+3	; 0x03
    4584:	fc 01       	movw	r30, r24
    4586:	20 83       	st	Z, r18
    4588:	89 81       	ldd	r24, Y+1	; 0x01
    458a:	9a 81       	ldd	r25, Y+2	; 0x02
    458c:	2c 81       	ldd	r18, Y+4	; 0x04
    458e:	fc 01       	movw	r30, r24
    4590:	21 83       	std	Z+1, r18	; 0x01
    4592:	89 81       	ldd	r24, Y+1	; 0x01
    4594:	9a 81       	ldd	r25, Y+2	; 0x02
    4596:	2d 81       	ldd	r18, Y+5	; 0x05
    4598:	fc 01       	movw	r30, r24
    459a:	22 83       	std	Z+2, r18	; 0x02
    459c:	89 81       	ldd	r24, Y+1	; 0x01
    459e:	9a 81       	ldd	r25, Y+2	; 0x02
    45a0:	2e 81       	ldd	r18, Y+6	; 0x06
    45a2:	3f 81       	ldd	r19, Y+7	; 0x07
    45a4:	fc 01       	movw	r30, r24
    45a6:	34 87       	std	Z+12, r19	; 0x0c
    45a8:	23 87       	std	Z+11, r18	; 0x0b
    45aa:	89 81       	ldd	r24, Y+1	; 0x01
    45ac:	9a 81       	ldd	r25, Y+2	; 0x02
    45ae:	fc 01       	movw	r30, r24
    45b0:	13 82       	std	Z+3, r1	; 0x03
    45b2:	fc 01       	movw	r30, r24
    45b4:	14 82       	std	Z+4, r1	; 0x04
    45b6:	fc 01       	movw	r30, r24
    45b8:	15 82       	std	Z+5, r1	; 0x05
    45ba:	fc 01       	movw	r30, r24
    45bc:	16 82       	std	Z+6, r1	; 0x06
    45be:	fc 01       	movw	r30, r24
    45c0:	17 82       	std	Z+7, r1	; 0x07
    45c2:	fc 01       	movw	r30, r24
    45c4:	10 86       	std	Z+8, r1	; 0x08
    45c6:	fc 01       	movw	r30, r24
    45c8:	11 86       	std	Z+9, r1	; 0x09
    45ca:	fc 01       	movw	r30, r24
    45cc:	12 86       	std	Z+10, r1	; 0x0a
    45ce:	00 00       	nop
    45d0:	27 96       	adiw	r28, 0x07	; 7
    45d2:	0f b6       	in	r0, 0x3f	; 63
    45d4:	f8 94       	cli
    45d6:	de bf       	out	0x3e, r29	; 62
    45d8:	0f be       	out	0x3f, r0	; 63
    45da:	cd bf       	out	0x3d, r28	; 61
    45dc:	df 91       	pop	r29
    45de:	cf 91       	pop	r28
    45e0:	1f 91       	pop	r17
    45e2:	0f 91       	pop	r16
    45e4:	08 95       	ret

000045e6 <_ZN8shiftreg9shiftout8Eh>:
    45e6:	cf 93       	push	r28
    45e8:	df 93       	push	r29
    45ea:	00 d0       	rcall	.+0      	; 0x45ec <_ZN8shiftreg9shiftout8Eh+0x6>
    45ec:	00 d0       	rcall	.+0      	; 0x45ee <_ZN8shiftreg9shiftout8Eh+0x8>
    45ee:	cd b7       	in	r28, 0x3d	; 61
    45f0:	de b7       	in	r29, 0x3e	; 62
    45f2:	9b 83       	std	Y+3, r25	; 0x03
    45f4:	8a 83       	std	Y+2, r24	; 0x02
    45f6:	6c 83       	std	Y+4, r22	; 0x04
    45f8:	19 82       	std	Y+1, r1	; 0x01
    45fa:	89 81       	ldd	r24, Y+1	; 0x01
    45fc:	88 30       	cpi	r24, 0x08	; 8
    45fe:	08 f0       	brcs	.+2      	; 0x4602 <_ZN8shiftreg9shiftout8Eh+0x1c>
    4600:	4c c0       	rjmp	.+152    	; 0x469a <_ZN8shiftreg9shiftout8Eh+0xb4>
    4602:	8c 81       	ldd	r24, Y+4	; 0x04
    4604:	88 2f       	mov	r24, r24
    4606:	90 e0       	ldi	r25, 0x00	; 0
    4608:	29 81       	ldd	r18, Y+1	; 0x01
    460a:	22 2f       	mov	r18, r18
    460c:	30 e0       	ldi	r19, 0x00	; 0
    460e:	47 e0       	ldi	r20, 0x07	; 7
    4610:	50 e0       	ldi	r21, 0x00	; 0
    4612:	ba 01       	movw	r22, r20
    4614:	62 1b       	sub	r22, r18
    4616:	73 0b       	sbc	r23, r19
    4618:	9b 01       	movw	r18, r22
    461a:	02 c0       	rjmp	.+4      	; 0x4620 <_ZN8shiftreg9shiftout8Eh+0x3a>
    461c:	95 95       	asr	r25
    461e:	87 95       	ror	r24
    4620:	2a 95       	dec	r18
    4622:	e2 f7       	brpl	.-8      	; 0x461c <_ZN8shiftreg9shiftout8Eh+0x36>
    4624:	01 97       	sbiw	r24, 0x01	; 1
    4626:	71 f4       	brne	.+28     	; 0x4644 <_ZN8shiftreg9shiftout8Eh+0x5e>
    4628:	8a 81       	ldd	r24, Y+2	; 0x02
    462a:	9b 81       	ldd	r25, Y+3	; 0x03
    462c:	fc 01       	movw	r30, r24
    462e:	20 81       	ld	r18, Z
    4630:	8a 81       	ldd	r24, Y+2	; 0x02
    4632:	9b 81       	ldd	r25, Y+3	; 0x03
    4634:	fc 01       	movw	r30, r24
    4636:	83 85       	ldd	r24, Z+11	; 0x0b
    4638:	94 85       	ldd	r25, Z+12	; 0x0c
    463a:	41 e0       	ldi	r20, 0x01	; 1
    463c:	62 2f       	mov	r22, r18
    463e:	0e 94 0e 22 	call	0x441c	; 0x441c <_ZN14portcontroller12digitalwriteEhb>
    4642:	0d c0       	rjmp	.+26     	; 0x465e <_ZN8shiftreg9shiftout8Eh+0x78>
    4644:	8a 81       	ldd	r24, Y+2	; 0x02
    4646:	9b 81       	ldd	r25, Y+3	; 0x03
    4648:	fc 01       	movw	r30, r24
    464a:	20 81       	ld	r18, Z
    464c:	8a 81       	ldd	r24, Y+2	; 0x02
    464e:	9b 81       	ldd	r25, Y+3	; 0x03
    4650:	fc 01       	movw	r30, r24
    4652:	83 85       	ldd	r24, Z+11	; 0x0b
    4654:	94 85       	ldd	r25, Z+12	; 0x0c
    4656:	40 e0       	ldi	r20, 0x00	; 0
    4658:	62 2f       	mov	r22, r18
    465a:	0e 94 0e 22 	call	0x441c	; 0x441c <_ZN14portcontroller12digitalwriteEhb>
    465e:	8a 81       	ldd	r24, Y+2	; 0x02
    4660:	9b 81       	ldd	r25, Y+3	; 0x03
    4662:	fc 01       	movw	r30, r24
    4664:	21 81       	ldd	r18, Z+1	; 0x01
    4666:	8a 81       	ldd	r24, Y+2	; 0x02
    4668:	9b 81       	ldd	r25, Y+3	; 0x03
    466a:	fc 01       	movw	r30, r24
    466c:	83 85       	ldd	r24, Z+11	; 0x0b
    466e:	94 85       	ldd	r25, Z+12	; 0x0c
    4670:	41 e0       	ldi	r20, 0x01	; 1
    4672:	62 2f       	mov	r22, r18
    4674:	0e 94 0e 22 	call	0x441c	; 0x441c <_ZN14portcontroller12digitalwriteEhb>
    4678:	8a 81       	ldd	r24, Y+2	; 0x02
    467a:	9b 81       	ldd	r25, Y+3	; 0x03
    467c:	fc 01       	movw	r30, r24
    467e:	21 81       	ldd	r18, Z+1	; 0x01
    4680:	8a 81       	ldd	r24, Y+2	; 0x02
    4682:	9b 81       	ldd	r25, Y+3	; 0x03
    4684:	fc 01       	movw	r30, r24
    4686:	83 85       	ldd	r24, Z+11	; 0x0b
    4688:	94 85       	ldd	r25, Z+12	; 0x0c
    468a:	40 e0       	ldi	r20, 0x00	; 0
    468c:	62 2f       	mov	r22, r18
    468e:	0e 94 0e 22 	call	0x441c	; 0x441c <_ZN14portcontroller12digitalwriteEhb>
    4692:	89 81       	ldd	r24, Y+1	; 0x01
    4694:	8f 5f       	subi	r24, 0xFF	; 255
    4696:	89 83       	std	Y+1, r24	; 0x01
    4698:	b0 cf       	rjmp	.-160    	; 0x45fa <_ZN8shiftreg9shiftout8Eh+0x14>
    469a:	8a 81       	ldd	r24, Y+2	; 0x02
    469c:	9b 81       	ldd	r25, Y+3	; 0x03
    469e:	fc 01       	movw	r30, r24
    46a0:	22 81       	ldd	r18, Z+2	; 0x02
    46a2:	8a 81       	ldd	r24, Y+2	; 0x02
    46a4:	9b 81       	ldd	r25, Y+3	; 0x03
    46a6:	fc 01       	movw	r30, r24
    46a8:	83 85       	ldd	r24, Z+11	; 0x0b
    46aa:	94 85       	ldd	r25, Z+12	; 0x0c
    46ac:	41 e0       	ldi	r20, 0x01	; 1
    46ae:	62 2f       	mov	r22, r18
    46b0:	0e 94 0e 22 	call	0x441c	; 0x441c <_ZN14portcontroller12digitalwriteEhb>
    46b4:	8a 81       	ldd	r24, Y+2	; 0x02
    46b6:	9b 81       	ldd	r25, Y+3	; 0x03
    46b8:	fc 01       	movw	r30, r24
    46ba:	22 81       	ldd	r18, Z+2	; 0x02
    46bc:	8a 81       	ldd	r24, Y+2	; 0x02
    46be:	9b 81       	ldd	r25, Y+3	; 0x03
    46c0:	fc 01       	movw	r30, r24
    46c2:	83 85       	ldd	r24, Z+11	; 0x0b
    46c4:	94 85       	ldd	r25, Z+12	; 0x0c
    46c6:	40 e0       	ldi	r20, 0x00	; 0
    46c8:	62 2f       	mov	r22, r18
    46ca:	0e 94 0e 22 	call	0x441c	; 0x441c <_ZN14portcontroller12digitalwriteEhb>
    46ce:	00 00       	nop
    46d0:	0f 90       	pop	r0
    46d2:	0f 90       	pop	r0
    46d4:	0f 90       	pop	r0
    46d6:	0f 90       	pop	r0
    46d8:	df 91       	pop	r29
    46da:	cf 91       	pop	r28
    46dc:	08 95       	ret

000046de <_ZN8shiftreg10shiftout16Ej>:
    46de:	cf 93       	push	r28
    46e0:	df 93       	push	r29
    46e2:	cd b7       	in	r28, 0x3d	; 61
    46e4:	de b7       	in	r29, 0x3e	; 62
    46e6:	28 97       	sbiw	r28, 0x08	; 8
    46e8:	0f b6       	in	r0, 0x3f	; 63
    46ea:	f8 94       	cli
    46ec:	de bf       	out	0x3e, r29	; 62
    46ee:	0f be       	out	0x3f, r0	; 63
    46f0:	cd bf       	out	0x3d, r28	; 61
    46f2:	9e 83       	std	Y+6, r25	; 0x06
    46f4:	8d 83       	std	Y+5, r24	; 0x05
    46f6:	78 87       	std	Y+8, r23	; 0x08
    46f8:	6f 83       	std	Y+7, r22	; 0x07
    46fa:	8f 81       	ldd	r24, Y+7	; 0x07
    46fc:	98 85       	ldd	r25, Y+8	; 0x08
    46fe:	89 2f       	mov	r24, r25
    4700:	99 27       	eor	r25, r25
    4702:	8b 83       	std	Y+3, r24	; 0x03
    4704:	8f 81       	ldd	r24, Y+7	; 0x07
    4706:	8c 83       	std	Y+4, r24	; 0x04
    4708:	19 82       	std	Y+1, r1	; 0x01
    470a:	89 81       	ldd	r24, Y+1	; 0x01
    470c:	80 31       	cpi	r24, 0x10	; 16
    470e:	08 f0       	brcs	.+2      	; 0x4712 <_ZN8shiftreg10shiftout16Ej+0x34>
    4710:	4c c0       	rjmp	.+152    	; 0x47aa <_ZN8shiftreg10shiftout16Ej+0xcc>
    4712:	8c 81       	ldd	r24, Y+4	; 0x04
    4714:	88 2f       	mov	r24, r24
    4716:	90 e0       	ldi	r25, 0x00	; 0
    4718:	29 81       	ldd	r18, Y+1	; 0x01
    471a:	22 2f       	mov	r18, r18
    471c:	30 e0       	ldi	r19, 0x00	; 0
    471e:	4f e0       	ldi	r20, 0x0F	; 15
    4720:	50 e0       	ldi	r21, 0x00	; 0
    4722:	ba 01       	movw	r22, r20
    4724:	62 1b       	sub	r22, r18
    4726:	73 0b       	sbc	r23, r19
    4728:	9b 01       	movw	r18, r22
    472a:	02 c0       	rjmp	.+4      	; 0x4730 <_ZN8shiftreg10shiftout16Ej+0x52>
    472c:	95 95       	asr	r25
    472e:	87 95       	ror	r24
    4730:	2a 95       	dec	r18
    4732:	e2 f7       	brpl	.-8      	; 0x472c <_ZN8shiftreg10shiftout16Ej+0x4e>
    4734:	01 97       	sbiw	r24, 0x01	; 1
    4736:	71 f4       	brne	.+28     	; 0x4754 <_ZN8shiftreg10shiftout16Ej+0x76>
    4738:	8d 81       	ldd	r24, Y+5	; 0x05
    473a:	9e 81       	ldd	r25, Y+6	; 0x06
    473c:	fc 01       	movw	r30, r24
    473e:	20 81       	ld	r18, Z
    4740:	8d 81       	ldd	r24, Y+5	; 0x05
    4742:	9e 81       	ldd	r25, Y+6	; 0x06
    4744:	fc 01       	movw	r30, r24
    4746:	83 85       	ldd	r24, Z+11	; 0x0b
    4748:	94 85       	ldd	r25, Z+12	; 0x0c
    474a:	41 e0       	ldi	r20, 0x01	; 1
    474c:	62 2f       	mov	r22, r18
    474e:	0e 94 0e 22 	call	0x441c	; 0x441c <_ZN14portcontroller12digitalwriteEhb>
    4752:	0d c0       	rjmp	.+26     	; 0x476e <_ZN8shiftreg10shiftout16Ej+0x90>
    4754:	8d 81       	ldd	r24, Y+5	; 0x05
    4756:	9e 81       	ldd	r25, Y+6	; 0x06
    4758:	fc 01       	movw	r30, r24
    475a:	20 81       	ld	r18, Z
    475c:	8d 81       	ldd	r24, Y+5	; 0x05
    475e:	9e 81       	ldd	r25, Y+6	; 0x06
    4760:	fc 01       	movw	r30, r24
    4762:	83 85       	ldd	r24, Z+11	; 0x0b
    4764:	94 85       	ldd	r25, Z+12	; 0x0c
    4766:	40 e0       	ldi	r20, 0x00	; 0
    4768:	62 2f       	mov	r22, r18
    476a:	0e 94 0e 22 	call	0x441c	; 0x441c <_ZN14portcontroller12digitalwriteEhb>
    476e:	8d 81       	ldd	r24, Y+5	; 0x05
    4770:	9e 81       	ldd	r25, Y+6	; 0x06
    4772:	fc 01       	movw	r30, r24
    4774:	21 81       	ldd	r18, Z+1	; 0x01
    4776:	8d 81       	ldd	r24, Y+5	; 0x05
    4778:	9e 81       	ldd	r25, Y+6	; 0x06
    477a:	fc 01       	movw	r30, r24
    477c:	83 85       	ldd	r24, Z+11	; 0x0b
    477e:	94 85       	ldd	r25, Z+12	; 0x0c
    4780:	41 e0       	ldi	r20, 0x01	; 1
    4782:	62 2f       	mov	r22, r18
    4784:	0e 94 0e 22 	call	0x441c	; 0x441c <_ZN14portcontroller12digitalwriteEhb>
    4788:	8d 81       	ldd	r24, Y+5	; 0x05
    478a:	9e 81       	ldd	r25, Y+6	; 0x06
    478c:	fc 01       	movw	r30, r24
    478e:	21 81       	ldd	r18, Z+1	; 0x01
    4790:	8d 81       	ldd	r24, Y+5	; 0x05
    4792:	9e 81       	ldd	r25, Y+6	; 0x06
    4794:	fc 01       	movw	r30, r24
    4796:	83 85       	ldd	r24, Z+11	; 0x0b
    4798:	94 85       	ldd	r25, Z+12	; 0x0c
    479a:	40 e0       	ldi	r20, 0x00	; 0
    479c:	62 2f       	mov	r22, r18
    479e:	0e 94 0e 22 	call	0x441c	; 0x441c <_ZN14portcontroller12digitalwriteEhb>
    47a2:	89 81       	ldd	r24, Y+1	; 0x01
    47a4:	8f 5f       	subi	r24, 0xFF	; 255
    47a6:	89 83       	std	Y+1, r24	; 0x01
    47a8:	b0 cf       	rjmp	.-160    	; 0x470a <_ZN8shiftreg10shiftout16Ej+0x2c>
    47aa:	1a 82       	std	Y+2, r1	; 0x02
    47ac:	8a 81       	ldd	r24, Y+2	; 0x02
    47ae:	88 30       	cpi	r24, 0x08	; 8
    47b0:	08 f0       	brcs	.+2      	; 0x47b4 <_ZN8shiftreg10shiftout16Ej+0xd6>
    47b2:	4c c0       	rjmp	.+152    	; 0x484c <_ZN8shiftreg10shiftout16Ej+0x16e>
    47b4:	8b 81       	ldd	r24, Y+3	; 0x03
    47b6:	88 2f       	mov	r24, r24
    47b8:	90 e0       	ldi	r25, 0x00	; 0
    47ba:	2a 81       	ldd	r18, Y+2	; 0x02
    47bc:	22 2f       	mov	r18, r18
    47be:	30 e0       	ldi	r19, 0x00	; 0
    47c0:	47 e0       	ldi	r20, 0x07	; 7
    47c2:	50 e0       	ldi	r21, 0x00	; 0
    47c4:	ba 01       	movw	r22, r20
    47c6:	62 1b       	sub	r22, r18
    47c8:	73 0b       	sbc	r23, r19
    47ca:	9b 01       	movw	r18, r22
    47cc:	02 c0       	rjmp	.+4      	; 0x47d2 <_ZN8shiftreg10shiftout16Ej+0xf4>
    47ce:	95 95       	asr	r25
    47d0:	87 95       	ror	r24
    47d2:	2a 95       	dec	r18
    47d4:	e2 f7       	brpl	.-8      	; 0x47ce <_ZN8shiftreg10shiftout16Ej+0xf0>
    47d6:	01 97       	sbiw	r24, 0x01	; 1
    47d8:	71 f4       	brne	.+28     	; 0x47f6 <_ZN8shiftreg10shiftout16Ej+0x118>
    47da:	8d 81       	ldd	r24, Y+5	; 0x05
    47dc:	9e 81       	ldd	r25, Y+6	; 0x06
    47de:	fc 01       	movw	r30, r24
    47e0:	20 81       	ld	r18, Z
    47e2:	8d 81       	ldd	r24, Y+5	; 0x05
    47e4:	9e 81       	ldd	r25, Y+6	; 0x06
    47e6:	fc 01       	movw	r30, r24
    47e8:	83 85       	ldd	r24, Z+11	; 0x0b
    47ea:	94 85       	ldd	r25, Z+12	; 0x0c
    47ec:	41 e0       	ldi	r20, 0x01	; 1
    47ee:	62 2f       	mov	r22, r18
    47f0:	0e 94 0e 22 	call	0x441c	; 0x441c <_ZN14portcontroller12digitalwriteEhb>
    47f4:	0d c0       	rjmp	.+26     	; 0x4810 <_ZN8shiftreg10shiftout16Ej+0x132>
    47f6:	8d 81       	ldd	r24, Y+5	; 0x05
    47f8:	9e 81       	ldd	r25, Y+6	; 0x06
    47fa:	fc 01       	movw	r30, r24
    47fc:	20 81       	ld	r18, Z
    47fe:	8d 81       	ldd	r24, Y+5	; 0x05
    4800:	9e 81       	ldd	r25, Y+6	; 0x06
    4802:	fc 01       	movw	r30, r24
    4804:	83 85       	ldd	r24, Z+11	; 0x0b
    4806:	94 85       	ldd	r25, Z+12	; 0x0c
    4808:	40 e0       	ldi	r20, 0x00	; 0
    480a:	62 2f       	mov	r22, r18
    480c:	0e 94 0e 22 	call	0x441c	; 0x441c <_ZN14portcontroller12digitalwriteEhb>
    4810:	8d 81       	ldd	r24, Y+5	; 0x05
    4812:	9e 81       	ldd	r25, Y+6	; 0x06
    4814:	fc 01       	movw	r30, r24
    4816:	21 81       	ldd	r18, Z+1	; 0x01
    4818:	8d 81       	ldd	r24, Y+5	; 0x05
    481a:	9e 81       	ldd	r25, Y+6	; 0x06
    481c:	fc 01       	movw	r30, r24
    481e:	83 85       	ldd	r24, Z+11	; 0x0b
    4820:	94 85       	ldd	r25, Z+12	; 0x0c
    4822:	41 e0       	ldi	r20, 0x01	; 1
    4824:	62 2f       	mov	r22, r18
    4826:	0e 94 0e 22 	call	0x441c	; 0x441c <_ZN14portcontroller12digitalwriteEhb>
    482a:	8d 81       	ldd	r24, Y+5	; 0x05
    482c:	9e 81       	ldd	r25, Y+6	; 0x06
    482e:	fc 01       	movw	r30, r24
    4830:	21 81       	ldd	r18, Z+1	; 0x01
    4832:	8d 81       	ldd	r24, Y+5	; 0x05
    4834:	9e 81       	ldd	r25, Y+6	; 0x06
    4836:	fc 01       	movw	r30, r24
    4838:	83 85       	ldd	r24, Z+11	; 0x0b
    483a:	94 85       	ldd	r25, Z+12	; 0x0c
    483c:	40 e0       	ldi	r20, 0x00	; 0
    483e:	62 2f       	mov	r22, r18
    4840:	0e 94 0e 22 	call	0x441c	; 0x441c <_ZN14portcontroller12digitalwriteEhb>
    4844:	8a 81       	ldd	r24, Y+2	; 0x02
    4846:	8f 5f       	subi	r24, 0xFF	; 255
    4848:	8a 83       	std	Y+2, r24	; 0x02
    484a:	b0 cf       	rjmp	.-160    	; 0x47ac <_ZN8shiftreg10shiftout16Ej+0xce>
    484c:	8d 81       	ldd	r24, Y+5	; 0x05
    484e:	9e 81       	ldd	r25, Y+6	; 0x06
    4850:	fc 01       	movw	r30, r24
    4852:	22 81       	ldd	r18, Z+2	; 0x02
    4854:	8d 81       	ldd	r24, Y+5	; 0x05
    4856:	9e 81       	ldd	r25, Y+6	; 0x06
    4858:	fc 01       	movw	r30, r24
    485a:	83 85       	ldd	r24, Z+11	; 0x0b
    485c:	94 85       	ldd	r25, Z+12	; 0x0c
    485e:	41 e0       	ldi	r20, 0x01	; 1
    4860:	62 2f       	mov	r22, r18
    4862:	0e 94 0e 22 	call	0x441c	; 0x441c <_ZN14portcontroller12digitalwriteEhb>
    4866:	8d 81       	ldd	r24, Y+5	; 0x05
    4868:	9e 81       	ldd	r25, Y+6	; 0x06
    486a:	fc 01       	movw	r30, r24
    486c:	22 81       	ldd	r18, Z+2	; 0x02
    486e:	8d 81       	ldd	r24, Y+5	; 0x05
    4870:	9e 81       	ldd	r25, Y+6	; 0x06
    4872:	fc 01       	movw	r30, r24
    4874:	83 85       	ldd	r24, Z+11	; 0x0b
    4876:	94 85       	ldd	r25, Z+12	; 0x0c
    4878:	40 e0       	ldi	r20, 0x00	; 0
    487a:	62 2f       	mov	r22, r18
    487c:	0e 94 0e 22 	call	0x441c	; 0x441c <_ZN14portcontroller12digitalwriteEhb>
    4880:	00 00       	nop
    4882:	28 96       	adiw	r28, 0x08	; 8
    4884:	0f b6       	in	r0, 0x3f	; 63
    4886:	f8 94       	cli
    4888:	de bf       	out	0x3e, r29	; 62
    488a:	0f be       	out	0x3f, r0	; 63
    488c:	cd bf       	out	0x3d, r28	; 61
    488e:	df 91       	pop	r29
    4890:	cf 91       	pop	r28
    4892:	08 95       	ret

00004894 <_ZN8shiftreg10shiftout32Em>:
    4894:	cf 93       	push	r28
    4896:	df 93       	push	r29
    4898:	cd b7       	in	r28, 0x3d	; 61
    489a:	de b7       	in	r29, 0x3e	; 62
    489c:	27 97       	sbiw	r28, 0x07	; 7
    489e:	0f b6       	in	r0, 0x3f	; 63
    48a0:	f8 94       	cli
    48a2:	de bf       	out	0x3e, r29	; 62
    48a4:	0f be       	out	0x3f, r0	; 63
    48a6:	cd bf       	out	0x3d, r28	; 61
    48a8:	9b 83       	std	Y+3, r25	; 0x03
    48aa:	8a 83       	std	Y+2, r24	; 0x02
    48ac:	4c 83       	std	Y+4, r20	; 0x04
    48ae:	5d 83       	std	Y+5, r21	; 0x05
    48b0:	6e 83       	std	Y+6, r22	; 0x06
    48b2:	7f 83       	std	Y+7, r23	; 0x07
    48b4:	19 82       	std	Y+1, r1	; 0x01
    48b6:	89 81       	ldd	r24, Y+1	; 0x01
    48b8:	80 32       	cpi	r24, 0x20	; 32
    48ba:	08 f0       	brcs	.+2      	; 0x48be <_ZN8shiftreg10shiftout32Em+0x2a>
    48bc:	4f c0       	rjmp	.+158    	; 0x495c <_ZN8shiftreg10shiftout32Em+0xc8>
    48be:	89 81       	ldd	r24, Y+1	; 0x01
    48c0:	88 2f       	mov	r24, r24
    48c2:	90 e0       	ldi	r25, 0x00	; 0
    48c4:	2f e1       	ldi	r18, 0x1F	; 31
    48c6:	30 e0       	ldi	r19, 0x00	; 0
    48c8:	28 1b       	sub	r18, r24
    48ca:	39 0b       	sbc	r19, r25
    48cc:	8c 81       	ldd	r24, Y+4	; 0x04
    48ce:	9d 81       	ldd	r25, Y+5	; 0x05
    48d0:	ae 81       	ldd	r26, Y+6	; 0x06
    48d2:	bf 81       	ldd	r27, Y+7	; 0x07
    48d4:	04 c0       	rjmp	.+8      	; 0x48de <_ZN8shiftreg10shiftout32Em+0x4a>
    48d6:	b6 95       	lsr	r27
    48d8:	a7 95       	ror	r26
    48da:	97 95       	ror	r25
    48dc:	87 95       	ror	r24
    48de:	2a 95       	dec	r18
    48e0:	d2 f7       	brpl	.-12     	; 0x48d6 <_ZN8shiftreg10shiftout32Em+0x42>
    48e2:	01 97       	sbiw	r24, 0x01	; 1
    48e4:	a1 05       	cpc	r26, r1
    48e6:	b1 05       	cpc	r27, r1
    48e8:	71 f4       	brne	.+28     	; 0x4906 <_ZN8shiftreg10shiftout32Em+0x72>
    48ea:	8a 81       	ldd	r24, Y+2	; 0x02
    48ec:	9b 81       	ldd	r25, Y+3	; 0x03
    48ee:	fc 01       	movw	r30, r24
    48f0:	20 81       	ld	r18, Z
    48f2:	8a 81       	ldd	r24, Y+2	; 0x02
    48f4:	9b 81       	ldd	r25, Y+3	; 0x03
    48f6:	fc 01       	movw	r30, r24
    48f8:	83 85       	ldd	r24, Z+11	; 0x0b
    48fa:	94 85       	ldd	r25, Z+12	; 0x0c
    48fc:	41 e0       	ldi	r20, 0x01	; 1
    48fe:	62 2f       	mov	r22, r18
    4900:	0e 94 0e 22 	call	0x441c	; 0x441c <_ZN14portcontroller12digitalwriteEhb>
    4904:	0d c0       	rjmp	.+26     	; 0x4920 <_ZN8shiftreg10shiftout32Em+0x8c>
    4906:	8a 81       	ldd	r24, Y+2	; 0x02
    4908:	9b 81       	ldd	r25, Y+3	; 0x03
    490a:	fc 01       	movw	r30, r24
    490c:	20 81       	ld	r18, Z
    490e:	8a 81       	ldd	r24, Y+2	; 0x02
    4910:	9b 81       	ldd	r25, Y+3	; 0x03
    4912:	fc 01       	movw	r30, r24
    4914:	83 85       	ldd	r24, Z+11	; 0x0b
    4916:	94 85       	ldd	r25, Z+12	; 0x0c
    4918:	40 e0       	ldi	r20, 0x00	; 0
    491a:	62 2f       	mov	r22, r18
    491c:	0e 94 0e 22 	call	0x441c	; 0x441c <_ZN14portcontroller12digitalwriteEhb>
    4920:	8a 81       	ldd	r24, Y+2	; 0x02
    4922:	9b 81       	ldd	r25, Y+3	; 0x03
    4924:	fc 01       	movw	r30, r24
    4926:	21 81       	ldd	r18, Z+1	; 0x01
    4928:	8a 81       	ldd	r24, Y+2	; 0x02
    492a:	9b 81       	ldd	r25, Y+3	; 0x03
    492c:	fc 01       	movw	r30, r24
    492e:	83 85       	ldd	r24, Z+11	; 0x0b
    4930:	94 85       	ldd	r25, Z+12	; 0x0c
    4932:	41 e0       	ldi	r20, 0x01	; 1
    4934:	62 2f       	mov	r22, r18
    4936:	0e 94 0e 22 	call	0x441c	; 0x441c <_ZN14portcontroller12digitalwriteEhb>
    493a:	8a 81       	ldd	r24, Y+2	; 0x02
    493c:	9b 81       	ldd	r25, Y+3	; 0x03
    493e:	fc 01       	movw	r30, r24
    4940:	21 81       	ldd	r18, Z+1	; 0x01
    4942:	8a 81       	ldd	r24, Y+2	; 0x02
    4944:	9b 81       	ldd	r25, Y+3	; 0x03
    4946:	fc 01       	movw	r30, r24
    4948:	83 85       	ldd	r24, Z+11	; 0x0b
    494a:	94 85       	ldd	r25, Z+12	; 0x0c
    494c:	40 e0       	ldi	r20, 0x00	; 0
    494e:	62 2f       	mov	r22, r18
    4950:	0e 94 0e 22 	call	0x441c	; 0x441c <_ZN14portcontroller12digitalwriteEhb>
    4954:	89 81       	ldd	r24, Y+1	; 0x01
    4956:	8f 5f       	subi	r24, 0xFF	; 255
    4958:	89 83       	std	Y+1, r24	; 0x01
    495a:	ad cf       	rjmp	.-166    	; 0x48b6 <_ZN8shiftreg10shiftout32Em+0x22>
    495c:	8a 81       	ldd	r24, Y+2	; 0x02
    495e:	9b 81       	ldd	r25, Y+3	; 0x03
    4960:	fc 01       	movw	r30, r24
    4962:	22 81       	ldd	r18, Z+2	; 0x02
    4964:	8a 81       	ldd	r24, Y+2	; 0x02
    4966:	9b 81       	ldd	r25, Y+3	; 0x03
    4968:	fc 01       	movw	r30, r24
    496a:	83 85       	ldd	r24, Z+11	; 0x0b
    496c:	94 85       	ldd	r25, Z+12	; 0x0c
    496e:	41 e0       	ldi	r20, 0x01	; 1
    4970:	62 2f       	mov	r22, r18
    4972:	0e 94 0e 22 	call	0x441c	; 0x441c <_ZN14portcontroller12digitalwriteEhb>
    4976:	8a 81       	ldd	r24, Y+2	; 0x02
    4978:	9b 81       	ldd	r25, Y+3	; 0x03
    497a:	fc 01       	movw	r30, r24
    497c:	22 81       	ldd	r18, Z+2	; 0x02
    497e:	8a 81       	ldd	r24, Y+2	; 0x02
    4980:	9b 81       	ldd	r25, Y+3	; 0x03
    4982:	fc 01       	movw	r30, r24
    4984:	83 85       	ldd	r24, Z+11	; 0x0b
    4986:	94 85       	ldd	r25, Z+12	; 0x0c
    4988:	40 e0       	ldi	r20, 0x00	; 0
    498a:	62 2f       	mov	r22, r18
    498c:	0e 94 0e 22 	call	0x441c	; 0x441c <_ZN14portcontroller12digitalwriteEhb>
    4990:	00 00       	nop
    4992:	27 96       	adiw	r28, 0x07	; 7
    4994:	0f b6       	in	r0, 0x3f	; 63
    4996:	f8 94       	cli
    4998:	de bf       	out	0x3e, r29	; 62
    499a:	0f be       	out	0x3f, r0	; 63
    499c:	cd bf       	out	0x3d, r28	; 61
    499e:	df 91       	pop	r29
    49a0:	cf 91       	pop	r28
    49a2:	08 95       	ret

000049a4 <_ZN8shiftregD1Ev>:
// default destructor
shiftreg::~shiftreg()
    49a4:	cf 93       	push	r28
    49a6:	df 93       	push	r29
    49a8:	00 d0       	rcall	.+0      	; 0x49aa <_ZN8shiftregD1Ev+0x6>
    49aa:	cd b7       	in	r28, 0x3d	; 61
    49ac:	de b7       	in	r29, 0x3e	; 62
    49ae:	9a 83       	std	Y+2, r25	; 0x02
    49b0:	89 83       	std	Y+1, r24	; 0x01
{
} //~shiftreg
    49b2:	00 00       	nop
    49b4:	0f 90       	pop	r0
    49b6:	0f 90       	pop	r0
    49b8:	df 91       	pop	r29
    49ba:	cf 91       	pop	r28
    49bc:	08 95       	ret

000049be <_ZN3romC1EP14portcontrollerP8shiftregy>:
}

uint16_t rom::getaddr()
{
	return address;
}
    49be:	cf 92       	push	r12
    49c0:	df 92       	push	r13
    49c2:	ef 92       	push	r14
    49c4:	ff 92       	push	r15
    49c6:	0f 93       	push	r16
    49c8:	1f 93       	push	r17
    49ca:	cf 93       	push	r28
    49cc:	df 93       	push	r29
    49ce:	cd b7       	in	r28, 0x3d	; 61
    49d0:	de b7       	in	r29, 0x3e	; 62
    49d2:	2e 97       	sbiw	r28, 0x0e	; 14
    49d4:	0f b6       	in	r0, 0x3f	; 63
    49d6:	f8 94       	cli
    49d8:	de bf       	out	0x3e, r29	; 62
    49da:	0f be       	out	0x3f, r0	; 63
    49dc:	cd bf       	out	0x3d, r28	; 61
    49de:	9a 83       	std	Y+2, r25	; 0x02
    49e0:	89 83       	std	Y+1, r24	; 0x01
    49e2:	7c 83       	std	Y+4, r23	; 0x04
    49e4:	6b 83       	std	Y+3, r22	; 0x03
    49e6:	5e 83       	std	Y+6, r21	; 0x06
    49e8:	4d 83       	std	Y+5, r20	; 0x05
    49ea:	cf 82       	std	Y+7, r12	; 0x07
    49ec:	d8 86       	std	Y+8, r13	; 0x08
    49ee:	e9 86       	std	Y+9, r14	; 0x09
    49f0:	fa 86       	std	Y+10, r15	; 0x0a
    49f2:	0b 87       	std	Y+11, r16	; 0x0b
    49f4:	1c 87       	std	Y+12, r17	; 0x0c
    49f6:	2d 87       	std	Y+13, r18	; 0x0d
    49f8:	3e 87       	std	Y+14, r19	; 0x0e
    49fa:	89 81       	ldd	r24, Y+1	; 0x01
    49fc:	9a 81       	ldd	r25, Y+2	; 0x02
    49fe:	2b 81       	ldd	r18, Y+3	; 0x03
    4a00:	3c 81       	ldd	r19, Y+4	; 0x04
    4a02:	fc 01       	movw	r30, r24
    4a04:	35 83       	std	Z+5, r19	; 0x05
    4a06:	24 83       	std	Z+4, r18	; 0x04
    4a08:	89 81       	ldd	r24, Y+1	; 0x01
    4a0a:	9a 81       	ldd	r25, Y+2	; 0x02
    4a0c:	2d 81       	ldd	r18, Y+5	; 0x05
    4a0e:	3e 81       	ldd	r19, Y+6	; 0x06
    4a10:	fc 01       	movw	r30, r24
    4a12:	37 83       	std	Z+7, r19	; 0x07
    4a14:	26 83       	std	Z+6, r18	; 0x06
    4a16:	2f 81       	ldd	r18, Y+7	; 0x07
    4a18:	38 85       	ldd	r19, Y+8	; 0x08
    4a1a:	89 81       	ldd	r24, Y+1	; 0x01
    4a1c:	9a 81       	ldd	r25, Y+2	; 0x02
    4a1e:	fc 01       	movw	r30, r24
    4a20:	33 83       	std	Z+3, r19	; 0x03
    4a22:	22 83       	std	Z+2, r18	; 0x02
    4a24:	89 81       	ldd	r24, Y+1	; 0x01
    4a26:	9a 81       	ldd	r25, Y+2	; 0x02
    4a28:	fc 01       	movw	r30, r24
    4a2a:	11 82       	std	Z+1, r1	; 0x01
    4a2c:	10 82       	st	Z, r1
    4a2e:	00 00       	nop
    4a30:	2e 96       	adiw	r28, 0x0e	; 14
    4a32:	0f b6       	in	r0, 0x3f	; 63
    4a34:	f8 94       	cli
    4a36:	de bf       	out	0x3e, r29	; 62
    4a38:	0f be       	out	0x3f, r0	; 63
    4a3a:	cd bf       	out	0x3d, r28	; 61
    4a3c:	df 91       	pop	r29
    4a3e:	cf 91       	pop	r28
    4a40:	1f 91       	pop	r17
    4a42:	0f 91       	pop	r16
    4a44:	ff 90       	pop	r15
    4a46:	ef 90       	pop	r14
    4a48:	df 90       	pop	r13
    4a4a:	cf 90       	pop	r12
    4a4c:	08 95       	ret

00004a4e <_ZN3rom4readEi>:
    4a4e:	cf 93       	push	r28
    4a50:	df 93       	push	r29
    4a52:	00 d0       	rcall	.+0      	; 0x4a54 <_ZN3rom4readEi+0x6>
    4a54:	00 d0       	rcall	.+0      	; 0x4a56 <_ZN3rom4readEi+0x8>
    4a56:	cd b7       	in	r28, 0x3d	; 61
    4a58:	de b7       	in	r29, 0x3e	; 62
    4a5a:	9a 83       	std	Y+2, r25	; 0x02
    4a5c:	89 83       	std	Y+1, r24	; 0x01
    4a5e:	7c 83       	std	Y+4, r23	; 0x04
    4a60:	6b 83       	std	Y+3, r22	; 0x03
    4a62:	2b 81       	ldd	r18, Y+3	; 0x03
    4a64:	3c 81       	ldd	r19, Y+4	; 0x04
    4a66:	89 81       	ldd	r24, Y+1	; 0x01
    4a68:	9a 81       	ldd	r25, Y+2	; 0x02
    4a6a:	fc 01       	movw	r30, r24
    4a6c:	86 81       	ldd	r24, Z+6	; 0x06
    4a6e:	97 81       	ldd	r25, Z+7	; 0x07
    4a70:	b9 01       	movw	r22, r18
    4a72:	0e 94 6f 23 	call	0x46de	; 0x46de <_ZN8shiftreg10shiftout16Ej>
    4a76:	89 81       	ldd	r24, Y+1	; 0x01
    4a78:	9a 81       	ldd	r25, Y+2	; 0x02
    4a7a:	fc 01       	movw	r30, r24
    4a7c:	84 81       	ldd	r24, Z+4	; 0x04
    4a7e:	95 81       	ldd	r25, Z+5	; 0x05
    4a80:	0e 94 95 21 	call	0x432a	; 0x432a <_ZN14portcontroller9readportdEv>
    4a84:	0f 90       	pop	r0
    4a86:	0f 90       	pop	r0
    4a88:	0f 90       	pop	r0
    4a8a:	0f 90       	pop	r0
    4a8c:	df 91       	pop	r29
    4a8e:	cf 91       	pop	r28
    4a90:	08 95       	ret

00004a92 <_ZN3romD1Ev>:

// default destructor
rom::~rom()
    4a92:	cf 93       	push	r28
    4a94:	df 93       	push	r29
    4a96:	00 d0       	rcall	.+0      	; 0x4a98 <_ZN3romD1Ev+0x6>
    4a98:	cd b7       	in	r28, 0x3d	; 61
    4a9a:	de b7       	in	r29, 0x3e	; 62
    4a9c:	9a 83       	std	Y+2, r25	; 0x02
    4a9e:	89 83       	std	Y+1, r24	; 0x01
{
} //~rom
    4aa0:	00 00       	nop
    4aa2:	0f 90       	pop	r0
    4aa4:	0f 90       	pop	r0
    4aa6:	df 91       	pop	r29
    4aa8:	cf 91       	pop	r28
    4aaa:	08 95       	ret

00004aac <_ZN3ramC1EP14portcontrollerP8shiftreghm>:
		dataptr->shiftout8(data);
	}
	portptr->digitalwrite(wepin,false);
	_delay_ms(1);
	portptr->digitalwrite(wepin,true);
}
    4aac:	ef 92       	push	r14
    4aae:	ff 92       	push	r15
    4ab0:	0f 93       	push	r16
    4ab2:	1f 93       	push	r17
    4ab4:	cf 93       	push	r28
    4ab6:	df 93       	push	r29
    4ab8:	cd b7       	in	r28, 0x3d	; 61
    4aba:	de b7       	in	r29, 0x3e	; 62
    4abc:	2b 97       	sbiw	r28, 0x0b	; 11
    4abe:	0f b6       	in	r0, 0x3f	; 63
    4ac0:	f8 94       	cli
    4ac2:	de bf       	out	0x3e, r29	; 62
    4ac4:	0f be       	out	0x3f, r0	; 63
    4ac6:	cd bf       	out	0x3d, r28	; 61
    4ac8:	9a 83       	std	Y+2, r25	; 0x02
    4aca:	89 83       	std	Y+1, r24	; 0x01
    4acc:	7c 83       	std	Y+4, r23	; 0x04
    4ace:	6b 83       	std	Y+3, r22	; 0x03
    4ad0:	5e 83       	std	Y+6, r21	; 0x06
    4ad2:	4d 83       	std	Y+5, r20	; 0x05
    4ad4:	2f 83       	std	Y+7, r18	; 0x07
    4ad6:	e8 86       	std	Y+8, r14	; 0x08
    4ad8:	f9 86       	std	Y+9, r15	; 0x09
    4ada:	0a 87       	std	Y+10, r16	; 0x0a
    4adc:	1b 87       	std	Y+11, r17	; 0x0b
    4ade:	89 81       	ldd	r24, Y+1	; 0x01
    4ae0:	9a 81       	ldd	r25, Y+2	; 0x02
    4ae2:	2b 81       	ldd	r18, Y+3	; 0x03
    4ae4:	3c 81       	ldd	r19, Y+4	; 0x04
    4ae6:	fc 01       	movw	r30, r24
    4ae8:	33 83       	std	Z+3, r19	; 0x03
    4aea:	22 83       	std	Z+2, r18	; 0x02
    4aec:	89 81       	ldd	r24, Y+1	; 0x01
    4aee:	9a 81       	ldd	r25, Y+2	; 0x02
    4af0:	2d 81       	ldd	r18, Y+5	; 0x05
    4af2:	3e 81       	ldd	r19, Y+6	; 0x06
    4af4:	fc 01       	movw	r30, r24
    4af6:	35 83       	std	Z+5, r19	; 0x05
    4af8:	24 83       	std	Z+4, r18	; 0x04
    4afa:	89 81       	ldd	r24, Y+1	; 0x01
    4afc:	9a 81       	ldd	r25, Y+2	; 0x02
    4afe:	2f 81       	ldd	r18, Y+7	; 0x07
    4b00:	fc 01       	movw	r30, r24
    4b02:	21 83       	std	Z+1, r18	; 0x01
    4b04:	29 81       	ldd	r18, Y+1	; 0x01
    4b06:	3a 81       	ldd	r19, Y+2	; 0x02
    4b08:	88 85       	ldd	r24, Y+8	; 0x08
    4b0a:	99 85       	ldd	r25, Y+9	; 0x09
    4b0c:	aa 85       	ldd	r26, Y+10	; 0x0a
    4b0e:	bb 85       	ldd	r27, Y+11	; 0x0b
    4b10:	f9 01       	movw	r30, r18
    4b12:	80 87       	std	Z+8, r24	; 0x08
    4b14:	91 87       	std	Z+9, r25	; 0x09
    4b16:	a2 87       	std	Z+10, r26	; 0x0a
    4b18:	b3 87       	std	Z+11, r27	; 0x0b
    4b1a:	89 81       	ldd	r24, Y+1	; 0x01
    4b1c:	9a 81       	ldd	r25, Y+2	; 0x02
    4b1e:	fc 01       	movw	r30, r24
    4b20:	10 82       	st	Z, r1
    4b22:	89 81       	ldd	r24, Y+1	; 0x01
    4b24:	9a 81       	ldd	r25, Y+2	; 0x02
    4b26:	fc 01       	movw	r30, r24
    4b28:	21 81       	ldd	r18, Z+1	; 0x01
    4b2a:	89 81       	ldd	r24, Y+1	; 0x01
    4b2c:	9a 81       	ldd	r25, Y+2	; 0x02
    4b2e:	fc 01       	movw	r30, r24
    4b30:	82 81       	ldd	r24, Z+2	; 0x02
    4b32:	93 81       	ldd	r25, Z+3	; 0x03
    4b34:	41 e0       	ldi	r20, 0x01	; 1
    4b36:	62 2f       	mov	r22, r18
    4b38:	0e 94 0e 22 	call	0x441c	; 0x441c <_ZN14portcontroller12digitalwriteEhb>
    4b3c:	00 00       	nop
    4b3e:	2b 96       	adiw	r28, 0x0b	; 11
    4b40:	0f b6       	in	r0, 0x3f	; 63
    4b42:	f8 94       	cli
    4b44:	de bf       	out	0x3e, r29	; 62
    4b46:	0f be       	out	0x3f, r0	; 63
    4b48:	cd bf       	out	0x3d, r28	; 61
    4b4a:	df 91       	pop	r29
    4b4c:	cf 91       	pop	r28
    4b4e:	1f 91       	pop	r17
    4b50:	0f 91       	pop	r16
    4b52:	ff 90       	pop	r15
    4b54:	ef 90       	pop	r14
    4b56:	08 95       	ret

00004b58 <_ZN3ram4readEi>:
    4b58:	cf 93       	push	r28
    4b5a:	df 93       	push	r29
    4b5c:	00 d0       	rcall	.+0      	; 0x4b5e <_ZN3ram4readEi+0x6>
    4b5e:	00 d0       	rcall	.+0      	; 0x4b60 <_ZN3ram4readEi+0x8>
    4b60:	cd b7       	in	r28, 0x3d	; 61
    4b62:	de b7       	in	r29, 0x3e	; 62
    4b64:	9a 83       	std	Y+2, r25	; 0x02
    4b66:	89 83       	std	Y+1, r24	; 0x01
    4b68:	7c 83       	std	Y+4, r23	; 0x04
    4b6a:	6b 83       	std	Y+3, r22	; 0x03
    4b6c:	2b 81       	ldd	r18, Y+3	; 0x03
    4b6e:	3c 81       	ldd	r19, Y+4	; 0x04
    4b70:	89 81       	ldd	r24, Y+1	; 0x01
    4b72:	9a 81       	ldd	r25, Y+2	; 0x02
    4b74:	fc 01       	movw	r30, r24
    4b76:	84 81       	ldd	r24, Z+4	; 0x04
    4b78:	95 81       	ldd	r25, Z+5	; 0x05
    4b7a:	b9 01       	movw	r22, r18
    4b7c:	0e 94 6f 23 	call	0x46de	; 0x46de <_ZN8shiftreg10shiftout16Ej>
    4b80:	89 81       	ldd	r24, Y+1	; 0x01
    4b82:	9a 81       	ldd	r25, Y+2	; 0x02
    4b84:	fc 01       	movw	r30, r24
    4b86:	82 81       	ldd	r24, Z+2	; 0x02
    4b88:	93 81       	ldd	r25, Z+3	; 0x03
    4b8a:	0e 94 95 21 	call	0x432a	; 0x432a <_ZN14portcontroller9readportdEv>
    4b8e:	0f 90       	pop	r0
    4b90:	0f 90       	pop	r0
    4b92:	0f 90       	pop	r0
    4b94:	0f 90       	pop	r0
    4b96:	df 91       	pop	r29
    4b98:	cf 91       	pop	r28
    4b9a:	08 95       	ret

00004b9c <_ZN3ram5writeEjc>:
    4b9c:	cf 93       	push	r28
    4b9e:	df 93       	push	r29
    4ba0:	cd b7       	in	r28, 0x3d	; 61
    4ba2:	de b7       	in	r29, 0x3e	; 62
    4ba4:	63 97       	sbiw	r28, 0x13	; 19
    4ba6:	0f b6       	in	r0, 0x3f	; 63
    4ba8:	f8 94       	cli
    4baa:	de bf       	out	0x3e, r29	; 62
    4bac:	0f be       	out	0x3f, r0	; 63
    4bae:	cd bf       	out	0x3d, r28	; 61
    4bb0:	98 8b       	std	Y+16, r25	; 0x10
    4bb2:	8f 87       	std	Y+15, r24	; 0x0f
    4bb4:	7a 8b       	std	Y+18, r23	; 0x12
    4bb6:	69 8b       	std	Y+17, r22	; 0x11
    4bb8:	4b 8b       	std	Y+19, r20	; 0x13
    4bba:	8f 85       	ldd	r24, Y+15	; 0x0f
    4bbc:	98 89       	ldd	r25, Y+16	; 0x10
    4bbe:	fc 01       	movw	r30, r24
    4bc0:	84 81       	ldd	r24, Z+4	; 0x04
    4bc2:	95 81       	ldd	r25, Z+5	; 0x05
    4bc4:	29 89       	ldd	r18, Y+17	; 0x11
    4bc6:	3a 89       	ldd	r19, Y+18	; 0x12
    4bc8:	b9 01       	movw	r22, r18
    4bca:	0e 94 6f 23 	call	0x46de	; 0x46de <_ZN8shiftreg10shiftout16Ej>
    4bce:	8f 85       	ldd	r24, Y+15	; 0x0f
    4bd0:	98 89       	ldd	r25, Y+16	; 0x10
    4bd2:	fc 01       	movw	r30, r24
    4bd4:	86 81       	ldd	r24, Z+6	; 0x06
    4bd6:	97 81       	ldd	r25, Z+7	; 0x07
    4bd8:	89 2b       	or	r24, r25
    4bda:	49 f4       	brne	.+18     	; 0x4bee <_ZN3ram5writeEjc+0x52>
    4bdc:	8f 85       	ldd	r24, Y+15	; 0x0f
    4bde:	98 89       	ldd	r25, Y+16	; 0x10
    4be0:	fc 01       	movw	r30, r24
    4be2:	82 81       	ldd	r24, Z+2	; 0x02
    4be4:	93 81       	ldd	r25, Z+3	; 0x03
    4be6:	6b 89       	ldd	r22, Y+19	; 0x13
    4be8:	0e 94 a5 21 	call	0x434a	; 0x434a <_ZN14portcontroller10writeportcEc>
    4bec:	08 c0       	rjmp	.+16     	; 0x4bfe <_ZN3ram5writeEjc+0x62>
    4bee:	8f 85       	ldd	r24, Y+15	; 0x0f
    4bf0:	98 89       	ldd	r25, Y+16	; 0x10
    4bf2:	fc 01       	movw	r30, r24
    4bf4:	86 81       	ldd	r24, Z+6	; 0x06
    4bf6:	97 81       	ldd	r25, Z+7	; 0x07
    4bf8:	6b 89       	ldd	r22, Y+19	; 0x13
    4bfa:	0e 94 f3 22 	call	0x45e6	; 0x45e6 <_ZN8shiftreg9shiftout8Eh>
    4bfe:	8f 85       	ldd	r24, Y+15	; 0x0f
    4c00:	98 89       	ldd	r25, Y+16	; 0x10
    4c02:	fc 01       	movw	r30, r24
    4c04:	21 81       	ldd	r18, Z+1	; 0x01
    4c06:	8f 85       	ldd	r24, Y+15	; 0x0f
    4c08:	98 89       	ldd	r25, Y+16	; 0x10
    4c0a:	fc 01       	movw	r30, r24
    4c0c:	82 81       	ldd	r24, Z+2	; 0x02
    4c0e:	93 81       	ldd	r25, Z+3	; 0x03
    4c10:	40 e0       	ldi	r20, 0x00	; 0
    4c12:	62 2f       	mov	r22, r18
    4c14:	0e 94 0e 22 	call	0x441c	; 0x441c <_ZN14portcontroller12digitalwriteEhb>
    4c18:	80 e0       	ldi	r24, 0x00	; 0
    4c1a:	90 e0       	ldi	r25, 0x00	; 0
    4c1c:	a0 e8       	ldi	r26, 0x80	; 128
    4c1e:	bf e3       	ldi	r27, 0x3F	; 63
    4c20:	89 83       	std	Y+1, r24	; 0x01
    4c22:	9a 83       	std	Y+2, r25	; 0x02
    4c24:	ab 83       	std	Y+3, r26	; 0x03
    4c26:	bc 83       	std	Y+4, r27	; 0x04
    4c28:	20 e0       	ldi	r18, 0x00	; 0
    4c2a:	30 e0       	ldi	r19, 0x00	; 0
    4c2c:	4a e7       	ldi	r20, 0x7A	; 122
    4c2e:	53 e4       	ldi	r21, 0x43	; 67
    4c30:	69 81       	ldd	r22, Y+1	; 0x01
    4c32:	7a 81       	ldd	r23, Y+2	; 0x02
    4c34:	8b 81       	ldd	r24, Y+3	; 0x03
    4c36:	9c 81       	ldd	r25, Y+4	; 0x04
    4c38:	0e 94 1f 2b 	call	0x563e	; 0x563e <__mulsf3>
    4c3c:	dc 01       	movw	r26, r24
    4c3e:	cb 01       	movw	r24, r22
    4c40:	8d 83       	std	Y+5, r24	; 0x05
    4c42:	9e 83       	std	Y+6, r25	; 0x06
    4c44:	af 83       	std	Y+7, r26	; 0x07
    4c46:	b8 87       	std	Y+8, r27	; 0x08
    4c48:	20 e0       	ldi	r18, 0x00	; 0
    4c4a:	30 e0       	ldi	r19, 0x00	; 0
    4c4c:	40 e8       	ldi	r20, 0x80	; 128
    4c4e:	5f e3       	ldi	r21, 0x3F	; 63
    4c50:	6d 81       	ldd	r22, Y+5	; 0x05
    4c52:	7e 81       	ldd	r23, Y+6	; 0x06
    4c54:	8f 81       	ldd	r24, Y+7	; 0x07
    4c56:	98 85       	ldd	r25, Y+8	; 0x08
    4c58:	0e 94 99 2a 	call	0x5532	; 0x5532 <__cmpsf2>
    4c5c:	88 23       	and	r24, r24
    4c5e:	2c f4       	brge	.+10     	; 0x4c6a <_ZN3ram5writeEjc+0xce>
    4c60:	81 e0       	ldi	r24, 0x01	; 1
    4c62:	90 e0       	ldi	r25, 0x00	; 0
    4c64:	9a 87       	std	Y+10, r25	; 0x0a
    4c66:	89 87       	std	Y+9, r24	; 0x09
    4c68:	3e c0       	rjmp	.+124    	; 0x4ce6 <_ZN3ram5writeEjc+0x14a>
    4c6a:	20 e0       	ldi	r18, 0x00	; 0
    4c6c:	3f ef       	ldi	r19, 0xFF	; 255
    4c6e:	4f e7       	ldi	r20, 0x7F	; 127
    4c70:	57 e4       	ldi	r21, 0x47	; 71
    4c72:	6d 81       	ldd	r22, Y+5	; 0x05
    4c74:	7e 81       	ldd	r23, Y+6	; 0x06
    4c76:	8f 81       	ldd	r24, Y+7	; 0x07
    4c78:	98 85       	ldd	r25, Y+8	; 0x08
    4c7a:	0e 94 1a 2b 	call	0x5634	; 0x5634 <__gesf2>
    4c7e:	18 16       	cp	r1, r24
    4c80:	44 f5       	brge	.+80     	; 0x4cd2 <_ZN3ram5writeEjc+0x136>
    4c82:	20 e0       	ldi	r18, 0x00	; 0
    4c84:	30 e0       	ldi	r19, 0x00	; 0
    4c86:	40 e2       	ldi	r20, 0x20	; 32
    4c88:	51 e4       	ldi	r21, 0x41	; 65
    4c8a:	69 81       	ldd	r22, Y+1	; 0x01
    4c8c:	7a 81       	ldd	r23, Y+2	; 0x02
    4c8e:	8b 81       	ldd	r24, Y+3	; 0x03
    4c90:	9c 81       	ldd	r25, Y+4	; 0x04
    4c92:	0e 94 1f 2b 	call	0x563e	; 0x563e <__mulsf3>
    4c96:	dc 01       	movw	r26, r24
    4c98:	cb 01       	movw	r24, r22
    4c9a:	bc 01       	movw	r22, r24
    4c9c:	cd 01       	movw	r24, r26
    4c9e:	0e 94 9e 2a 	call	0x553c	; 0x553c <__fixunssfsi>
    4ca2:	dc 01       	movw	r26, r24
    4ca4:	cb 01       	movw	r24, r22
    4ca6:	9a 87       	std	Y+10, r25	; 0x0a
    4ca8:	89 87       	std	Y+9, r24	; 0x09
    4caa:	89 85       	ldd	r24, Y+9	; 0x09
    4cac:	9a 85       	ldd	r25, Y+10	; 0x0a
    4cae:	89 2b       	or	r24, r25
    4cb0:	21 f1       	breq	.+72     	; 0x4cfa <_ZN3ram5writeEjc+0x15e>
    4cb2:	89 e1       	ldi	r24, 0x19	; 25
    4cb4:	90 e0       	ldi	r25, 0x00	; 0
    4cb6:	9c 87       	std	Y+12, r25	; 0x0c
    4cb8:	8b 87       	std	Y+11, r24	; 0x0b
    4cba:	8b 85       	ldd	r24, Y+11	; 0x0b
    4cbc:	9c 85       	ldd	r25, Y+12	; 0x0c
    4cbe:	01 97       	sbiw	r24, 0x01	; 1
    4cc0:	f1 f7       	brne	.-4      	; 0x4cbe <_ZN3ram5writeEjc+0x122>
    4cc2:	9c 87       	std	Y+12, r25	; 0x0c
    4cc4:	8b 87       	std	Y+11, r24	; 0x0b
    4cc6:	89 85       	ldd	r24, Y+9	; 0x09
    4cc8:	9a 85       	ldd	r25, Y+10	; 0x0a
    4cca:	01 97       	sbiw	r24, 0x01	; 1
    4ccc:	9a 87       	std	Y+10, r25	; 0x0a
    4cce:	89 87       	std	Y+9, r24	; 0x09
    4cd0:	ec cf       	rjmp	.-40     	; 0x4caa <_ZN3ram5writeEjc+0x10e>
    4cd2:	6d 81       	ldd	r22, Y+5	; 0x05
    4cd4:	7e 81       	ldd	r23, Y+6	; 0x06
    4cd6:	8f 81       	ldd	r24, Y+7	; 0x07
    4cd8:	98 85       	ldd	r25, Y+8	; 0x08
    4cda:	0e 94 9e 2a 	call	0x553c	; 0x553c <__fixunssfsi>
    4cde:	dc 01       	movw	r26, r24
    4ce0:	cb 01       	movw	r24, r22
    4ce2:	9a 87       	std	Y+10, r25	; 0x0a
    4ce4:	89 87       	std	Y+9, r24	; 0x09
    4ce6:	89 85       	ldd	r24, Y+9	; 0x09
    4ce8:	9a 85       	ldd	r25, Y+10	; 0x0a
    4cea:	9e 87       	std	Y+14, r25	; 0x0e
    4cec:	8d 87       	std	Y+13, r24	; 0x0d
    4cee:	8d 85       	ldd	r24, Y+13	; 0x0d
    4cf0:	9e 85       	ldd	r25, Y+14	; 0x0e
    4cf2:	01 97       	sbiw	r24, 0x01	; 1
    4cf4:	f1 f7       	brne	.-4      	; 0x4cf2 <_ZN3ram5writeEjc+0x156>
    4cf6:	9e 87       	std	Y+14, r25	; 0x0e
    4cf8:	8d 87       	std	Y+13, r24	; 0x0d
    4cfa:	8f 85       	ldd	r24, Y+15	; 0x0f
    4cfc:	98 89       	ldd	r25, Y+16	; 0x10
    4cfe:	fc 01       	movw	r30, r24
    4d00:	21 81       	ldd	r18, Z+1	; 0x01
    4d02:	8f 85       	ldd	r24, Y+15	; 0x0f
    4d04:	98 89       	ldd	r25, Y+16	; 0x10
    4d06:	fc 01       	movw	r30, r24
    4d08:	82 81       	ldd	r24, Z+2	; 0x02
    4d0a:	93 81       	ldd	r25, Z+3	; 0x03
    4d0c:	41 e0       	ldi	r20, 0x01	; 1
    4d0e:	62 2f       	mov	r22, r18
    4d10:	0e 94 0e 22 	call	0x441c	; 0x441c <_ZN14portcontroller12digitalwriteEhb>
    4d14:	00 00       	nop
    4d16:	63 96       	adiw	r28, 0x13	; 19
    4d18:	0f b6       	in	r0, 0x3f	; 63
    4d1a:	f8 94       	cli
    4d1c:	de bf       	out	0x3e, r29	; 62
    4d1e:	0f be       	out	0x3f, r0	; 63
    4d20:	cd bf       	out	0x3d, r28	; 61
    4d22:	df 91       	pop	r29
    4d24:	cf 91       	pop	r28
    4d26:	08 95       	ret

00004d28 <_ZN3ramD1Ev>:
{
	return address;
}
*/
// default destructor
ram::~ram()
    4d28:	cf 93       	push	r28
    4d2a:	df 93       	push	r29
    4d2c:	00 d0       	rcall	.+0      	; 0x4d2e <_ZN3ramD1Ev+0x6>
    4d2e:	cd b7       	in	r28, 0x3d	; 61
    4d30:	de b7       	in	r29, 0x3e	; 62
    4d32:	9a 83       	std	Y+2, r25	; 0x02
    4d34:	89 83       	std	Y+1, r24	; 0x01
{
	
    4d36:	00 00       	nop
    4d38:	0f 90       	pop	r0
    4d3a:	0f 90       	pop	r0
    4d3c:	df 91       	pop	r29
    4d3e:	cf 91       	pop	r28
    4d40:	08 95       	ret

00004d42 <_ZN4VramC1EP14portcontrollerP8shiftreghhy>:
{
	for (int i =0; i<8 ; i++)
	{
		write(this->custom_char_memory_base+i,customchar[i]);	
	}
}
    4d42:	8f 92       	push	r8
    4d44:	9f 92       	push	r9
    4d46:	af 92       	push	r10
    4d48:	bf 92       	push	r11
    4d4a:	cf 92       	push	r12
    4d4c:	df 92       	push	r13
    4d4e:	ef 92       	push	r14
    4d50:	ff 92       	push	r15
    4d52:	0f 93       	push	r16
    4d54:	1f 93       	push	r17
    4d56:	cf 93       	push	r28
    4d58:	df 93       	push	r29
    4d5a:	cd b7       	in	r28, 0x3d	; 61
    4d5c:	de b7       	in	r29, 0x3e	; 62
    4d5e:	60 97       	sbiw	r28, 0x10	; 16
    4d60:	0f b6       	in	r0, 0x3f	; 63
    4d62:	f8 94       	cli
    4d64:	de bf       	out	0x3e, r29	; 62
    4d66:	0f be       	out	0x3f, r0	; 63
    4d68:	cd bf       	out	0x3d, r28	; 61
    4d6a:	9a 83       	std	Y+2, r25	; 0x02
    4d6c:	89 83       	std	Y+1, r24	; 0x01
    4d6e:	7c 83       	std	Y+4, r23	; 0x04
    4d70:	6b 83       	std	Y+3, r22	; 0x03
    4d72:	5e 83       	std	Y+6, r21	; 0x06
    4d74:	4d 83       	std	Y+5, r20	; 0x05
    4d76:	2f 83       	std	Y+7, r18	; 0x07
    4d78:	08 87       	std	Y+8, r16	; 0x08
    4d7a:	89 86       	std	Y+9, r8	; 0x09
    4d7c:	9a 86       	std	Y+10, r9	; 0x0a
    4d7e:	ab 86       	std	Y+11, r10	; 0x0b
    4d80:	bc 86       	std	Y+12, r11	; 0x0c
    4d82:	cd 86       	std	Y+13, r12	; 0x0d
    4d84:	de 86       	std	Y+14, r13	; 0x0e
    4d86:	ef 86       	std	Y+15, r14	; 0x0f
    4d88:	f8 8a       	std	Y+16, r15	; 0x10
    4d8a:	89 85       	ldd	r24, Y+9	; 0x09
    4d8c:	9a 85       	ldd	r25, Y+10	; 0x0a
    4d8e:	ab 85       	ldd	r26, Y+11	; 0x0b
    4d90:	bc 85       	ldd	r27, Y+12	; 0x0c
    4d92:	e9 81       	ldd	r30, Y+1	; 0x01
    4d94:	fa 81       	ldd	r31, Y+2	; 0x02
    4d96:	4d 81       	ldd	r20, Y+5	; 0x05
    4d98:	5e 81       	ldd	r21, Y+6	; 0x06
    4d9a:	6b 81       	ldd	r22, Y+3	; 0x03
    4d9c:	7c 81       	ldd	r23, Y+4	; 0x04
    4d9e:	7c 01       	movw	r14, r24
    4da0:	8d 01       	movw	r16, r26
    4da2:	2f 81       	ldd	r18, Y+7	; 0x07
    4da4:	cf 01       	movw	r24, r30
    4da6:	0e 94 56 25 	call	0x4aac	; 0x4aac <_ZN3ramC1EP14portcontrollerP8shiftreghm>
    4daa:	89 81       	ldd	r24, Y+1	; 0x01
    4dac:	9a 81       	ldd	r25, Y+2	; 0x02
    4dae:	28 85       	ldd	r18, Y+8	; 0x08
    4db0:	fc 01       	movw	r30, r24
    4db2:	24 87       	std	Z+12, r18	; 0x0c
    4db4:	00 00       	nop
    4db6:	60 96       	adiw	r28, 0x10	; 16
    4db8:	0f b6       	in	r0, 0x3f	; 63
    4dba:	f8 94       	cli
    4dbc:	de bf       	out	0x3e, r29	; 62
    4dbe:	0f be       	out	0x3f, r0	; 63
    4dc0:	cd bf       	out	0x3d, r28	; 61
    4dc2:	df 91       	pop	r29
    4dc4:	cf 91       	pop	r28
    4dc6:	1f 91       	pop	r17
    4dc8:	0f 91       	pop	r16
    4dca:	ff 90       	pop	r15
    4dcc:	ef 90       	pop	r14
    4dce:	df 90       	pop	r13
    4dd0:	cf 90       	pop	r12
    4dd2:	bf 90       	pop	r11
    4dd4:	af 90       	pop	r10
    4dd6:	9f 90       	pop	r9
    4dd8:	8f 90       	pop	r8
    4dda:	08 95       	ret

00004ddc <_ZN4VramD1Ev>:

// default destructor
Vram::~Vram()
    4ddc:	cf 93       	push	r28
    4dde:	df 93       	push	r29
    4de0:	00 d0       	rcall	.+0      	; 0x4de2 <_ZN4VramD1Ev+0x6>
    4de2:	cd b7       	in	r28, 0x3d	; 61
    4de4:	de b7       	in	r29, 0x3e	; 62
    4de6:	9a 83       	std	Y+2, r25	; 0x02
    4de8:	89 83       	std	Y+1, r24	; 0x01
    4dea:	89 81       	ldd	r24, Y+1	; 0x01
    4dec:	9a 81       	ldd	r25, Y+2	; 0x02
    4dee:	0e 94 94 26 	call	0x4d28	; 0x4d28 <_ZN3ramD1Ev>
{
} //~Vram
    4df2:	00 00       	nop
    4df4:	0f 90       	pop	r0
    4df6:	0f 90       	pop	r0
    4df8:	df 91       	pop	r29
    4dfa:	cf 91       	pop	r28
    4dfc:	08 95       	ret

00004dfe <_Z28loadmainprogramfromcartridgec>:
}

void readKeyboard(char* buffer,int buffsize)
{
	
} 
    4dfe:	cf 93       	push	r28
    4e00:	df 93       	push	r29
    4e02:	cd b7       	in	r28, 0x3d	; 61
    4e04:	de b7       	in	r29, 0x3e	; 62
    4e06:	27 97       	sbiw	r28, 0x07	; 7
    4e08:	0f b6       	in	r0, 0x3f	; 63
    4e0a:	f8 94       	cli
    4e0c:	de bf       	out	0x3e, r29	; 62
    4e0e:	0f be       	out	0x3f, r0	; 63
    4e10:	cd bf       	out	0x3d, r28	; 61
    4e12:	8f 83       	std	Y+7, r24	; 0x07
    4e14:	85 e3       	ldi	r24, 0x35	; 53
    4e16:	91 e0       	ldi	r25, 0x01	; 1
    4e18:	9e 83       	std	Y+6, r25	; 0x06
    4e1a:	8d 83       	std	Y+5, r24	; 0x05
    4e1c:	8f 81       	ldd	r24, Y+7	; 0x07
    4e1e:	88 23       	and	r24, r24
    4e20:	29 f4       	brne	.+10     	; 0x4e2c <_Z28loadmainprogramfromcartridgec+0x2e>
    4e22:	8d ea       	ldi	r24, 0xAD	; 173
    4e24:	91 e0       	ldi	r25, 0x01	; 1
    4e26:	9a 83       	std	Y+2, r25	; 0x02
    4e28:	89 83       	std	Y+1, r24	; 0x01
    4e2a:	12 c0       	rjmp	.+36     	; 0x4e50 <_Z28loadmainprogramfromcartridgec+0x52>
    4e2c:	8f 81       	ldd	r24, Y+7	; 0x07
    4e2e:	81 30       	cpi	r24, 0x01	; 1
    4e30:	29 f4       	brne	.+10     	; 0x4e3c <_Z28loadmainprogramfromcartridgec+0x3e>
    4e32:	85 eb       	ldi	r24, 0xB5	; 181
    4e34:	91 e0       	ldi	r25, 0x01	; 1
    4e36:	9a 83       	std	Y+2, r25	; 0x02
    4e38:	89 83       	std	Y+1, r24	; 0x01
    4e3a:	0a c0       	rjmp	.+20     	; 0x4e50 <_Z28loadmainprogramfromcartridgec+0x52>
    4e3c:	8f 81       	ldd	r24, Y+7	; 0x07
    4e3e:	82 30       	cpi	r24, 0x02	; 2
    4e40:	29 f4       	brne	.+10     	; 0x4e4c <_Z28loadmainprogramfromcartridgec+0x4e>
    4e42:	8d eb       	ldi	r24, 0xBD	; 189
    4e44:	91 e0       	ldi	r25, 0x01	; 1
    4e46:	9a 83       	std	Y+2, r25	; 0x02
    4e48:	89 83       	std	Y+1, r24	; 0x01
    4e4a:	02 c0       	rjmp	.+4      	; 0x4e50 <_Z28loadmainprogramfromcartridgec+0x52>
    4e4c:	85 e6       	ldi	r24, 0x65	; 101
    4e4e:	1d c0       	rjmp	.+58     	; 0x4e8a <_Z28loadmainprogramfromcartridgec+0x8c>
    4e50:	1c 82       	std	Y+4, r1	; 0x04
    4e52:	1b 82       	std	Y+3, r1	; 0x03
    4e54:	8b 81       	ldd	r24, Y+3	; 0x03
    4e56:	9c 81       	ldd	r25, Y+4	; 0x04
    4e58:	8f 3f       	cpi	r24, 0xFF	; 255
    4e5a:	9f 41       	sbci	r25, 0x1F	; 31
    4e5c:	a8 f4       	brcc	.+42     	; 0x4e88 <_Z28loadmainprogramfromcartridgec+0x8a>
    4e5e:	2b 81       	ldd	r18, Y+3	; 0x03
    4e60:	3c 81       	ldd	r19, Y+4	; 0x04
    4e62:	89 81       	ldd	r24, Y+1	; 0x01
    4e64:	9a 81       	ldd	r25, Y+2	; 0x02
    4e66:	b9 01       	movw	r22, r18
    4e68:	0e 94 27 25 	call	0x4a4e	; 0x4a4e <_ZN3rom4readEi>
    4e6c:	48 2f       	mov	r20, r24
    4e6e:	2b 81       	ldd	r18, Y+3	; 0x03
    4e70:	3c 81       	ldd	r19, Y+4	; 0x04
    4e72:	8d 81       	ldd	r24, Y+5	; 0x05
    4e74:	9e 81       	ldd	r25, Y+6	; 0x06
    4e76:	b9 01       	movw	r22, r18
    4e78:	0e 94 ce 25 	call	0x4b9c	; 0x4b9c <_ZN3ram5writeEjc>
    4e7c:	8b 81       	ldd	r24, Y+3	; 0x03
    4e7e:	9c 81       	ldd	r25, Y+4	; 0x04
    4e80:	01 96       	adiw	r24, 0x01	; 1
    4e82:	9c 83       	std	Y+4, r25	; 0x04
    4e84:	8b 83       	std	Y+3, r24	; 0x03
    4e86:	e6 cf       	rjmp	.-52     	; 0x4e54 <_Z28loadmainprogramfromcartridgec+0x56>
    4e88:	84 e7       	ldi	r24, 0x74	; 116
    4e8a:	27 96       	adiw	r28, 0x07	; 7
    4e8c:	0f b6       	in	r0, 0x3f	; 63
    4e8e:	f8 94       	cli
    4e90:	de bf       	out	0x3e, r29	; 62
    4e92:	0f be       	out	0x3f, r0	; 63
    4e94:	cd bf       	out	0x3d, r28	; 61
    4e96:	df 91       	pop	r29
    4e98:	cf 91       	pop	r28
    4e9a:	08 95       	ret

00004e9c <main>:

int main()
{
    4e9c:	cf 93       	push	r28
    4e9e:	df 93       	push	r29
    4ea0:	cd b7       	in	r28, 0x3d	; 61
    4ea2:	de b7       	in	r29, 0x3e	; 62
    4ea4:	2e 97       	sbiw	r28, 0x0e	; 14
    4ea6:	0f b6       	in	r0, 0x3f	; 63
    4ea8:	f8 94       	cli
    4eaa:	de bf       	out	0x3e, r29	; 62
    4eac:	0f be       	out	0x3f, r0	; 63
    4eae:	cd bf       	out	0x3d, r28	; 61
/* Replace with your application code */
	
	char *in_str;
	char retval='\0';
    4eb0:	19 82       	std	Y+1, r1	; 0x01
	PORTA=0;
    4eb2:	82 e2       	ldi	r24, 0x22	; 34
    4eb4:	90 e0       	ldi	r25, 0x00	; 0
    4eb6:	fc 01       	movw	r30, r24
    4eb8:	10 82       	st	Z, r1
	
	
	
	//set output	
	port.writeddra(0xff);
    4eba:	6f ef       	ldi	r22, 0xFF	; 255
    4ebc:	86 e0       	ldi	r24, 0x06	; 6
    4ebe:	91 e0       	ldi	r25, 0x01	; 1
    4ec0:	0e 94 ba 21 	call	0x4374	; 0x4374 <_ZN14portcontroller9writeddraEc>
	port.writeddrc(0xff);
    4ec4:	6f ef       	ldi	r22, 0xFF	; 255
    4ec6:	86 e0       	ldi	r24, 0x06	; 6
    4ec8:	91 e0       	ldi	r25, 0x01	; 1
    4eca:	0e 94 e4 21 	call	0x43c8	; 0x43c8 <_ZN14portcontroller9writeddrcEc>
	//set input
	port.writeddrb(0);
    4ece:	60 e0       	ldi	r22, 0x00	; 0
    4ed0:	86 e0       	ldi	r24, 0x06	; 6
    4ed2:	91 e0       	ldi	r25, 0x01	; 1
    4ed4:	0e 94 cf 21 	call	0x439e	; 0x439e <_ZN14portcontroller9writeddrbEc>
	port.writeddrd(0);
    4ed8:	60 e0       	ldi	r22, 0x00	; 0
    4eda:	86 e0       	ldi	r24, 0x06	; 6
    4edc:	91 e0       	ldi	r25, 0x01	; 1
    4ede:	0e 94 f9 21 	call	0x43f2	; 0x43f2 <_ZN14portcontroller9writeddrdEc>
	
	//set interpreter memory
	interpret.dataram=&bank2;
    4ee2:	81 e4       	ldi	r24, 0x41	; 65
    4ee4:	91 e0       	ldi	r25, 0x01	; 1
    4ee6:	90 93 1d 03 	sts	0x031D, r25	; 0x80031d <_ZL9interpret+0x10e>
    4eea:	80 93 1c 03 	sts	0x031C, r24	; 0x80031c <_ZL9interpret+0x10d>
	interpret.stackram=&bank10;
    4eee:	81 ea       	ldi	r24, 0xA1	; 161
    4ef0:	91 e0       	ldi	r25, 0x01	; 1
    4ef2:	90 93 1f 03 	sts	0x031F, r25	; 0x80031f <_ZL9interpret+0x110>
    4ef6:	80 93 1e 03 	sts	0x031E, r24	; 0x80031e <_ZL9interpret+0x10f>
	interpret.videoram=&vbank0;
    4efa:	8d ed       	ldi	r24, 0xDD	; 221
    4efc:	91 e0       	ldi	r25, 0x01	; 1
    4efe:	90 93 21 03 	sts	0x0321, r25	; 0x800321 <_ZL9interpret+0x112>
    4f02:	80 93 20 03 	sts	0x0320, r24	; 0x800320 <_ZL9interpret+0x111>
	interpret.videoinstructionram=&vbank1;
    4f06:	8d ee       	ldi	r24, 0xED	; 237
    4f08:	91 e0       	ldi	r25, 0x01	; 1
    4f0a:	90 93 23 03 	sts	0x0323, r25	; 0x800323 <_ZL9interpret+0x114>
    4f0e:	80 93 22 03 	sts	0x0322, r24	; 0x800322 <_ZL9interpret+0x113>
	interpret.videocustomcharram=&vbank2;
    4f12:	8d ef       	ldi	r24, 0xFD	; 253
    4f14:	91 e0       	ldi	r25, 0x01	; 1
    4f16:	90 93 25 03 	sts	0x0325, r25	; 0x800325 <_ZL9interpret+0x116>
    4f1a:	80 93 24 03 	sts	0x0324, r24	; 0x800324 <_ZL9interpret+0x115>
	
	
	while (true) 
    {	
		 int kbsize = kb.getsize();	
    4f1e:	81 e3       	ldi	r24, 0x31	; 49
    4f20:	93 e0       	ldi	r25, 0x03	; 3
    4f22:	0e 94 5a 21 	call	0x42b4	; 0x42b4 <_ZN8keyboard7getsizeEv>
    4f26:	88 2f       	mov	r24, r24
    4f28:	90 e0       	ldi	r25, 0x00	; 0
    4f2a:	9d 83       	std	Y+5, r25	; 0x05
    4f2c:	8c 83       	std	Y+4, r24	; 0x04
		 //in_str=(char*)calloc(20,sizeof(char));
		 in_str=(char*)calloc(kb.getsize(),sizeof(char));
    4f2e:	81 e3       	ldi	r24, 0x31	; 49
    4f30:	93 e0       	ldi	r25, 0x03	; 3
    4f32:	0e 94 5a 21 	call	0x42b4	; 0x42b4 <_ZN8keyboard7getsizeEv>
    4f36:	88 2f       	mov	r24, r24
    4f38:	90 e0       	ldi	r25, 0x00	; 0
    4f3a:	61 e0       	ldi	r22, 0x01	; 1
    4f3c:	70 e0       	ldi	r23, 0x00	; 0
    4f3e:	0e 94 c6 2b 	call	0x578c	; 0x578c <calloc>
    4f42:	9f 83       	std	Y+7, r25	; 0x07
    4f44:	8e 83       	std	Y+6, r24	; 0x06
		 
		 //strcpy(in_str,"load cartridge 3"); 
		 char* spaceloc = strchr(in_str,' ');
    4f46:	8e 81       	ldd	r24, Y+6	; 0x06
    4f48:	9f 81       	ldd	r25, Y+7	; 0x07
    4f4a:	60 e2       	ldi	r22, 0x20	; 32
    4f4c:	70 e0       	ldi	r23, 0x00	; 0
    4f4e:	0e 94 2d 2d 	call	0x5a5a	; 0x5a5a <strchr>
    4f52:	99 87       	std	Y+9, r25	; 0x09
    4f54:	88 87       	std	Y+8, r24	; 0x08
		 char* command_str =(char*) malloc((spaceloc-in_str));
    4f56:	28 85       	ldd	r18, Y+8	; 0x08
    4f58:	39 85       	ldd	r19, Y+9	; 0x09
    4f5a:	8e 81       	ldd	r24, Y+6	; 0x06
    4f5c:	9f 81       	ldd	r25, Y+7	; 0x07
    4f5e:	a9 01       	movw	r20, r18
    4f60:	48 1b       	sub	r20, r24
    4f62:	59 0b       	sbc	r21, r25
    4f64:	ca 01       	movw	r24, r20
    4f66:	0e 94 e2 2b 	call	0x57c4	; 0x57c4 <malloc>
    4f6a:	9b 87       	std	Y+11, r25	; 0x0b
    4f6c:	8a 87       	std	Y+10, r24	; 0x0a
		 for (int i =0;i<(spaceloc-in_str);i++)
    4f6e:	1b 82       	std	Y+3, r1	; 0x03
    4f70:	1a 82       	std	Y+2, r1	; 0x02
    4f72:	28 85       	ldd	r18, Y+8	; 0x08
    4f74:	39 85       	ldd	r19, Y+9	; 0x09
    4f76:	8e 81       	ldd	r24, Y+6	; 0x06
    4f78:	9f 81       	ldd	r25, Y+7	; 0x07
    4f7a:	28 1b       	sub	r18, r24
    4f7c:	39 0b       	sbc	r19, r25
    4f7e:	8a 81       	ldd	r24, Y+2	; 0x02
    4f80:	9b 81       	ldd	r25, Y+3	; 0x03
    4f82:	82 17       	cp	r24, r18
    4f84:	93 07       	cpc	r25, r19
    4f86:	b4 f4       	brge	.+44     	; 0x4fb4 <main+0x118>
		 {
			 command_str[i]=in_str[i];
    4f88:	8a 81       	ldd	r24, Y+2	; 0x02
    4f8a:	9b 81       	ldd	r25, Y+3	; 0x03
    4f8c:	2a 85       	ldd	r18, Y+10	; 0x0a
    4f8e:	3b 85       	ldd	r19, Y+11	; 0x0b
    4f90:	82 0f       	add	r24, r18
    4f92:	93 1f       	adc	r25, r19
    4f94:	2a 81       	ldd	r18, Y+2	; 0x02
    4f96:	3b 81       	ldd	r19, Y+3	; 0x03
    4f98:	4e 81       	ldd	r20, Y+6	; 0x06
    4f9a:	5f 81       	ldd	r21, Y+7	; 0x07
    4f9c:	24 0f       	add	r18, r20
    4f9e:	35 1f       	adc	r19, r21
    4fa0:	f9 01       	movw	r30, r18
    4fa2:	20 81       	ld	r18, Z
    4fa4:	fc 01       	movw	r30, r24
    4fa6:	20 83       	st	Z, r18
		 in_str=(char*)calloc(kb.getsize(),sizeof(char));
		 
		 //strcpy(in_str,"load cartridge 3"); 
		 char* spaceloc = strchr(in_str,' ');
		 char* command_str =(char*) malloc((spaceloc-in_str));
		 for (int i =0;i<(spaceloc-in_str);i++)
    4fa8:	8a 81       	ldd	r24, Y+2	; 0x02
    4faa:	9b 81       	ldd	r25, Y+3	; 0x03
    4fac:	01 96       	adiw	r24, 0x01	; 1
    4fae:	9b 83       	std	Y+3, r25	; 0x03
    4fb0:	8a 83       	std	Y+2, r24	; 0x02
    4fb2:	df cf       	rjmp	.-66     	; 0x4f72 <main+0xd6>
		 {
			 command_str[i]=in_str[i];
		 }
		 
		 if(strcmp_P(command_str,(PGM_P)&run)==0)
    4fb4:	8a 85       	ldd	r24, Y+10	; 0x0a
    4fb6:	9b 85       	ldd	r25, Y+11	; 0x0b
    4fb8:	68 e9       	ldi	r22, 0x98	; 152
    4fba:	70 e0       	ldi	r23, 0x00	; 0
    4fbc:	0e 94 03 2d 	call	0x5a06	; 0x5a06 <strcmp_P>
    4fc0:	89 2b       	or	r24, r25
    4fc2:	31 f4       	brne	.+12     	; 0x4fd0 <main+0x134>
		 {	 
			 retval = interpret.run();
    4fc4:	8f e0       	ldi	r24, 0x0F	; 15
    4fc6:	92 e0       	ldi	r25, 0x02	; 2
    4fc8:	0e 94 ce 03 	call	0x79c	; 0x79c <_ZN11interpreter3runEv>
    4fcc:	89 83       	std	Y+1, r24	; 0x01
    4fce:	45 c0       	rjmp	.+138    	; 0x505a <main+0x1be>
		 }
		 else if (strcmp_P(command_str,(PGM_P)&run2)==0)
    4fd0:	8a 85       	ldd	r24, Y+10	; 0x0a
    4fd2:	9b 85       	ldd	r25, Y+11	; 0x0b
    4fd4:	6c e9       	ldi	r22, 0x9C	; 156
    4fd6:	70 e0       	ldi	r23, 0x00	; 0
    4fd8:	0e 94 03 2d 	call	0x5a06	; 0x5a06 <strcmp_P>
    4fdc:	89 2b       	or	r24, r25
    4fde:	31 f4       	brne	.+12     	; 0x4fec <main+0x150>
		 {
			retval = interpret.run(); 
    4fe0:	8f e0       	ldi	r24, 0x0F	; 15
    4fe2:	92 e0       	ldi	r25, 0x02	; 2
    4fe4:	0e 94 ce 03 	call	0x79c	; 0x79c <_ZN11interpreter3runEv>
    4fe8:	89 83       	std	Y+1, r24	; 0x01
    4fea:	37 c0       	rjmp	.+110    	; 0x505a <main+0x1be>
		 }
		 else if (strcmp_P(command_str,(PGM_P)&cd)==0)
    4fec:	8a 85       	ldd	r24, Y+10	; 0x0a
    4fee:	9b 85       	ldd	r25, Y+11	; 0x0b
    4ff0:	6f e9       	ldi	r22, 0x9F	; 159
    4ff2:	70 e0       	ldi	r23, 0x00	; 0
    4ff4:	0e 94 03 2d 	call	0x5a06	; 0x5a06 <strcmp_P>
    4ff8:	89 2b       	or	r24, r25
    4ffa:	79 f1       	breq	.+94     	; 0x505a <main+0x1be>
		 {
			 
		 }
		 else if (strcmp_P(command_str,(PGM_P)&load)==0)
    4ffc:	8a 85       	ldd	r24, Y+10	; 0x0a
    4ffe:	9b 85       	ldd	r25, Y+11	; 0x0b
    5000:	6c ea       	ldi	r22, 0xAC	; 172
    5002:	70 e0       	ldi	r23, 0x00	; 0
    5004:	0e 94 03 2d 	call	0x5a06	; 0x5a06 <strcmp_P>
    5008:	89 2b       	or	r24, r25
    500a:	39 f5       	brne	.+78     	; 0x505a <main+0x1be>
		 {
			if(strstr_P(in_str,(PGM_P)&cartridge)!=NULL)
    500c:	8e 81       	ldd	r24, Y+6	; 0x06
    500e:	9f 81       	ldd	r25, Y+7	; 0x07
    5010:	62 ea       	ldi	r22, 0xA2	; 162
    5012:	70 e0       	ldi	r23, 0x00	; 0
    5014:	0e 94 0c 2d 	call	0x5a18	; 0x5a18 <strstr_P>
    5018:	89 2b       	or	r24, r25
    501a:	f9 f0       	breq	.+62     	; 0x505a <main+0x1be>
			{
				char functioncode;
				int cartridge_number=0;				
    501c:	1e 86       	std	Y+14, r1	; 0x0e
    501e:	1d 86       	std	Y+13, r1	; 0x0d
				sscanf_P(in_str,(PGM_P)&loadcartridge1,&cartridge_number);
    5020:	ce 01       	movw	r24, r28
    5022:	0d 96       	adiw	r24, 0x0d	; 13
    5024:	29 2f       	mov	r18, r25
    5026:	2f 93       	push	r18
    5028:	8f 93       	push	r24
    502a:	81 eb       	ldi	r24, 0xB1	; 177
    502c:	90 e0       	ldi	r25, 0x00	; 0
    502e:	89 2f       	mov	r24, r25
    5030:	8f 93       	push	r24
    5032:	81 eb       	ldi	r24, 0xB1	; 177
    5034:	90 e0       	ldi	r25, 0x00	; 0
    5036:	8f 93       	push	r24
    5038:	8f 81       	ldd	r24, Y+7	; 0x07
    503a:	8f 93       	push	r24
    503c:	8e 81       	ldd	r24, Y+6	; 0x06
    503e:	8f 93       	push	r24
    5040:	0e 94 38 2d 	call	0x5a70	; 0x5a70 <sscanf_P>
    5044:	0f 90       	pop	r0
    5046:	0f 90       	pop	r0
    5048:	0f 90       	pop	r0
    504a:	0f 90       	pop	r0
    504c:	0f 90       	pop	r0
    504e:	0f 90       	pop	r0
				functioncode = loadmainprogramfromcartridge(cartridge_number);
    5050:	8d 85       	ldd	r24, Y+13	; 0x0d
    5052:	9e 85       	ldd	r25, Y+14	; 0x0e
    5054:	0e 94 ff 26 	call	0x4dfe	; 0x4dfe <_Z28loadmainprogramfromcartridgec>
    5058:	8c 87       	std	Y+12, r24	; 0x0c
				{
					
				}
			} 
		 }
		 if(retval!=0)
    505a:	89 81       	ldd	r24, Y+1	; 0x01
    505c:	88 23       	and	r24, r24
    505e:	31 f1       	breq	.+76     	; 0x50ac <main+0x210>
		 {
			 if (retval == 'b')
    5060:	89 81       	ldd	r24, Y+1	; 0x01
    5062:	82 36       	cpi	r24, 0x62	; 98
    5064:	e1 f4       	brne	.+56     	; 0x509e <main+0x202>
			 {
				 if (interpret.registers[0]==4)
    5066:	80 91 0f 02 	lds	r24, 0x020F	; 0x80020f <_ZL9interpret>
    506a:	84 30       	cpi	r24, 0x04	; 4
    506c:	f9 f4       	brne	.+62     	; 0x50ac <main+0x210>
				 { 
					 /* switches ram bank
					 */ 
					 if (interpret.registers[1]>0&&interpret.registers[1]<10)
    506e:	80 91 10 02 	lds	r24, 0x0210	; 0x800210 <_ZL9interpret+0x1>
    5072:	88 23       	and	r24, r24
    5074:	d9 f0       	breq	.+54     	; 0x50ac <main+0x210>
    5076:	80 91 10 02 	lds	r24, 0x0210	; 0x800210 <_ZL9interpret+0x1>
    507a:	8a 30       	cpi	r24, 0x0A	; 10
    507c:	b8 f4       	brcc	.+46     	; 0x50ac <main+0x210>
					 {
						 interpret.dataram = rambanklist[(int)interpret.registers[1]];
    507e:	80 91 10 02 	lds	r24, 0x0210	; 0x800210 <_ZL9interpret+0x1>
    5082:	88 2f       	mov	r24, r24
    5084:	90 e0       	ldi	r25, 0x00	; 0
    5086:	88 0f       	add	r24, r24
    5088:	99 1f       	adc	r25, r25
    508a:	8e 53       	subi	r24, 0x3E	; 62
    508c:	9f 4f       	sbci	r25, 0xFF	; 255
    508e:	fc 01       	movw	r30, r24
    5090:	80 81       	ld	r24, Z
    5092:	91 81       	ldd	r25, Z+1	; 0x01
    5094:	90 93 1d 03 	sts	0x031D, r25	; 0x80031d <_ZL9interpret+0x10e>
    5098:	80 93 1c 03 	sts	0x031C, r24	; 0x80031c <_ZL9interpret+0x10d>
    509c:	07 c0       	rjmp	.+14     	; 0x50ac <main+0x210>
				 }
				 else if(interpret.registers[0]==6)
				 {
				 }
			 }
			 else if (retval=='e')
    509e:	89 81       	ldd	r24, Y+1	; 0x01
    50a0:	85 36       	cpi	r24, 0x65	; 101
    50a2:	21 f4       	brne	.+8      	; 0x50ac <main+0x210>
			 {
				 interpret.clearreg();
    50a4:	8f e0       	ldi	r24, 0x0F	; 15
    50a6:	92 e0       	ldi	r25, 0x02	; 2
    50a8:	0e 94 c2 20 	call	0x4184	; 0x4184 <_ZN11interpreter8clearregEv>
		 
		 
		 
		 
		 
		 free(command_str);
    50ac:	8a 85       	ldd	r24, Y+10	; 0x0a
    50ae:	9b 85       	ldd	r25, Y+11	; 0x0b
    50b0:	0e 94 7a 2c 	call	0x58f4	; 0x58f4 <free>
		 free(in_str);
    50b4:	8e 81       	ldd	r24, Y+6	; 0x06
    50b6:	9f 81       	ldd	r25, Y+7	; 0x07
    50b8:	0e 94 7a 2c 	call	0x58f4	; 0x58f4 <free>
	interpret.videoram=&vbank0;
	interpret.videoinstructionram=&vbank1;
	interpret.videocustomcharram=&vbank2;
	
	
	while (true) 
    50bc:	30 cf       	rjmp	.-416    	; 0x4f1e <main+0x82>

000050be <_Z41__static_initialization_and_destruction_0ii>:
		 
		 free(command_str);
		 free(in_str);
	 }
	return 0;        	
    50be:	8f 92       	push	r8
    50c0:	9f 92       	push	r9
    50c2:	af 92       	push	r10
    50c4:	bf 92       	push	r11
    50c6:	cf 92       	push	r12
    50c8:	df 92       	push	r13
    50ca:	ef 92       	push	r14
    50cc:	ff 92       	push	r15
    50ce:	0f 93       	push	r16
    50d0:	1f 93       	push	r17
    50d2:	cf 93       	push	r28
    50d4:	df 93       	push	r29
    50d6:	00 d0       	rcall	.+0      	; 0x50d8 <_Z41__static_initialization_and_destruction_0ii+0x1a>
    50d8:	00 d0       	rcall	.+0      	; 0x50da <_Z41__static_initialization_and_destruction_0ii+0x1c>
    50da:	cd b7       	in	r28, 0x3d	; 61
    50dc:	de b7       	in	r29, 0x3e	; 62
    50de:	9a 83       	std	Y+2, r25	; 0x02
    50e0:	89 83       	std	Y+1, r24	; 0x01
    50e2:	7c 83       	std	Y+4, r23	; 0x04
    50e4:	6b 83       	std	Y+3, r22	; 0x03
    50e6:	89 81       	ldd	r24, Y+1	; 0x01
    50e8:	9a 81       	ldd	r25, Y+2	; 0x02
    50ea:	01 97       	sbiw	r24, 0x01	; 1
    50ec:	09 f0       	breq	.+2      	; 0x50f0 <_Z41__static_initialization_and_destruction_0ii+0x32>
    50ee:	7f c1       	rjmp	.+766    	; 0x53ee <_Z41__static_initialization_and_destruction_0ii+0x330>
    50f0:	8b 81       	ldd	r24, Y+3	; 0x03
    50f2:	9c 81       	ldd	r25, Y+4	; 0x04
    50f4:	01 96       	adiw	r24, 0x01	; 1
    50f6:	09 f0       	breq	.+2      	; 0x50fa <_Z41__static_initialization_and_destruction_0ii+0x3c>
    50f8:	7a c1       	rjmp	.+756    	; 0x53ee <_Z41__static_initialization_and_destruction_0ii+0x330>
*/



//static const int address_max_hex=0x1fff;
static portcontroller port=portcontroller();
    50fa:	86 e0       	ldi	r24, 0x06	; 6
    50fc:	91 e0       	ldi	r25, 0x01	; 1
    50fe:	0e 94 88 21 	call	0x4310	; 0x4310 <_ZN14portcontrollerC1Ev>
static shiftreg addreg=shiftreg(40,39,38,&port);
    5102:	06 e0       	ldi	r16, 0x06	; 6
    5104:	11 e0       	ldi	r17, 0x01	; 1
    5106:	26 e2       	ldi	r18, 0x26	; 38
    5108:	47 e2       	ldi	r20, 0x27	; 39
    510a:	68 e2       	ldi	r22, 0x28	; 40
    510c:	87 e0       	ldi	r24, 0x07	; 7
    510e:	91 e0       	ldi	r25, 0x01	; 1
    5110:	0e 94 ac 22 	call	0x4558	; 0x4558 <_ZN8shiftregC1EhhhP14portcontroller>
static shiftreg csreg=shiftreg(37,36,35,&port);
    5114:	06 e0       	ldi	r16, 0x06	; 6
    5116:	11 e0       	ldi	r17, 0x01	; 1
    5118:	23 e2       	ldi	r18, 0x23	; 35
    511a:	44 e2       	ldi	r20, 0x24	; 36
    511c:	65 e2       	ldi	r22, 0x25	; 37
    511e:	84 e1       	ldi	r24, 0x14	; 20
    5120:	91 e0       	ldi	r25, 0x01	; 1
    5122:	0e 94 ac 22 	call	0x4558	; 0x4558 <_ZN8shiftregC1EhhhP14portcontroller>
static Serial serial= Serial(&csreg,&port,3,34,33);
    5126:	0f 2e       	mov	r0, r31
    5128:	f1 e2       	ldi	r31, 0x21	; 33
    512a:	ef 2e       	mov	r14, r31
    512c:	f0 2d       	mov	r31, r0
    512e:	02 e2       	ldi	r16, 0x22	; 34
    5130:	23 e0       	ldi	r18, 0x03	; 3
    5132:	46 e0       	ldi	r20, 0x06	; 6
    5134:	51 e0       	ldi	r21, 0x01	; 1
    5136:	64 e1       	ldi	r22, 0x14	; 20
    5138:	71 e0       	ldi	r23, 0x01	; 1
    513a:	81 e2       	ldi	r24, 0x21	; 33
    513c:	91 e0       	ldi	r25, 0x01	; 1
    513e:	0e 94 98 00 	call	0x130	; 0x130 <_ZN6SerialC1EP8shiftregP14portcontrollerccc>

static ram bank0 = ram(&port,&addreg,rwpin,0x0u);	// os code 
    5142:	e1 2c       	mov	r14, r1
    5144:	f1 2c       	mov	r15, r1
    5146:	87 01       	movw	r16, r14
    5148:	21 e0       	ldi	r18, 0x01	; 1
    514a:	47 e0       	ldi	r20, 0x07	; 7
    514c:	51 e0       	ldi	r21, 0x01	; 1
    514e:	66 e0       	ldi	r22, 0x06	; 6
    5150:	71 e0       	ldi	r23, 0x01	; 1
    5152:	89 e2       	ldi	r24, 0x29	; 41
    5154:	91 e0       	ldi	r25, 0x01	; 1
    5156:	0e 94 56 25 	call	0x4aac	; 0x4aac <_ZN3ramC1EP14portcontrollerP8shiftreghm>
static ram bank1 = ram(&port,&addreg,rwpin,0x2000u);//main program code
    515a:	e1 2c       	mov	r14, r1
    515c:	10 e2       	ldi	r17, 0x20	; 32
    515e:	f1 2e       	mov	r15, r17
    5160:	00 e0       	ldi	r16, 0x00	; 0
    5162:	10 e0       	ldi	r17, 0x00	; 0
    5164:	21 e0       	ldi	r18, 0x01	; 1
    5166:	47 e0       	ldi	r20, 0x07	; 7
    5168:	51 e0       	ldi	r21, 0x01	; 1
    516a:	66 e0       	ldi	r22, 0x06	; 6
    516c:	71 e0       	ldi	r23, 0x01	; 1
    516e:	85 e3       	ldi	r24, 0x35	; 53
    5170:	91 e0       	ldi	r25, 0x01	; 1
    5172:	0e 94 56 25 	call	0x4aac	; 0x4aac <_ZN3ramC1EP14portcontrollerP8shiftreghm>
static ram bank2 = ram(&port,&addreg,rwpin,0x4000u);// main data ram 
    5176:	e1 2c       	mov	r14, r1
    5178:	10 e4       	ldi	r17, 0x40	; 64
    517a:	f1 2e       	mov	r15, r17
    517c:	00 e0       	ldi	r16, 0x00	; 0
    517e:	10 e0       	ldi	r17, 0x00	; 0
    5180:	21 e0       	ldi	r18, 0x01	; 1
    5182:	47 e0       	ldi	r20, 0x07	; 7
    5184:	51 e0       	ldi	r21, 0x01	; 1
    5186:	66 e0       	ldi	r22, 0x06	; 6
    5188:	71 e0       	ldi	r23, 0x01	; 1
    518a:	81 e4       	ldi	r24, 0x41	; 65
    518c:	91 e0       	ldi	r25, 0x01	; 1
    518e:	0e 94 56 25 	call	0x4aac	; 0x4aac <_ZN3ramC1EP14portcontrollerP8shiftreghm>
static ram bank3 = ram(&port,&addreg,rwpin,0x6000u);
    5192:	e1 2c       	mov	r14, r1
    5194:	10 e6       	ldi	r17, 0x60	; 96
    5196:	f1 2e       	mov	r15, r17
    5198:	00 e0       	ldi	r16, 0x00	; 0
    519a:	10 e0       	ldi	r17, 0x00	; 0
    519c:	21 e0       	ldi	r18, 0x01	; 1
    519e:	47 e0       	ldi	r20, 0x07	; 7
    51a0:	51 e0       	ldi	r21, 0x01	; 1
    51a2:	66 e0       	ldi	r22, 0x06	; 6
    51a4:	71 e0       	ldi	r23, 0x01	; 1
    51a6:	8d e4       	ldi	r24, 0x4D	; 77
    51a8:	91 e0       	ldi	r25, 0x01	; 1
    51aa:	0e 94 56 25 	call	0x4aac	; 0x4aac <_ZN3ramC1EP14portcontrollerP8shiftreghm>
static ram bank4 = ram(&port,&addreg,rwpin,0x8000u);
    51ae:	e1 2c       	mov	r14, r1
    51b0:	10 e8       	ldi	r17, 0x80	; 128
    51b2:	f1 2e       	mov	r15, r17
    51b4:	00 e0       	ldi	r16, 0x00	; 0
    51b6:	10 e0       	ldi	r17, 0x00	; 0
    51b8:	21 e0       	ldi	r18, 0x01	; 1
    51ba:	47 e0       	ldi	r20, 0x07	; 7
    51bc:	51 e0       	ldi	r21, 0x01	; 1
    51be:	66 e0       	ldi	r22, 0x06	; 6
    51c0:	71 e0       	ldi	r23, 0x01	; 1
    51c2:	89 e5       	ldi	r24, 0x59	; 89
    51c4:	91 e0       	ldi	r25, 0x01	; 1
    51c6:	0e 94 56 25 	call	0x4aac	; 0x4aac <_ZN3ramC1EP14portcontrollerP8shiftreghm>

static ram bank5 = ram(&port,&addreg,rwpin,0xA000u);
    51ca:	e1 2c       	mov	r14, r1
    51cc:	10 ea       	ldi	r17, 0xA0	; 160
    51ce:	f1 2e       	mov	r15, r17
    51d0:	00 e0       	ldi	r16, 0x00	; 0
    51d2:	10 e0       	ldi	r17, 0x00	; 0
    51d4:	21 e0       	ldi	r18, 0x01	; 1
    51d6:	47 e0       	ldi	r20, 0x07	; 7
    51d8:	51 e0       	ldi	r21, 0x01	; 1
    51da:	66 e0       	ldi	r22, 0x06	; 6
    51dc:	71 e0       	ldi	r23, 0x01	; 1
    51de:	85 e6       	ldi	r24, 0x65	; 101
    51e0:	91 e0       	ldi	r25, 0x01	; 1
    51e2:	0e 94 56 25 	call	0x4aac	; 0x4aac <_ZN3ramC1EP14portcontrollerP8shiftreghm>
static ram bank6 = ram(&port,&addreg,rwpin,0xC000u);
    51e6:	e1 2c       	mov	r14, r1
    51e8:	10 ec       	ldi	r17, 0xC0	; 192
    51ea:	f1 2e       	mov	r15, r17
    51ec:	00 e0       	ldi	r16, 0x00	; 0
    51ee:	10 e0       	ldi	r17, 0x00	; 0
    51f0:	21 e0       	ldi	r18, 0x01	; 1
    51f2:	47 e0       	ldi	r20, 0x07	; 7
    51f4:	51 e0       	ldi	r21, 0x01	; 1
    51f6:	66 e0       	ldi	r22, 0x06	; 6
    51f8:	71 e0       	ldi	r23, 0x01	; 1
    51fa:	81 e7       	ldi	r24, 0x71	; 113
    51fc:	91 e0       	ldi	r25, 0x01	; 1
    51fe:	0e 94 56 25 	call	0x4aac	; 0x4aac <_ZN3ramC1EP14portcontrollerP8shiftreghm>
static ram bank7 = ram(&port,&addreg,rwpin,0x0E000u);
    5202:	e1 2c       	mov	r14, r1
    5204:	10 ee       	ldi	r17, 0xE0	; 224
    5206:	f1 2e       	mov	r15, r17
    5208:	00 e0       	ldi	r16, 0x00	; 0
    520a:	10 e0       	ldi	r17, 0x00	; 0
    520c:	21 e0       	ldi	r18, 0x01	; 1
    520e:	47 e0       	ldi	r20, 0x07	; 7
    5210:	51 e0       	ldi	r21, 0x01	; 1
    5212:	66 e0       	ldi	r22, 0x06	; 6
    5214:	71 e0       	ldi	r23, 0x01	; 1
    5216:	8d e7       	ldi	r24, 0x7D	; 125
    5218:	91 e0       	ldi	r25, 0x01	; 1
    521a:	0e 94 56 25 	call	0x4aac	; 0x4aac <_ZN3ramC1EP14portcontrollerP8shiftreghm>
static ram bank8 = ram(&port,&addreg,rwpin,0x10000u);
    521e:	e1 2c       	mov	r14, r1
    5220:	f1 2c       	mov	r15, r1
    5222:	01 e0       	ldi	r16, 0x01	; 1
    5224:	10 e0       	ldi	r17, 0x00	; 0
    5226:	21 e0       	ldi	r18, 0x01	; 1
    5228:	47 e0       	ldi	r20, 0x07	; 7
    522a:	51 e0       	ldi	r21, 0x01	; 1
    522c:	66 e0       	ldi	r22, 0x06	; 6
    522e:	71 e0       	ldi	r23, 0x01	; 1
    5230:	89 e8       	ldi	r24, 0x89	; 137
    5232:	91 e0       	ldi	r25, 0x01	; 1
    5234:	0e 94 56 25 	call	0x4aac	; 0x4aac <_ZN3ramC1EP14portcontrollerP8shiftreghm>
static ram bank9 = ram(&port,&addreg,rwpin,0x12000u);// os data
    5238:	e1 2c       	mov	r14, r1
    523a:	10 e2       	ldi	r17, 0x20	; 32
    523c:	f1 2e       	mov	r15, r17
    523e:	01 e0       	ldi	r16, 0x01	; 1
    5240:	10 e0       	ldi	r17, 0x00	; 0
    5242:	21 e0       	ldi	r18, 0x01	; 1
    5244:	47 e0       	ldi	r20, 0x07	; 7
    5246:	51 e0       	ldi	r21, 0x01	; 1
    5248:	66 e0       	ldi	r22, 0x06	; 6
    524a:	71 e0       	ldi	r23, 0x01	; 1
    524c:	85 e9       	ldi	r24, 0x95	; 149
    524e:	91 e0       	ldi	r25, 0x01	; 1
    5250:	0e 94 56 25 	call	0x4aac	; 0x4aac <_ZN3ramC1EP14portcontrollerP8shiftreghm>
static ram bank10 = ram(&port,&addreg,rwpin,0x14000u);// stack ram
    5254:	e1 2c       	mov	r14, r1
    5256:	10 e4       	ldi	r17, 0x40	; 64
    5258:	f1 2e       	mov	r15, r17
    525a:	01 e0       	ldi	r16, 0x01	; 1
    525c:	10 e0       	ldi	r17, 0x00	; 0
    525e:	21 e0       	ldi	r18, 0x01	; 1
    5260:	47 e0       	ldi	r20, 0x07	; 7
    5262:	51 e0       	ldi	r21, 0x01	; 1
    5264:	66 e0       	ldi	r22, 0x06	; 6
    5266:	71 e0       	ldi	r23, 0x01	; 1
    5268:	81 ea       	ldi	r24, 0xA1	; 161
    526a:	91 e0       	ldi	r25, 0x01	; 1
    526c:	0e 94 56 25 	call	0x4aac	; 0x4aac <_ZN3ramC1EP14portcontrollerP8shiftreghm>

static rom cartridge0 =rom(&port,&addreg,0x16000u);
    5270:	c1 2c       	mov	r12, r1
    5272:	0f 2e       	mov	r0, r31
    5274:	f0 e6       	ldi	r31, 0x60	; 96
    5276:	df 2e       	mov	r13, r31
    5278:	f0 2d       	mov	r31, r0
    527a:	ee 24       	eor	r14, r14
    527c:	e3 94       	inc	r14
    527e:	f1 2c       	mov	r15, r1
    5280:	00 e0       	ldi	r16, 0x00	; 0
    5282:	10 e0       	ldi	r17, 0x00	; 0
    5284:	20 e0       	ldi	r18, 0x00	; 0
    5286:	30 e0       	ldi	r19, 0x00	; 0
    5288:	47 e0       	ldi	r20, 0x07	; 7
    528a:	51 e0       	ldi	r21, 0x01	; 1
    528c:	66 e0       	ldi	r22, 0x06	; 6
    528e:	71 e0       	ldi	r23, 0x01	; 1
    5290:	8d ea       	ldi	r24, 0xAD	; 173
    5292:	91 e0       	ldi	r25, 0x01	; 1
    5294:	0e 94 df 24 	call	0x49be	; 0x49be <_ZN3romC1EP14portcontrollerP8shiftregy>
static rom cartridge1 =rom(&port,&addreg,0x18000u);
    5298:	c1 2c       	mov	r12, r1
    529a:	68 94       	set
    529c:	dd 24       	eor	r13, r13
    529e:	d7 f8       	bld	r13, 7
    52a0:	ee 24       	eor	r14, r14
    52a2:	e3 94       	inc	r14
    52a4:	f1 2c       	mov	r15, r1
    52a6:	00 e0       	ldi	r16, 0x00	; 0
    52a8:	10 e0       	ldi	r17, 0x00	; 0
    52aa:	20 e0       	ldi	r18, 0x00	; 0
    52ac:	30 e0       	ldi	r19, 0x00	; 0
    52ae:	47 e0       	ldi	r20, 0x07	; 7
    52b0:	51 e0       	ldi	r21, 0x01	; 1
    52b2:	66 e0       	ldi	r22, 0x06	; 6
    52b4:	71 e0       	ldi	r23, 0x01	; 1
    52b6:	85 eb       	ldi	r24, 0xB5	; 181
    52b8:	91 e0       	ldi	r25, 0x01	; 1
    52ba:	0e 94 df 24 	call	0x49be	; 0x49be <_ZN3romC1EP14portcontrollerP8shiftregy>
static rom cartridge2 =rom(&port,&addreg,0x1A000u);
    52be:	c1 2c       	mov	r12, r1
    52c0:	0f 2e       	mov	r0, r31
    52c2:	f0 ea       	ldi	r31, 0xA0	; 160
    52c4:	df 2e       	mov	r13, r31
    52c6:	f0 2d       	mov	r31, r0
    52c8:	ee 24       	eor	r14, r14
    52ca:	e3 94       	inc	r14
    52cc:	f1 2c       	mov	r15, r1
    52ce:	00 e0       	ldi	r16, 0x00	; 0
    52d0:	10 e0       	ldi	r17, 0x00	; 0
    52d2:	20 e0       	ldi	r18, 0x00	; 0
    52d4:	30 e0       	ldi	r19, 0x00	; 0
    52d6:	47 e0       	ldi	r20, 0x07	; 7
    52d8:	51 e0       	ldi	r21, 0x01	; 1
    52da:	66 e0       	ldi	r22, 0x06	; 6
    52dc:	71 e0       	ldi	r23, 0x01	; 1
    52de:	8d eb       	ldi	r24, 0xBD	; 189
    52e0:	91 e0       	ldi	r25, 0x01	; 1
    52e2:	0e 94 df 24 	call	0x49be	; 0x49be <_ZN3romC1EP14portcontrollerP8shiftregy>
static rom program0 =rom(&port,&addreg,0x1C000u);
    52e6:	c1 2c       	mov	r12, r1
    52e8:	0f 2e       	mov	r0, r31
    52ea:	f0 ec       	ldi	r31, 0xC0	; 192
    52ec:	df 2e       	mov	r13, r31
    52ee:	f0 2d       	mov	r31, r0
    52f0:	ee 24       	eor	r14, r14
    52f2:	e3 94       	inc	r14
    52f4:	f1 2c       	mov	r15, r1
    52f6:	00 e0       	ldi	r16, 0x00	; 0
    52f8:	10 e0       	ldi	r17, 0x00	; 0
    52fa:	20 e0       	ldi	r18, 0x00	; 0
    52fc:	30 e0       	ldi	r19, 0x00	; 0
    52fe:	47 e0       	ldi	r20, 0x07	; 7
    5300:	51 e0       	ldi	r21, 0x01	; 1
    5302:	66 e0       	ldi	r22, 0x06	; 6
    5304:	71 e0       	ldi	r23, 0x01	; 1
    5306:	85 ec       	ldi	r24, 0xC5	; 197
    5308:	91 e0       	ldi	r25, 0x01	; 1
    530a:	0e 94 df 24 	call	0x49be	; 0x49be <_ZN3romC1EP14portcontrollerP8shiftregy>
static rom program1 =rom(&port,&addreg,0x1E000u);
    530e:	c1 2c       	mov	r12, r1
    5310:	0f 2e       	mov	r0, r31
    5312:	f0 ee       	ldi	r31, 0xE0	; 224
    5314:	df 2e       	mov	r13, r31
    5316:	f0 2d       	mov	r31, r0
    5318:	ee 24       	eor	r14, r14
    531a:	e3 94       	inc	r14
    531c:	f1 2c       	mov	r15, r1
    531e:	00 e0       	ldi	r16, 0x00	; 0
    5320:	10 e0       	ldi	r17, 0x00	; 0
    5322:	20 e0       	ldi	r18, 0x00	; 0
    5324:	30 e0       	ldi	r19, 0x00	; 0
    5326:	47 e0       	ldi	r20, 0x07	; 7
    5328:	51 e0       	ldi	r21, 0x01	; 1
    532a:	66 e0       	ldi	r22, 0x06	; 6
    532c:	71 e0       	ldi	r23, 0x01	; 1
    532e:	8d ec       	ldi	r24, 0xCD	; 205
    5330:	91 e0       	ldi	r25, 0x01	; 1
    5332:	0e 94 df 24 	call	0x49be	; 0x49be <_ZN3romC1EP14portcontrollerP8shiftregy>
static rom basicrom =rom(&port,&addreg,0x20000u);
    5336:	c1 2c       	mov	r12, r1
    5338:	d1 2c       	mov	r13, r1
    533a:	68 94       	set
    533c:	ee 24       	eor	r14, r14
    533e:	e1 f8       	bld	r14, 1
    5340:	f1 2c       	mov	r15, r1
    5342:	00 e0       	ldi	r16, 0x00	; 0
    5344:	10 e0       	ldi	r17, 0x00	; 0
    5346:	20 e0       	ldi	r18, 0x00	; 0
    5348:	30 e0       	ldi	r19, 0x00	; 0
    534a:	47 e0       	ldi	r20, 0x07	; 7
    534c:	51 e0       	ldi	r21, 0x01	; 1
    534e:	66 e0       	ldi	r22, 0x06	; 6
    5350:	71 e0       	ldi	r23, 0x01	; 1
    5352:	85 ed       	ldi	r24, 0xD5	; 213
    5354:	91 e0       	ldi	r25, 0x01	; 1
    5356:	0e 94 df 24 	call	0x49be	; 0x49be <_ZN3romC1EP14portcontrollerP8shiftregy>
/*
	0-2048 video ram
	2049-4097 text ram

*/
static Vram vbank0 = Vram(&port,&addreg,rwpin,vmempin,0x0u);	// video ram
    535a:	81 2c       	mov	r8, r1
    535c:	91 2c       	mov	r9, r1
    535e:	a1 2c       	mov	r10, r1
    5360:	b1 2c       	mov	r11, r1
    5362:	c1 2c       	mov	r12, r1
    5364:	d1 2c       	mov	r13, r1
    5366:	e1 2c       	mov	r14, r1
    5368:	f1 2c       	mov	r15, r1
    536a:	02 e0       	ldi	r16, 0x02	; 2
    536c:	21 e0       	ldi	r18, 0x01	; 1
    536e:	47 e0       	ldi	r20, 0x07	; 7
    5370:	51 e0       	ldi	r21, 0x01	; 1
    5372:	66 e0       	ldi	r22, 0x06	; 6
    5374:	71 e0       	ldi	r23, 0x01	; 1
    5376:	8d ed       	ldi	r24, 0xDD	; 221
    5378:	91 e0       	ldi	r25, 0x01	; 1
    537a:	0e 94 a1 26 	call	0x4d42	; 0x4d42 <_ZN4VramC1EP14portcontrollerP8shiftreghhy>
static Vram vbank1 = Vram(&port,&addreg,rwpin,vmempin,0x2000u);//video/text ram
    537e:	81 2c       	mov	r8, r1
    5380:	68 94       	set
    5382:	99 24       	eor	r9, r9
    5384:	95 f8       	bld	r9, 5
    5386:	a1 2c       	mov	r10, r1
    5388:	b1 2c       	mov	r11, r1
    538a:	c1 2c       	mov	r12, r1
    538c:	d1 2c       	mov	r13, r1
    538e:	e1 2c       	mov	r14, r1
    5390:	f1 2c       	mov	r15, r1
    5392:	02 e0       	ldi	r16, 0x02	; 2
    5394:	21 e0       	ldi	r18, 0x01	; 1
    5396:	47 e0       	ldi	r20, 0x07	; 7
    5398:	51 e0       	ldi	r21, 0x01	; 1
    539a:	66 e0       	ldi	r22, 0x06	; 6
    539c:	71 e0       	ldi	r23, 0x01	; 1
    539e:	8d ee       	ldi	r24, 0xED	; 237
    53a0:	91 e0       	ldi	r25, 0x01	; 1
    53a2:	0e 94 a1 26 	call	0x4d42	; 0x4d42 <_ZN4VramC1EP14portcontrollerP8shiftreghhy>
static Vram vbank2 = Vram(&port,&addreg,rwpin,vmempin,0x4000u);// text/instruction ram 
    53a6:	81 2c       	mov	r8, r1
    53a8:	68 94       	set
    53aa:	99 24       	eor	r9, r9
    53ac:	96 f8       	bld	r9, 6
    53ae:	a1 2c       	mov	r10, r1
    53b0:	b1 2c       	mov	r11, r1
    53b2:	c1 2c       	mov	r12, r1
    53b4:	d1 2c       	mov	r13, r1
    53b6:	e1 2c       	mov	r14, r1
    53b8:	f1 2c       	mov	r15, r1
    53ba:	02 e0       	ldi	r16, 0x02	; 2
    53bc:	21 e0       	ldi	r18, 0x01	; 1
    53be:	47 e0       	ldi	r20, 0x07	; 7
    53c0:	51 e0       	ldi	r21, 0x01	; 1
    53c2:	66 e0       	ldi	r22, 0x06	; 6
    53c4:	71 e0       	ldi	r23, 0x01	; 1
    53c6:	8d ef       	ldi	r24, 0xFD	; 253
    53c8:	91 e0       	ldi	r25, 0x01	; 1
    53ca:	0e 94 a1 26 	call	0x4d42	; 0x4d42 <_ZN4VramC1EP14portcontrollerP8shiftreghhy>
static  ram* const PROGMEM rambanklist[] = {&bank0,&bank1,&bank2,&bank3,&bank4,&bank5,&bank6,&bank7,&bank8,&bank9,&bank10};
static Vram* const  PROGMEM vrambanklist[]={&vbank0,&vbank1,&vbank2};



static interrupts irqhandler= interrupts();
    53ce:	8d e0       	ldi	r24, 0x0D	; 13
    53d0:	92 e0       	ldi	r25, 0x02	; 2
    53d2:	0e 94 1e 21 	call	0x423c	; 0x423c <_ZN10interruptsC1Ev>
//static interpreter osinterpret= interpreter();
static interpreter interpret= interpreter();
    53d6:	8f e0       	ldi	r24, 0x0F	; 15
    53d8:	92 e0       	ldi	r25, 0x02	; 2
    53da:	0e 94 6b 02 	call	0x4d6	; 0x4d6 <_ZN11interpreterC1Ev>

/*
	reserved address and address+1
*/		
static keyboard kb = keyboard(0x22001u);
    53de:	41 e0       	ldi	r20, 0x01	; 1
    53e0:	50 e2       	ldi	r21, 0x20	; 32
    53e2:	62 e0       	ldi	r22, 0x02	; 2
    53e4:	70 e0       	ldi	r23, 0x00	; 0
    53e6:	81 e3       	ldi	r24, 0x31	; 49
    53e8:	93 e0       	ldi	r25, 0x03	; 3
    53ea:	0e 94 38 21 	call	0x4270	; 0x4270 <_ZN8keyboardC1Em>
    53ee:	89 81       	ldd	r24, Y+1	; 0x01
    53f0:	9a 81       	ldd	r25, Y+2	; 0x02
    53f2:	89 2b       	or	r24, r25
    53f4:	09 f0       	breq	.+2      	; 0x53f8 <_Z41__static_initialization_and_destruction_0ii+0x33a>
    53f6:	71 c0       	rjmp	.+226    	; 0x54da <_Z41__static_initialization_and_destruction_0ii+0x41c>
    53f8:	8b 81       	ldd	r24, Y+3	; 0x03
    53fa:	9c 81       	ldd	r25, Y+4	; 0x04
    53fc:	01 96       	adiw	r24, 0x01	; 1
    53fe:	09 f0       	breq	.+2      	; 0x5402 <_Z41__static_initialization_and_destruction_0ii+0x344>
    5400:	6c c0       	rjmp	.+216    	; 0x54da <_Z41__static_initialization_and_destruction_0ii+0x41c>
    5402:	81 e3       	ldi	r24, 0x31	; 49
    5404:	93 e0       	ldi	r25, 0x03	; 3
    5406:	0e 94 7b 21 	call	0x42f6	; 0x42f6 <_ZN8keyboardD1Ev>



static interrupts irqhandler= interrupts();
//static interpreter osinterpret= interpreter();
static interpreter interpret= interpreter();
    540a:	8f e0       	ldi	r24, 0x0F	; 15
    540c:	92 e0       	ldi	r25, 0x02	; 2
    540e:	0e 94 e7 20 	call	0x41ce	; 0x41ce <_ZN11interpreterD1Ev>
static  ram* const PROGMEM rambanklist[] = {&bank0,&bank1,&bank2,&bank3,&bank4,&bank5,&bank6,&bank7,&bank8,&bank9,&bank10};
static Vram* const  PROGMEM vrambanklist[]={&vbank0,&vbank1,&vbank2};



static interrupts irqhandler= interrupts();
    5412:	8d e0       	ldi	r24, 0x0D	; 13
    5414:	92 e0       	ldi	r25, 0x02	; 2
    5416:	0e 94 2b 21 	call	0x4256	; 0x4256 <_ZN10interruptsD1Ev>
	2049-4097 text ram

*/
static Vram vbank0 = Vram(&port,&addreg,rwpin,vmempin,0x0u);	// video ram
static Vram vbank1 = Vram(&port,&addreg,rwpin,vmempin,0x2000u);//video/text ram
static Vram vbank2 = Vram(&port,&addreg,rwpin,vmempin,0x4000u);// text/instruction ram 
    541a:	8d ef       	ldi	r24, 0xFD	; 253
    541c:	91 e0       	ldi	r25, 0x01	; 1
    541e:	0e 94 ee 26 	call	0x4ddc	; 0x4ddc <_ZN4VramD1Ev>
	0-2048 video ram
	2049-4097 text ram

*/
static Vram vbank0 = Vram(&port,&addreg,rwpin,vmempin,0x0u);	// video ram
static Vram vbank1 = Vram(&port,&addreg,rwpin,vmempin,0x2000u);//video/text ram
    5422:	8d ee       	ldi	r24, 0xED	; 237
    5424:	91 e0       	ldi	r25, 0x01	; 1
    5426:	0e 94 ee 26 	call	0x4ddc	; 0x4ddc <_ZN4VramD1Ev>
/*
	0-2048 video ram
	2049-4097 text ram

*/
static Vram vbank0 = Vram(&port,&addreg,rwpin,vmempin,0x0u);	// video ram
    542a:	8d ed       	ldi	r24, 0xDD	; 221
    542c:	91 e0       	ldi	r25, 0x01	; 1
    542e:	0e 94 ee 26 	call	0x4ddc	; 0x4ddc <_ZN4VramD1Ev>
static rom cartridge0 =rom(&port,&addreg,0x16000u);
static rom cartridge1 =rom(&port,&addreg,0x18000u);
static rom cartridge2 =rom(&port,&addreg,0x1A000u);
static rom program0 =rom(&port,&addreg,0x1C000u);
static rom program1 =rom(&port,&addreg,0x1E000u);
static rom basicrom =rom(&port,&addreg,0x20000u);
    5432:	85 ed       	ldi	r24, 0xD5	; 213
    5434:	91 e0       	ldi	r25, 0x01	; 1
    5436:	0e 94 49 25 	call	0x4a92	; 0x4a92 <_ZN3romD1Ev>

static rom cartridge0 =rom(&port,&addreg,0x16000u);
static rom cartridge1 =rom(&port,&addreg,0x18000u);
static rom cartridge2 =rom(&port,&addreg,0x1A000u);
static rom program0 =rom(&port,&addreg,0x1C000u);
static rom program1 =rom(&port,&addreg,0x1E000u);
    543a:	8d ec       	ldi	r24, 0xCD	; 205
    543c:	91 e0       	ldi	r25, 0x01	; 1
    543e:	0e 94 49 25 	call	0x4a92	; 0x4a92 <_ZN3romD1Ev>
static ram bank10 = ram(&port,&addreg,rwpin,0x14000u);// stack ram

static rom cartridge0 =rom(&port,&addreg,0x16000u);
static rom cartridge1 =rom(&port,&addreg,0x18000u);
static rom cartridge2 =rom(&port,&addreg,0x1A000u);
static rom program0 =rom(&port,&addreg,0x1C000u);
    5442:	85 ec       	ldi	r24, 0xC5	; 197
    5444:	91 e0       	ldi	r25, 0x01	; 1
    5446:	0e 94 49 25 	call	0x4a92	; 0x4a92 <_ZN3romD1Ev>
static ram bank9 = ram(&port,&addreg,rwpin,0x12000u);// os data
static ram bank10 = ram(&port,&addreg,rwpin,0x14000u);// stack ram

static rom cartridge0 =rom(&port,&addreg,0x16000u);
static rom cartridge1 =rom(&port,&addreg,0x18000u);
static rom cartridge2 =rom(&port,&addreg,0x1A000u);
    544a:	8d eb       	ldi	r24, 0xBD	; 189
    544c:	91 e0       	ldi	r25, 0x01	; 1
    544e:	0e 94 49 25 	call	0x4a92	; 0x4a92 <_ZN3romD1Ev>
static ram bank8 = ram(&port,&addreg,rwpin,0x10000u);
static ram bank9 = ram(&port,&addreg,rwpin,0x12000u);// os data
static ram bank10 = ram(&port,&addreg,rwpin,0x14000u);// stack ram

static rom cartridge0 =rom(&port,&addreg,0x16000u);
static rom cartridge1 =rom(&port,&addreg,0x18000u);
    5452:	85 eb       	ldi	r24, 0xB5	; 181
    5454:	91 e0       	ldi	r25, 0x01	; 1
    5456:	0e 94 49 25 	call	0x4a92	; 0x4a92 <_ZN3romD1Ev>
static ram bank7 = ram(&port,&addreg,rwpin,0x0E000u);
static ram bank8 = ram(&port,&addreg,rwpin,0x10000u);
static ram bank9 = ram(&port,&addreg,rwpin,0x12000u);// os data
static ram bank10 = ram(&port,&addreg,rwpin,0x14000u);// stack ram

static rom cartridge0 =rom(&port,&addreg,0x16000u);
    545a:	8d ea       	ldi	r24, 0xAD	; 173
    545c:	91 e0       	ldi	r25, 0x01	; 1
    545e:	0e 94 49 25 	call	0x4a92	; 0x4a92 <_ZN3romD1Ev>
static ram bank5 = ram(&port,&addreg,rwpin,0xA000u);
static ram bank6 = ram(&port,&addreg,rwpin,0xC000u);
static ram bank7 = ram(&port,&addreg,rwpin,0x0E000u);
static ram bank8 = ram(&port,&addreg,rwpin,0x10000u);
static ram bank9 = ram(&port,&addreg,rwpin,0x12000u);// os data
static ram bank10 = ram(&port,&addreg,rwpin,0x14000u);// stack ram
    5462:	81 ea       	ldi	r24, 0xA1	; 161
    5464:	91 e0       	ldi	r25, 0x01	; 1
    5466:	0e 94 94 26 	call	0x4d28	; 0x4d28 <_ZN3ramD1Ev>

static ram bank5 = ram(&port,&addreg,rwpin,0xA000u);
static ram bank6 = ram(&port,&addreg,rwpin,0xC000u);
static ram bank7 = ram(&port,&addreg,rwpin,0x0E000u);
static ram bank8 = ram(&port,&addreg,rwpin,0x10000u);
static ram bank9 = ram(&port,&addreg,rwpin,0x12000u);// os data
    546a:	85 e9       	ldi	r24, 0x95	; 149
    546c:	91 e0       	ldi	r25, 0x01	; 1
    546e:	0e 94 94 26 	call	0x4d28	; 0x4d28 <_ZN3ramD1Ev>
static ram bank4 = ram(&port,&addreg,rwpin,0x8000u);

static ram bank5 = ram(&port,&addreg,rwpin,0xA000u);
static ram bank6 = ram(&port,&addreg,rwpin,0xC000u);
static ram bank7 = ram(&port,&addreg,rwpin,0x0E000u);
static ram bank8 = ram(&port,&addreg,rwpin,0x10000u);
    5472:	89 e8       	ldi	r24, 0x89	; 137
    5474:	91 e0       	ldi	r25, 0x01	; 1
    5476:	0e 94 94 26 	call	0x4d28	; 0x4d28 <_ZN3ramD1Ev>
static ram bank3 = ram(&port,&addreg,rwpin,0x6000u);
static ram bank4 = ram(&port,&addreg,rwpin,0x8000u);

static ram bank5 = ram(&port,&addreg,rwpin,0xA000u);
static ram bank6 = ram(&port,&addreg,rwpin,0xC000u);
static ram bank7 = ram(&port,&addreg,rwpin,0x0E000u);
    547a:	8d e7       	ldi	r24, 0x7D	; 125
    547c:	91 e0       	ldi	r25, 0x01	; 1
    547e:	0e 94 94 26 	call	0x4d28	; 0x4d28 <_ZN3ramD1Ev>
static ram bank2 = ram(&port,&addreg,rwpin,0x4000u);// main data ram 
static ram bank3 = ram(&port,&addreg,rwpin,0x6000u);
static ram bank4 = ram(&port,&addreg,rwpin,0x8000u);

static ram bank5 = ram(&port,&addreg,rwpin,0xA000u);
static ram bank6 = ram(&port,&addreg,rwpin,0xC000u);
    5482:	81 e7       	ldi	r24, 0x71	; 113
    5484:	91 e0       	ldi	r25, 0x01	; 1
    5486:	0e 94 94 26 	call	0x4d28	; 0x4d28 <_ZN3ramD1Ev>
static ram bank1 = ram(&port,&addreg,rwpin,0x2000u);//main program code
static ram bank2 = ram(&port,&addreg,rwpin,0x4000u);// main data ram 
static ram bank3 = ram(&port,&addreg,rwpin,0x6000u);
static ram bank4 = ram(&port,&addreg,rwpin,0x8000u);

static ram bank5 = ram(&port,&addreg,rwpin,0xA000u);
    548a:	85 e6       	ldi	r24, 0x65	; 101
    548c:	91 e0       	ldi	r25, 0x01	; 1
    548e:	0e 94 94 26 	call	0x4d28	; 0x4d28 <_ZN3ramD1Ev>

static ram bank0 = ram(&port,&addreg,rwpin,0x0u);	// os code 
static ram bank1 = ram(&port,&addreg,rwpin,0x2000u);//main program code
static ram bank2 = ram(&port,&addreg,rwpin,0x4000u);// main data ram 
static ram bank3 = ram(&port,&addreg,rwpin,0x6000u);
static ram bank4 = ram(&port,&addreg,rwpin,0x8000u);
    5492:	89 e5       	ldi	r24, 0x59	; 89
    5494:	91 e0       	ldi	r25, 0x01	; 1
    5496:	0e 94 94 26 	call	0x4d28	; 0x4d28 <_ZN3ramD1Ev>
static Serial serial= Serial(&csreg,&port,3,34,33);

static ram bank0 = ram(&port,&addreg,rwpin,0x0u);	// os code 
static ram bank1 = ram(&port,&addreg,rwpin,0x2000u);//main program code
static ram bank2 = ram(&port,&addreg,rwpin,0x4000u);// main data ram 
static ram bank3 = ram(&port,&addreg,rwpin,0x6000u);
    549a:	8d e4       	ldi	r24, 0x4D	; 77
    549c:	91 e0       	ldi	r25, 0x01	; 1
    549e:	0e 94 94 26 	call	0x4d28	; 0x4d28 <_ZN3ramD1Ev>
static shiftreg csreg=shiftreg(37,36,35,&port);
static Serial serial= Serial(&csreg,&port,3,34,33);

static ram bank0 = ram(&port,&addreg,rwpin,0x0u);	// os code 
static ram bank1 = ram(&port,&addreg,rwpin,0x2000u);//main program code
static ram bank2 = ram(&port,&addreg,rwpin,0x4000u);// main data ram 
    54a2:	81 e4       	ldi	r24, 0x41	; 65
    54a4:	91 e0       	ldi	r25, 0x01	; 1
    54a6:	0e 94 94 26 	call	0x4d28	; 0x4d28 <_ZN3ramD1Ev>
static shiftreg addreg=shiftreg(40,39,38,&port);
static shiftreg csreg=shiftreg(37,36,35,&port);
static Serial serial= Serial(&csreg,&port,3,34,33);

static ram bank0 = ram(&port,&addreg,rwpin,0x0u);	// os code 
static ram bank1 = ram(&port,&addreg,rwpin,0x2000u);//main program code
    54aa:	85 e3       	ldi	r24, 0x35	; 53
    54ac:	91 e0       	ldi	r25, 0x01	; 1
    54ae:	0e 94 94 26 	call	0x4d28	; 0x4d28 <_ZN3ramD1Ev>
static portcontroller port=portcontroller();
static shiftreg addreg=shiftreg(40,39,38,&port);
static shiftreg csreg=shiftreg(37,36,35,&port);
static Serial serial= Serial(&csreg,&port,3,34,33);

static ram bank0 = ram(&port,&addreg,rwpin,0x0u);	// os code 
    54b2:	89 e2       	ldi	r24, 0x29	; 41
    54b4:	91 e0       	ldi	r25, 0x01	; 1
    54b6:	0e 94 94 26 	call	0x4d28	; 0x4d28 <_ZN3ramD1Ev>

//static const int address_max_hex=0x1fff;
static portcontroller port=portcontroller();
static shiftreg addreg=shiftreg(40,39,38,&port);
static shiftreg csreg=shiftreg(37,36,35,&port);
static Serial serial= Serial(&csreg,&port,3,34,33);
    54ba:	81 e2       	ldi	r24, 0x21	; 33
    54bc:	91 e0       	ldi	r25, 0x01	; 1
    54be:	0e 94 d6 00 	call	0x1ac	; 0x1ac <_ZN6SerialD1Ev>


//static const int address_max_hex=0x1fff;
static portcontroller port=portcontroller();
static shiftreg addreg=shiftreg(40,39,38,&port);
static shiftreg csreg=shiftreg(37,36,35,&port);
    54c2:	84 e1       	ldi	r24, 0x14	; 20
    54c4:	91 e0       	ldi	r25, 0x01	; 1
    54c6:	0e 94 d2 24 	call	0x49a4	; 0x49a4 <_ZN8shiftregD1Ev>



//static const int address_max_hex=0x1fff;
static portcontroller port=portcontroller();
static shiftreg addreg=shiftreg(40,39,38,&port);
    54ca:	87 e0       	ldi	r24, 0x07	; 7
    54cc:	91 e0       	ldi	r25, 0x01	; 1
    54ce:	0e 94 d2 24 	call	0x49a4	; 0x49a4 <_ZN8shiftregD1Ev>
*/



//static const int address_max_hex=0x1fff;
static portcontroller port=portcontroller();
    54d2:	86 e0       	ldi	r24, 0x06	; 6
    54d4:	91 e0       	ldi	r25, 0x01	; 1
    54d6:	0e 94 9f 22 	call	0x453e	; 0x453e <_ZN14portcontrollerD1Ev>
		 
		 free(command_str);
		 free(in_str);
	 }
	return 0;        	
    54da:	00 00       	nop
    54dc:	0f 90       	pop	r0
    54de:	0f 90       	pop	r0
    54e0:	0f 90       	pop	r0
    54e2:	0f 90       	pop	r0
    54e4:	df 91       	pop	r29
    54e6:	cf 91       	pop	r28
    54e8:	1f 91       	pop	r17
    54ea:	0f 91       	pop	r16
    54ec:	ff 90       	pop	r15
    54ee:	ef 90       	pop	r14
    54f0:	df 90       	pop	r13
    54f2:	cf 90       	pop	r12
    54f4:	bf 90       	pop	r11
    54f6:	af 90       	pop	r10
    54f8:	9f 90       	pop	r9
    54fa:	8f 90       	pop	r8
    54fc:	08 95       	ret

000054fe <_GLOBAL__sub_I_idList>:
    54fe:	cf 93       	push	r28
    5500:	df 93       	push	r29
    5502:	cd b7       	in	r28, 0x3d	; 61
    5504:	de b7       	in	r29, 0x3e	; 62
    5506:	6f ef       	ldi	r22, 0xFF	; 255
    5508:	7f ef       	ldi	r23, 0xFF	; 255
    550a:	81 e0       	ldi	r24, 0x01	; 1
    550c:	90 e0       	ldi	r25, 0x00	; 0
    550e:	0e 94 5f 28 	call	0x50be	; 0x50be <_Z41__static_initialization_and_destruction_0ii>
    5512:	df 91       	pop	r29
    5514:	cf 91       	pop	r28
    5516:	08 95       	ret

00005518 <_GLOBAL__sub_D_idList>:
    5518:	cf 93       	push	r28
    551a:	df 93       	push	r29
    551c:	cd b7       	in	r28, 0x3d	; 61
    551e:	de b7       	in	r29, 0x3e	; 62
    5520:	6f ef       	ldi	r22, 0xFF	; 255
    5522:	7f ef       	ldi	r23, 0xFF	; 255
    5524:	80 e0       	ldi	r24, 0x00	; 0
    5526:	90 e0       	ldi	r25, 0x00	; 0
    5528:	0e 94 5f 28 	call	0x50be	; 0x50be <_Z41__static_initialization_and_destruction_0ii>
    552c:	df 91       	pop	r29
    552e:	cf 91       	pop	r28
    5530:	08 95       	ret

00005532 <__cmpsf2>:
    5532:	0e 94 cd 2a 	call	0x559a	; 0x559a <__fp_cmp>
    5536:	08 f4       	brcc	.+2      	; 0x553a <__cmpsf2+0x8>
    5538:	81 e0       	ldi	r24, 0x01	; 1
    553a:	08 95       	ret

0000553c <__fixunssfsi>:
    553c:	0e 94 f9 2a 	call	0x55f2	; 0x55f2 <__fp_splitA>
    5540:	88 f0       	brcs	.+34     	; 0x5564 <__fixunssfsi+0x28>
    5542:	9f 57       	subi	r25, 0x7F	; 127
    5544:	98 f0       	brcs	.+38     	; 0x556c <__fixunssfsi+0x30>
    5546:	b9 2f       	mov	r27, r25
    5548:	99 27       	eor	r25, r25
    554a:	b7 51       	subi	r27, 0x17	; 23
    554c:	b0 f0       	brcs	.+44     	; 0x557a <__fixunssfsi+0x3e>
    554e:	e1 f0       	breq	.+56     	; 0x5588 <__fixunssfsi+0x4c>
    5550:	66 0f       	add	r22, r22
    5552:	77 1f       	adc	r23, r23
    5554:	88 1f       	adc	r24, r24
    5556:	99 1f       	adc	r25, r25
    5558:	1a f0       	brmi	.+6      	; 0x5560 <__fixunssfsi+0x24>
    555a:	ba 95       	dec	r27
    555c:	c9 f7       	brne	.-14     	; 0x5550 <__fixunssfsi+0x14>
    555e:	14 c0       	rjmp	.+40     	; 0x5588 <__fixunssfsi+0x4c>
    5560:	b1 30       	cpi	r27, 0x01	; 1
    5562:	91 f0       	breq	.+36     	; 0x5588 <__fixunssfsi+0x4c>
    5564:	0e 94 13 2b 	call	0x5626	; 0x5626 <__fp_zero>
    5568:	b1 e0       	ldi	r27, 0x01	; 1
    556a:	08 95       	ret
    556c:	0c 94 13 2b 	jmp	0x5626	; 0x5626 <__fp_zero>
    5570:	67 2f       	mov	r22, r23
    5572:	78 2f       	mov	r23, r24
    5574:	88 27       	eor	r24, r24
    5576:	b8 5f       	subi	r27, 0xF8	; 248
    5578:	39 f0       	breq	.+14     	; 0x5588 <__fixunssfsi+0x4c>
    557a:	b9 3f       	cpi	r27, 0xF9	; 249
    557c:	cc f3       	brlt	.-14     	; 0x5570 <__fixunssfsi+0x34>
    557e:	86 95       	lsr	r24
    5580:	77 95       	ror	r23
    5582:	67 95       	ror	r22
    5584:	b3 95       	inc	r27
    5586:	d9 f7       	brne	.-10     	; 0x557e <__fixunssfsi+0x42>
    5588:	3e f4       	brtc	.+14     	; 0x5598 <__fixunssfsi+0x5c>
    558a:	90 95       	com	r25
    558c:	80 95       	com	r24
    558e:	70 95       	com	r23
    5590:	61 95       	neg	r22
    5592:	7f 4f       	sbci	r23, 0xFF	; 255
    5594:	8f 4f       	sbci	r24, 0xFF	; 255
    5596:	9f 4f       	sbci	r25, 0xFF	; 255
    5598:	08 95       	ret

0000559a <__fp_cmp>:
    559a:	99 0f       	add	r25, r25
    559c:	00 08       	sbc	r0, r0
    559e:	55 0f       	add	r21, r21
    55a0:	aa 0b       	sbc	r26, r26
    55a2:	e0 e8       	ldi	r30, 0x80	; 128
    55a4:	fe ef       	ldi	r31, 0xFE	; 254
    55a6:	16 16       	cp	r1, r22
    55a8:	17 06       	cpc	r1, r23
    55aa:	e8 07       	cpc	r30, r24
    55ac:	f9 07       	cpc	r31, r25
    55ae:	c0 f0       	brcs	.+48     	; 0x55e0 <__fp_cmp+0x46>
    55b0:	12 16       	cp	r1, r18
    55b2:	13 06       	cpc	r1, r19
    55b4:	e4 07       	cpc	r30, r20
    55b6:	f5 07       	cpc	r31, r21
    55b8:	98 f0       	brcs	.+38     	; 0x55e0 <__fp_cmp+0x46>
    55ba:	62 1b       	sub	r22, r18
    55bc:	73 0b       	sbc	r23, r19
    55be:	84 0b       	sbc	r24, r20
    55c0:	95 0b       	sbc	r25, r21
    55c2:	39 f4       	brne	.+14     	; 0x55d2 <__fp_cmp+0x38>
    55c4:	0a 26       	eor	r0, r26
    55c6:	61 f0       	breq	.+24     	; 0x55e0 <__fp_cmp+0x46>
    55c8:	23 2b       	or	r18, r19
    55ca:	24 2b       	or	r18, r20
    55cc:	25 2b       	or	r18, r21
    55ce:	21 f4       	brne	.+8      	; 0x55d8 <__fp_cmp+0x3e>
    55d0:	08 95       	ret
    55d2:	0a 26       	eor	r0, r26
    55d4:	09 f4       	brne	.+2      	; 0x55d8 <__fp_cmp+0x3e>
    55d6:	a1 40       	sbci	r26, 0x01	; 1
    55d8:	a6 95       	lsr	r26
    55da:	8f ef       	ldi	r24, 0xFF	; 255
    55dc:	81 1d       	adc	r24, r1
    55de:	81 1d       	adc	r24, r1
    55e0:	08 95       	ret

000055e2 <__fp_split3>:
    55e2:	57 fd       	sbrc	r21, 7
    55e4:	90 58       	subi	r25, 0x80	; 128
    55e6:	44 0f       	add	r20, r20
    55e8:	55 1f       	adc	r21, r21
    55ea:	59 f0       	breq	.+22     	; 0x5602 <__fp_splitA+0x10>
    55ec:	5f 3f       	cpi	r21, 0xFF	; 255
    55ee:	71 f0       	breq	.+28     	; 0x560c <__fp_splitA+0x1a>
    55f0:	47 95       	ror	r20

000055f2 <__fp_splitA>:
    55f2:	88 0f       	add	r24, r24
    55f4:	97 fb       	bst	r25, 7
    55f6:	99 1f       	adc	r25, r25
    55f8:	61 f0       	breq	.+24     	; 0x5612 <__fp_splitA+0x20>
    55fa:	9f 3f       	cpi	r25, 0xFF	; 255
    55fc:	79 f0       	breq	.+30     	; 0x561c <__fp_splitA+0x2a>
    55fe:	87 95       	ror	r24
    5600:	08 95       	ret
    5602:	12 16       	cp	r1, r18
    5604:	13 06       	cpc	r1, r19
    5606:	14 06       	cpc	r1, r20
    5608:	55 1f       	adc	r21, r21
    560a:	f2 cf       	rjmp	.-28     	; 0x55f0 <__fp_split3+0xe>
    560c:	46 95       	lsr	r20
    560e:	f1 df       	rcall	.-30     	; 0x55f2 <__fp_splitA>
    5610:	08 c0       	rjmp	.+16     	; 0x5622 <__fp_splitA+0x30>
    5612:	16 16       	cp	r1, r22
    5614:	17 06       	cpc	r1, r23
    5616:	18 06       	cpc	r1, r24
    5618:	99 1f       	adc	r25, r25
    561a:	f1 cf       	rjmp	.-30     	; 0x55fe <__fp_splitA+0xc>
    561c:	86 95       	lsr	r24
    561e:	71 05       	cpc	r23, r1
    5620:	61 05       	cpc	r22, r1
    5622:	08 94       	sec
    5624:	08 95       	ret

00005626 <__fp_zero>:
    5626:	e8 94       	clt

00005628 <__fp_szero>:
    5628:	bb 27       	eor	r27, r27
    562a:	66 27       	eor	r22, r22
    562c:	77 27       	eor	r23, r23
    562e:	cb 01       	movw	r24, r22
    5630:	97 f9       	bld	r25, 7
    5632:	08 95       	ret

00005634 <__gesf2>:
    5634:	0e 94 cd 2a 	call	0x559a	; 0x559a <__fp_cmp>
    5638:	08 f4       	brcc	.+2      	; 0x563c <__gesf2+0x8>
    563a:	8f ef       	ldi	r24, 0xFF	; 255
    563c:	08 95       	ret

0000563e <__mulsf3>:
    563e:	0e 94 32 2b 	call	0x5664	; 0x5664 <__mulsf3x>
    5642:	0c 94 a3 2b 	jmp	0x5746	; 0x5746 <__fp_round>
    5646:	0e 94 95 2b 	call	0x572a	; 0x572a <__fp_pscA>
    564a:	38 f0       	brcs	.+14     	; 0x565a <__mulsf3+0x1c>
    564c:	0e 94 9c 2b 	call	0x5738	; 0x5738 <__fp_pscB>
    5650:	20 f0       	brcs	.+8      	; 0x565a <__mulsf3+0x1c>
    5652:	95 23       	and	r25, r21
    5654:	11 f0       	breq	.+4      	; 0x565a <__mulsf3+0x1c>
    5656:	0c 94 8c 2b 	jmp	0x5718	; 0x5718 <__fp_inf>
    565a:	0c 94 92 2b 	jmp	0x5724	; 0x5724 <__fp_nan>
    565e:	11 24       	eor	r1, r1
    5660:	0c 94 14 2b 	jmp	0x5628	; 0x5628 <__fp_szero>

00005664 <__mulsf3x>:
    5664:	0e 94 f1 2a 	call	0x55e2	; 0x55e2 <__fp_split3>
    5668:	70 f3       	brcs	.-36     	; 0x5646 <__mulsf3+0x8>

0000566a <__mulsf3_pse>:
    566a:	95 9f       	mul	r25, r21
    566c:	c1 f3       	breq	.-16     	; 0x565e <__mulsf3+0x20>
    566e:	95 0f       	add	r25, r21
    5670:	50 e0       	ldi	r21, 0x00	; 0
    5672:	55 1f       	adc	r21, r21
    5674:	62 9f       	mul	r22, r18
    5676:	f0 01       	movw	r30, r0
    5678:	72 9f       	mul	r23, r18
    567a:	bb 27       	eor	r27, r27
    567c:	f0 0d       	add	r31, r0
    567e:	b1 1d       	adc	r27, r1
    5680:	63 9f       	mul	r22, r19
    5682:	aa 27       	eor	r26, r26
    5684:	f0 0d       	add	r31, r0
    5686:	b1 1d       	adc	r27, r1
    5688:	aa 1f       	adc	r26, r26
    568a:	64 9f       	mul	r22, r20
    568c:	66 27       	eor	r22, r22
    568e:	b0 0d       	add	r27, r0
    5690:	a1 1d       	adc	r26, r1
    5692:	66 1f       	adc	r22, r22
    5694:	82 9f       	mul	r24, r18
    5696:	22 27       	eor	r18, r18
    5698:	b0 0d       	add	r27, r0
    569a:	a1 1d       	adc	r26, r1
    569c:	62 1f       	adc	r22, r18
    569e:	73 9f       	mul	r23, r19
    56a0:	b0 0d       	add	r27, r0
    56a2:	a1 1d       	adc	r26, r1
    56a4:	62 1f       	adc	r22, r18
    56a6:	83 9f       	mul	r24, r19
    56a8:	a0 0d       	add	r26, r0
    56aa:	61 1d       	adc	r22, r1
    56ac:	22 1f       	adc	r18, r18
    56ae:	74 9f       	mul	r23, r20
    56b0:	33 27       	eor	r19, r19
    56b2:	a0 0d       	add	r26, r0
    56b4:	61 1d       	adc	r22, r1
    56b6:	23 1f       	adc	r18, r19
    56b8:	84 9f       	mul	r24, r20
    56ba:	60 0d       	add	r22, r0
    56bc:	21 1d       	adc	r18, r1
    56be:	82 2f       	mov	r24, r18
    56c0:	76 2f       	mov	r23, r22
    56c2:	6a 2f       	mov	r22, r26
    56c4:	11 24       	eor	r1, r1
    56c6:	9f 57       	subi	r25, 0x7F	; 127
    56c8:	50 40       	sbci	r21, 0x00	; 0
    56ca:	9a f0       	brmi	.+38     	; 0x56f2 <__mulsf3_pse+0x88>
    56cc:	f1 f0       	breq	.+60     	; 0x570a <__mulsf3_pse+0xa0>
    56ce:	88 23       	and	r24, r24
    56d0:	4a f0       	brmi	.+18     	; 0x56e4 <__mulsf3_pse+0x7a>
    56d2:	ee 0f       	add	r30, r30
    56d4:	ff 1f       	adc	r31, r31
    56d6:	bb 1f       	adc	r27, r27
    56d8:	66 1f       	adc	r22, r22
    56da:	77 1f       	adc	r23, r23
    56dc:	88 1f       	adc	r24, r24
    56de:	91 50       	subi	r25, 0x01	; 1
    56e0:	50 40       	sbci	r21, 0x00	; 0
    56e2:	a9 f7       	brne	.-22     	; 0x56ce <__mulsf3_pse+0x64>
    56e4:	9e 3f       	cpi	r25, 0xFE	; 254
    56e6:	51 05       	cpc	r21, r1
    56e8:	80 f0       	brcs	.+32     	; 0x570a <__mulsf3_pse+0xa0>
    56ea:	0c 94 8c 2b 	jmp	0x5718	; 0x5718 <__fp_inf>
    56ee:	0c 94 14 2b 	jmp	0x5628	; 0x5628 <__fp_szero>
    56f2:	5f 3f       	cpi	r21, 0xFF	; 255
    56f4:	e4 f3       	brlt	.-8      	; 0x56ee <__mulsf3_pse+0x84>
    56f6:	98 3e       	cpi	r25, 0xE8	; 232
    56f8:	d4 f3       	brlt	.-12     	; 0x56ee <__mulsf3_pse+0x84>
    56fa:	86 95       	lsr	r24
    56fc:	77 95       	ror	r23
    56fe:	67 95       	ror	r22
    5700:	b7 95       	ror	r27
    5702:	f7 95       	ror	r31
    5704:	e7 95       	ror	r30
    5706:	9f 5f       	subi	r25, 0xFF	; 255
    5708:	c1 f7       	brne	.-16     	; 0x56fa <__mulsf3_pse+0x90>
    570a:	fe 2b       	or	r31, r30
    570c:	88 0f       	add	r24, r24
    570e:	91 1d       	adc	r25, r1
    5710:	96 95       	lsr	r25
    5712:	87 95       	ror	r24
    5714:	97 f9       	bld	r25, 7
    5716:	08 95       	ret

00005718 <__fp_inf>:
    5718:	97 f9       	bld	r25, 7
    571a:	9f 67       	ori	r25, 0x7F	; 127
    571c:	80 e8       	ldi	r24, 0x80	; 128
    571e:	70 e0       	ldi	r23, 0x00	; 0
    5720:	60 e0       	ldi	r22, 0x00	; 0
    5722:	08 95       	ret

00005724 <__fp_nan>:
    5724:	9f ef       	ldi	r25, 0xFF	; 255
    5726:	80 ec       	ldi	r24, 0xC0	; 192
    5728:	08 95       	ret

0000572a <__fp_pscA>:
    572a:	00 24       	eor	r0, r0
    572c:	0a 94       	dec	r0
    572e:	16 16       	cp	r1, r22
    5730:	17 06       	cpc	r1, r23
    5732:	18 06       	cpc	r1, r24
    5734:	09 06       	cpc	r0, r25
    5736:	08 95       	ret

00005738 <__fp_pscB>:
    5738:	00 24       	eor	r0, r0
    573a:	0a 94       	dec	r0
    573c:	12 16       	cp	r1, r18
    573e:	13 06       	cpc	r1, r19
    5740:	14 06       	cpc	r1, r20
    5742:	05 06       	cpc	r0, r21
    5744:	08 95       	ret

00005746 <__fp_round>:
    5746:	09 2e       	mov	r0, r25
    5748:	03 94       	inc	r0
    574a:	00 0c       	add	r0, r0
    574c:	11 f4       	brne	.+4      	; 0x5752 <__fp_round+0xc>
    574e:	88 23       	and	r24, r24
    5750:	52 f0       	brmi	.+20     	; 0x5766 <__fp_round+0x20>
    5752:	bb 0f       	add	r27, r27
    5754:	40 f4       	brcc	.+16     	; 0x5766 <__fp_round+0x20>
    5756:	bf 2b       	or	r27, r31
    5758:	11 f4       	brne	.+4      	; 0x575e <__fp_round+0x18>
    575a:	60 ff       	sbrs	r22, 0
    575c:	04 c0       	rjmp	.+8      	; 0x5766 <__fp_round+0x20>
    575e:	6f 5f       	subi	r22, 0xFF	; 255
    5760:	7f 4f       	sbci	r23, 0xFF	; 255
    5762:	8f 4f       	sbci	r24, 0xFF	; 255
    5764:	9f 4f       	sbci	r25, 0xFF	; 255
    5766:	08 95       	ret

00005768 <__udivmodqi4>:
    5768:	99 1b       	sub	r25, r25
    576a:	79 e0       	ldi	r23, 0x09	; 9
    576c:	04 c0       	rjmp	.+8      	; 0x5776 <__udivmodqi4_ep>

0000576e <__udivmodqi4_loop>:
    576e:	99 1f       	adc	r25, r25
    5770:	96 17       	cp	r25, r22
    5772:	08 f0       	brcs	.+2      	; 0x5776 <__udivmodqi4_ep>
    5774:	96 1b       	sub	r25, r22

00005776 <__udivmodqi4_ep>:
    5776:	88 1f       	adc	r24, r24
    5778:	7a 95       	dec	r23
    577a:	c9 f7       	brne	.-14     	; 0x576e <__udivmodqi4_loop>
    577c:	80 95       	com	r24
    577e:	08 95       	ret

00005780 <__tablejump2__>:
    5780:	ee 0f       	add	r30, r30
    5782:	ff 1f       	adc	r31, r31
    5784:	05 90       	lpm	r0, Z+
    5786:	f4 91       	lpm	r31, Z
    5788:	e0 2d       	mov	r30, r0
    578a:	09 94       	ijmp

0000578c <calloc>:
    578c:	0f 93       	push	r16
    578e:	1f 93       	push	r17
    5790:	cf 93       	push	r28
    5792:	df 93       	push	r29
    5794:	86 9f       	mul	r24, r22
    5796:	80 01       	movw	r16, r0
    5798:	87 9f       	mul	r24, r23
    579a:	10 0d       	add	r17, r0
    579c:	96 9f       	mul	r25, r22
    579e:	10 0d       	add	r17, r0
    57a0:	11 24       	eor	r1, r1
    57a2:	c8 01       	movw	r24, r16
    57a4:	0e 94 e2 2b 	call	0x57c4	; 0x57c4 <malloc>
    57a8:	ec 01       	movw	r28, r24
    57aa:	00 97       	sbiw	r24, 0x00	; 0
    57ac:	29 f0       	breq	.+10     	; 0x57b8 <calloc+0x2c>
    57ae:	a8 01       	movw	r20, r16
    57b0:	60 e0       	ldi	r22, 0x00	; 0
    57b2:	70 e0       	ldi	r23, 0x00	; 0
    57b4:	0e 94 26 2d 	call	0x5a4c	; 0x5a4c <memset>
    57b8:	ce 01       	movw	r24, r28
    57ba:	df 91       	pop	r29
    57bc:	cf 91       	pop	r28
    57be:	1f 91       	pop	r17
    57c0:	0f 91       	pop	r16
    57c2:	08 95       	ret

000057c4 <malloc>:
    57c4:	0f 93       	push	r16
    57c6:	1f 93       	push	r17
    57c8:	cf 93       	push	r28
    57ca:	df 93       	push	r29
    57cc:	82 30       	cpi	r24, 0x02	; 2
    57ce:	91 05       	cpc	r25, r1
    57d0:	10 f4       	brcc	.+4      	; 0x57d6 <malloc+0x12>
    57d2:	82 e0       	ldi	r24, 0x02	; 2
    57d4:	90 e0       	ldi	r25, 0x00	; 0
    57d6:	e0 91 41 03 	lds	r30, 0x0341	; 0x800341 <__flp>
    57da:	f0 91 42 03 	lds	r31, 0x0342	; 0x800342 <__flp+0x1>
    57de:	20 e0       	ldi	r18, 0x00	; 0
    57e0:	30 e0       	ldi	r19, 0x00	; 0
    57e2:	a0 e0       	ldi	r26, 0x00	; 0
    57e4:	b0 e0       	ldi	r27, 0x00	; 0
    57e6:	30 97       	sbiw	r30, 0x00	; 0
    57e8:	19 f1       	breq	.+70     	; 0x5830 <malloc+0x6c>
    57ea:	40 81       	ld	r20, Z
    57ec:	51 81       	ldd	r21, Z+1	; 0x01
    57ee:	02 81       	ldd	r16, Z+2	; 0x02
    57f0:	13 81       	ldd	r17, Z+3	; 0x03
    57f2:	48 17       	cp	r20, r24
    57f4:	59 07       	cpc	r21, r25
    57f6:	c8 f0       	brcs	.+50     	; 0x582a <malloc+0x66>
    57f8:	84 17       	cp	r24, r20
    57fa:	95 07       	cpc	r25, r21
    57fc:	69 f4       	brne	.+26     	; 0x5818 <malloc+0x54>
    57fe:	10 97       	sbiw	r26, 0x00	; 0
    5800:	31 f0       	breq	.+12     	; 0x580e <malloc+0x4a>
    5802:	12 96       	adiw	r26, 0x02	; 2
    5804:	0c 93       	st	X, r16
    5806:	12 97       	sbiw	r26, 0x02	; 2
    5808:	13 96       	adiw	r26, 0x03	; 3
    580a:	1c 93       	st	X, r17
    580c:	27 c0       	rjmp	.+78     	; 0x585c <malloc+0x98>
    580e:	00 93 41 03 	sts	0x0341, r16	; 0x800341 <__flp>
    5812:	10 93 42 03 	sts	0x0342, r17	; 0x800342 <__flp+0x1>
    5816:	22 c0       	rjmp	.+68     	; 0x585c <malloc+0x98>
    5818:	21 15       	cp	r18, r1
    581a:	31 05       	cpc	r19, r1
    581c:	19 f0       	breq	.+6      	; 0x5824 <malloc+0x60>
    581e:	42 17       	cp	r20, r18
    5820:	53 07       	cpc	r21, r19
    5822:	18 f4       	brcc	.+6      	; 0x582a <malloc+0x66>
    5824:	9a 01       	movw	r18, r20
    5826:	bd 01       	movw	r22, r26
    5828:	ef 01       	movw	r28, r30
    582a:	df 01       	movw	r26, r30
    582c:	f8 01       	movw	r30, r16
    582e:	db cf       	rjmp	.-74     	; 0x57e6 <malloc+0x22>
    5830:	21 15       	cp	r18, r1
    5832:	31 05       	cpc	r19, r1
    5834:	f9 f0       	breq	.+62     	; 0x5874 <malloc+0xb0>
    5836:	28 1b       	sub	r18, r24
    5838:	39 0b       	sbc	r19, r25
    583a:	24 30       	cpi	r18, 0x04	; 4
    583c:	31 05       	cpc	r19, r1
    583e:	80 f4       	brcc	.+32     	; 0x5860 <malloc+0x9c>
    5840:	8a 81       	ldd	r24, Y+2	; 0x02
    5842:	9b 81       	ldd	r25, Y+3	; 0x03
    5844:	61 15       	cp	r22, r1
    5846:	71 05       	cpc	r23, r1
    5848:	21 f0       	breq	.+8      	; 0x5852 <malloc+0x8e>
    584a:	fb 01       	movw	r30, r22
    584c:	93 83       	std	Z+3, r25	; 0x03
    584e:	82 83       	std	Z+2, r24	; 0x02
    5850:	04 c0       	rjmp	.+8      	; 0x585a <malloc+0x96>
    5852:	90 93 42 03 	sts	0x0342, r25	; 0x800342 <__flp+0x1>
    5856:	80 93 41 03 	sts	0x0341, r24	; 0x800341 <__flp>
    585a:	fe 01       	movw	r30, r28
    585c:	32 96       	adiw	r30, 0x02	; 2
    585e:	44 c0       	rjmp	.+136    	; 0x58e8 <malloc+0x124>
    5860:	fe 01       	movw	r30, r28
    5862:	e2 0f       	add	r30, r18
    5864:	f3 1f       	adc	r31, r19
    5866:	81 93       	st	Z+, r24
    5868:	91 93       	st	Z+, r25
    586a:	22 50       	subi	r18, 0x02	; 2
    586c:	31 09       	sbc	r19, r1
    586e:	39 83       	std	Y+1, r19	; 0x01
    5870:	28 83       	st	Y, r18
    5872:	3a c0       	rjmp	.+116    	; 0x58e8 <malloc+0x124>
    5874:	20 91 3f 03 	lds	r18, 0x033F	; 0x80033f <__brkval>
    5878:	30 91 40 03 	lds	r19, 0x0340	; 0x800340 <__brkval+0x1>
    587c:	23 2b       	or	r18, r19
    587e:	41 f4       	brne	.+16     	; 0x5890 <malloc+0xcc>
    5880:	20 91 02 01 	lds	r18, 0x0102	; 0x800102 <__malloc_heap_start>
    5884:	30 91 03 01 	lds	r19, 0x0103	; 0x800103 <__malloc_heap_start+0x1>
    5888:	30 93 40 03 	sts	0x0340, r19	; 0x800340 <__brkval+0x1>
    588c:	20 93 3f 03 	sts	0x033F, r18	; 0x80033f <__brkval>
    5890:	20 91 00 01 	lds	r18, 0x0100	; 0x800100 <__data_start>
    5894:	30 91 01 01 	lds	r19, 0x0101	; 0x800101 <__data_start+0x1>
    5898:	21 15       	cp	r18, r1
    589a:	31 05       	cpc	r19, r1
    589c:	41 f4       	brne	.+16     	; 0x58ae <malloc+0xea>
    589e:	2d b7       	in	r18, 0x3d	; 61
    58a0:	3e b7       	in	r19, 0x3e	; 62
    58a2:	40 91 04 01 	lds	r20, 0x0104	; 0x800104 <__malloc_margin>
    58a6:	50 91 05 01 	lds	r21, 0x0105	; 0x800105 <__malloc_margin+0x1>
    58aa:	24 1b       	sub	r18, r20
    58ac:	35 0b       	sbc	r19, r21
    58ae:	e0 91 3f 03 	lds	r30, 0x033F	; 0x80033f <__brkval>
    58b2:	f0 91 40 03 	lds	r31, 0x0340	; 0x800340 <__brkval+0x1>
    58b6:	e2 17       	cp	r30, r18
    58b8:	f3 07       	cpc	r31, r19
    58ba:	a0 f4       	brcc	.+40     	; 0x58e4 <malloc+0x120>
    58bc:	2e 1b       	sub	r18, r30
    58be:	3f 0b       	sbc	r19, r31
    58c0:	28 17       	cp	r18, r24
    58c2:	39 07       	cpc	r19, r25
    58c4:	78 f0       	brcs	.+30     	; 0x58e4 <malloc+0x120>
    58c6:	ac 01       	movw	r20, r24
    58c8:	4e 5f       	subi	r20, 0xFE	; 254
    58ca:	5f 4f       	sbci	r21, 0xFF	; 255
    58cc:	24 17       	cp	r18, r20
    58ce:	35 07       	cpc	r19, r21
    58d0:	48 f0       	brcs	.+18     	; 0x58e4 <malloc+0x120>
    58d2:	4e 0f       	add	r20, r30
    58d4:	5f 1f       	adc	r21, r31
    58d6:	50 93 40 03 	sts	0x0340, r21	; 0x800340 <__brkval+0x1>
    58da:	40 93 3f 03 	sts	0x033F, r20	; 0x80033f <__brkval>
    58de:	81 93       	st	Z+, r24
    58e0:	91 93       	st	Z+, r25
    58e2:	02 c0       	rjmp	.+4      	; 0x58e8 <malloc+0x124>
    58e4:	e0 e0       	ldi	r30, 0x00	; 0
    58e6:	f0 e0       	ldi	r31, 0x00	; 0
    58e8:	cf 01       	movw	r24, r30
    58ea:	df 91       	pop	r29
    58ec:	cf 91       	pop	r28
    58ee:	1f 91       	pop	r17
    58f0:	0f 91       	pop	r16
    58f2:	08 95       	ret

000058f4 <free>:
    58f4:	cf 93       	push	r28
    58f6:	df 93       	push	r29
    58f8:	00 97       	sbiw	r24, 0x00	; 0
    58fa:	09 f4       	brne	.+2      	; 0x58fe <free+0xa>
    58fc:	81 c0       	rjmp	.+258    	; 0x5a00 <free+0x10c>
    58fe:	fc 01       	movw	r30, r24
    5900:	32 97       	sbiw	r30, 0x02	; 2
    5902:	13 82       	std	Z+3, r1	; 0x03
    5904:	12 82       	std	Z+2, r1	; 0x02
    5906:	a0 91 41 03 	lds	r26, 0x0341	; 0x800341 <__flp>
    590a:	b0 91 42 03 	lds	r27, 0x0342	; 0x800342 <__flp+0x1>
    590e:	10 97       	sbiw	r26, 0x00	; 0
    5910:	81 f4       	brne	.+32     	; 0x5932 <free+0x3e>
    5912:	20 81       	ld	r18, Z
    5914:	31 81       	ldd	r19, Z+1	; 0x01
    5916:	82 0f       	add	r24, r18
    5918:	93 1f       	adc	r25, r19
    591a:	20 91 3f 03 	lds	r18, 0x033F	; 0x80033f <__brkval>
    591e:	30 91 40 03 	lds	r19, 0x0340	; 0x800340 <__brkval+0x1>
    5922:	28 17       	cp	r18, r24
    5924:	39 07       	cpc	r19, r25
    5926:	51 f5       	brne	.+84     	; 0x597c <free+0x88>
    5928:	f0 93 40 03 	sts	0x0340, r31	; 0x800340 <__brkval+0x1>
    592c:	e0 93 3f 03 	sts	0x033F, r30	; 0x80033f <__brkval>
    5930:	67 c0       	rjmp	.+206    	; 0x5a00 <free+0x10c>
    5932:	ed 01       	movw	r28, r26
    5934:	20 e0       	ldi	r18, 0x00	; 0
    5936:	30 e0       	ldi	r19, 0x00	; 0
    5938:	ce 17       	cp	r28, r30
    593a:	df 07       	cpc	r29, r31
    593c:	40 f4       	brcc	.+16     	; 0x594e <free+0x5a>
    593e:	4a 81       	ldd	r20, Y+2	; 0x02
    5940:	5b 81       	ldd	r21, Y+3	; 0x03
    5942:	9e 01       	movw	r18, r28
    5944:	41 15       	cp	r20, r1
    5946:	51 05       	cpc	r21, r1
    5948:	f1 f0       	breq	.+60     	; 0x5986 <free+0x92>
    594a:	ea 01       	movw	r28, r20
    594c:	f5 cf       	rjmp	.-22     	; 0x5938 <free+0x44>
    594e:	d3 83       	std	Z+3, r29	; 0x03
    5950:	c2 83       	std	Z+2, r28	; 0x02
    5952:	40 81       	ld	r20, Z
    5954:	51 81       	ldd	r21, Z+1	; 0x01
    5956:	84 0f       	add	r24, r20
    5958:	95 1f       	adc	r25, r21
    595a:	c8 17       	cp	r28, r24
    595c:	d9 07       	cpc	r29, r25
    595e:	59 f4       	brne	.+22     	; 0x5976 <free+0x82>
    5960:	88 81       	ld	r24, Y
    5962:	99 81       	ldd	r25, Y+1	; 0x01
    5964:	84 0f       	add	r24, r20
    5966:	95 1f       	adc	r25, r21
    5968:	02 96       	adiw	r24, 0x02	; 2
    596a:	91 83       	std	Z+1, r25	; 0x01
    596c:	80 83       	st	Z, r24
    596e:	8a 81       	ldd	r24, Y+2	; 0x02
    5970:	9b 81       	ldd	r25, Y+3	; 0x03
    5972:	93 83       	std	Z+3, r25	; 0x03
    5974:	82 83       	std	Z+2, r24	; 0x02
    5976:	21 15       	cp	r18, r1
    5978:	31 05       	cpc	r19, r1
    597a:	29 f4       	brne	.+10     	; 0x5986 <free+0x92>
    597c:	f0 93 42 03 	sts	0x0342, r31	; 0x800342 <__flp+0x1>
    5980:	e0 93 41 03 	sts	0x0341, r30	; 0x800341 <__flp>
    5984:	3d c0       	rjmp	.+122    	; 0x5a00 <free+0x10c>
    5986:	e9 01       	movw	r28, r18
    5988:	fb 83       	std	Y+3, r31	; 0x03
    598a:	ea 83       	std	Y+2, r30	; 0x02
    598c:	49 91       	ld	r20, Y+
    598e:	59 91       	ld	r21, Y+
    5990:	c4 0f       	add	r28, r20
    5992:	d5 1f       	adc	r29, r21
    5994:	ec 17       	cp	r30, r28
    5996:	fd 07       	cpc	r31, r29
    5998:	61 f4       	brne	.+24     	; 0x59b2 <free+0xbe>
    599a:	80 81       	ld	r24, Z
    599c:	91 81       	ldd	r25, Z+1	; 0x01
    599e:	84 0f       	add	r24, r20
    59a0:	95 1f       	adc	r25, r21
    59a2:	02 96       	adiw	r24, 0x02	; 2
    59a4:	e9 01       	movw	r28, r18
    59a6:	99 83       	std	Y+1, r25	; 0x01
    59a8:	88 83       	st	Y, r24
    59aa:	82 81       	ldd	r24, Z+2	; 0x02
    59ac:	93 81       	ldd	r25, Z+3	; 0x03
    59ae:	9b 83       	std	Y+3, r25	; 0x03
    59b0:	8a 83       	std	Y+2, r24	; 0x02
    59b2:	e0 e0       	ldi	r30, 0x00	; 0
    59b4:	f0 e0       	ldi	r31, 0x00	; 0
    59b6:	12 96       	adiw	r26, 0x02	; 2
    59b8:	8d 91       	ld	r24, X+
    59ba:	9c 91       	ld	r25, X
    59bc:	13 97       	sbiw	r26, 0x03	; 3
    59be:	00 97       	sbiw	r24, 0x00	; 0
    59c0:	19 f0       	breq	.+6      	; 0x59c8 <free+0xd4>
    59c2:	fd 01       	movw	r30, r26
    59c4:	dc 01       	movw	r26, r24
    59c6:	f7 cf       	rjmp	.-18     	; 0x59b6 <free+0xc2>
    59c8:	8d 91       	ld	r24, X+
    59ca:	9c 91       	ld	r25, X
    59cc:	11 97       	sbiw	r26, 0x01	; 1
    59ce:	9d 01       	movw	r18, r26
    59d0:	2e 5f       	subi	r18, 0xFE	; 254
    59d2:	3f 4f       	sbci	r19, 0xFF	; 255
    59d4:	82 0f       	add	r24, r18
    59d6:	93 1f       	adc	r25, r19
    59d8:	20 91 3f 03 	lds	r18, 0x033F	; 0x80033f <__brkval>
    59dc:	30 91 40 03 	lds	r19, 0x0340	; 0x800340 <__brkval+0x1>
    59e0:	28 17       	cp	r18, r24
    59e2:	39 07       	cpc	r19, r25
    59e4:	69 f4       	brne	.+26     	; 0x5a00 <free+0x10c>
    59e6:	30 97       	sbiw	r30, 0x00	; 0
    59e8:	29 f4       	brne	.+10     	; 0x59f4 <free+0x100>
    59ea:	10 92 42 03 	sts	0x0342, r1	; 0x800342 <__flp+0x1>
    59ee:	10 92 41 03 	sts	0x0341, r1	; 0x800341 <__flp>
    59f2:	02 c0       	rjmp	.+4      	; 0x59f8 <free+0x104>
    59f4:	13 82       	std	Z+3, r1	; 0x03
    59f6:	12 82       	std	Z+2, r1	; 0x02
    59f8:	b0 93 40 03 	sts	0x0340, r27	; 0x800340 <__brkval+0x1>
    59fc:	a0 93 3f 03 	sts	0x033F, r26	; 0x80033f <__brkval>
    5a00:	df 91       	pop	r29
    5a02:	cf 91       	pop	r28
    5a04:	08 95       	ret

00005a06 <strcmp_P>:
    5a06:	fb 01       	movw	r30, r22
    5a08:	dc 01       	movw	r26, r24
    5a0a:	8d 91       	ld	r24, X+
    5a0c:	05 90       	lpm	r0, Z+
    5a0e:	80 19       	sub	r24, r0
    5a10:	01 10       	cpse	r0, r1
    5a12:	d9 f3       	breq	.-10     	; 0x5a0a <strcmp_P+0x4>
    5a14:	99 0b       	sbc	r25, r25
    5a16:	08 95       	ret

00005a18 <strstr_P>:
    5a18:	fb 01       	movw	r30, r22
    5a1a:	55 91       	lpm	r21, Z+
    5a1c:	55 23       	and	r21, r21
    5a1e:	a9 f0       	breq	.+42     	; 0x5a4a <strstr_P+0x32>
    5a20:	bf 01       	movw	r22, r30
    5a22:	dc 01       	movw	r26, r24
    5a24:	4d 91       	ld	r20, X+
    5a26:	45 17       	cp	r20, r21
    5a28:	41 11       	cpse	r20, r1
    5a2a:	e1 f7       	brne	.-8      	; 0x5a24 <strstr_P+0xc>
    5a2c:	59 f4       	brne	.+22     	; 0x5a44 <strstr_P+0x2c>
    5a2e:	cd 01       	movw	r24, r26
    5a30:	05 90       	lpm	r0, Z+
    5a32:	00 20       	and	r0, r0
    5a34:	49 f0       	breq	.+18     	; 0x5a48 <strstr_P+0x30>
    5a36:	4d 91       	ld	r20, X+
    5a38:	40 15       	cp	r20, r0
    5a3a:	41 11       	cpse	r20, r1
    5a3c:	c9 f3       	breq	.-14     	; 0x5a30 <strstr_P+0x18>
    5a3e:	fb 01       	movw	r30, r22
    5a40:	41 11       	cpse	r20, r1
    5a42:	ef cf       	rjmp	.-34     	; 0x5a22 <strstr_P+0xa>
    5a44:	81 e0       	ldi	r24, 0x01	; 1
    5a46:	90 e0       	ldi	r25, 0x00	; 0
    5a48:	01 97       	sbiw	r24, 0x01	; 1
    5a4a:	08 95       	ret

00005a4c <memset>:
    5a4c:	dc 01       	movw	r26, r24
    5a4e:	01 c0       	rjmp	.+2      	; 0x5a52 <memset+0x6>
    5a50:	6d 93       	st	X+, r22
    5a52:	41 50       	subi	r20, 0x01	; 1
    5a54:	50 40       	sbci	r21, 0x00	; 0
    5a56:	e0 f7       	brcc	.-8      	; 0x5a50 <memset+0x4>
    5a58:	08 95       	ret

00005a5a <strchr>:
    5a5a:	fc 01       	movw	r30, r24
    5a5c:	81 91       	ld	r24, Z+
    5a5e:	86 17       	cp	r24, r22
    5a60:	21 f0       	breq	.+8      	; 0x5a6a <strchr+0x10>
    5a62:	88 23       	and	r24, r24
    5a64:	d9 f7       	brne	.-10     	; 0x5a5c <strchr+0x2>
    5a66:	99 27       	eor	r25, r25
    5a68:	08 95       	ret
    5a6a:	31 97       	sbiw	r30, 0x01	; 1
    5a6c:	cf 01       	movw	r24, r30
    5a6e:	08 95       	ret

00005a70 <sscanf_P>:
    5a70:	ae e0       	ldi	r26, 0x0E	; 14
    5a72:	b0 e0       	ldi	r27, 0x00	; 0
    5a74:	ee e3       	ldi	r30, 0x3E	; 62
    5a76:	fd e2       	ldi	r31, 0x2D	; 45
    5a78:	0c 94 7c 30 	jmp	0x60f8	; 0x60f8 <__prologue_saves__+0x20>
    5a7c:	8d e0       	ldi	r24, 0x0D	; 13
    5a7e:	8c 83       	std	Y+4, r24	; 0x04
    5a80:	8b 89       	ldd	r24, Y+19	; 0x13
    5a82:	9c 89       	ldd	r25, Y+20	; 0x14
    5a84:	9a 83       	std	Y+2, r25	; 0x02
    5a86:	89 83       	std	Y+1, r24	; 0x01
    5a88:	ae 01       	movw	r20, r28
    5a8a:	49 5e       	subi	r20, 0xE9	; 233
    5a8c:	5f 4f       	sbci	r21, 0xFF	; 255
    5a8e:	6d 89       	ldd	r22, Y+21	; 0x15
    5a90:	7e 89       	ldd	r23, Y+22	; 0x16
    5a92:	ce 01       	movw	r24, r28
    5a94:	01 96       	adiw	r24, 0x01	; 1
    5a96:	0e 94 ed 2e 	call	0x5dda	; 0x5dda <vfscanf>
    5a9a:	2e 96       	adiw	r28, 0x0e	; 14
    5a9c:	e2 e0       	ldi	r30, 0x02	; 2
    5a9e:	0c 94 98 30 	jmp	0x6130	; 0x6130 <__epilogue_restores__+0x20>

00005aa2 <putval>:
    5aa2:	20 fd       	sbrc	r18, 0
    5aa4:	09 c0       	rjmp	.+18     	; 0x5ab8 <putval+0x16>
    5aa6:	fc 01       	movw	r30, r24
    5aa8:	23 fd       	sbrc	r18, 3
    5aaa:	05 c0       	rjmp	.+10     	; 0x5ab6 <putval+0x14>
    5aac:	22 ff       	sbrs	r18, 2
    5aae:	02 c0       	rjmp	.+4      	; 0x5ab4 <putval+0x12>
    5ab0:	73 83       	std	Z+3, r23	; 0x03
    5ab2:	62 83       	std	Z+2, r22	; 0x02
    5ab4:	51 83       	std	Z+1, r21	; 0x01
    5ab6:	40 83       	st	Z, r20
    5ab8:	08 95       	ret

00005aba <mulacc>:
    5aba:	44 fd       	sbrc	r20, 4
    5abc:	17 c0       	rjmp	.+46     	; 0x5aec <mulacc+0x32>
    5abe:	46 fd       	sbrc	r20, 6
    5ac0:	17 c0       	rjmp	.+46     	; 0x5af0 <mulacc+0x36>
    5ac2:	ab 01       	movw	r20, r22
    5ac4:	bc 01       	movw	r22, r24
    5ac6:	da 01       	movw	r26, r20
    5ac8:	fb 01       	movw	r30, r22
    5aca:	aa 0f       	add	r26, r26
    5acc:	bb 1f       	adc	r27, r27
    5ace:	ee 1f       	adc	r30, r30
    5ad0:	ff 1f       	adc	r31, r31
    5ad2:	10 94       	com	r1
    5ad4:	d1 f7       	brne	.-12     	; 0x5aca <mulacc+0x10>
    5ad6:	4a 0f       	add	r20, r26
    5ad8:	5b 1f       	adc	r21, r27
    5ada:	6e 1f       	adc	r22, r30
    5adc:	7f 1f       	adc	r23, r31
    5ade:	cb 01       	movw	r24, r22
    5ae0:	ba 01       	movw	r22, r20
    5ae2:	66 0f       	add	r22, r22
    5ae4:	77 1f       	adc	r23, r23
    5ae6:	88 1f       	adc	r24, r24
    5ae8:	99 1f       	adc	r25, r25
    5aea:	09 c0       	rjmp	.+18     	; 0x5afe <mulacc+0x44>
    5aec:	33 e0       	ldi	r19, 0x03	; 3
    5aee:	01 c0       	rjmp	.+2      	; 0x5af2 <mulacc+0x38>
    5af0:	34 e0       	ldi	r19, 0x04	; 4
    5af2:	66 0f       	add	r22, r22
    5af4:	77 1f       	adc	r23, r23
    5af6:	88 1f       	adc	r24, r24
    5af8:	99 1f       	adc	r25, r25
    5afa:	31 50       	subi	r19, 0x01	; 1
    5afc:	d1 f7       	brne	.-12     	; 0x5af2 <mulacc+0x38>
    5afe:	62 0f       	add	r22, r18
    5b00:	71 1d       	adc	r23, r1
    5b02:	81 1d       	adc	r24, r1
    5b04:	91 1d       	adc	r25, r1
    5b06:	08 95       	ret

00005b08 <skip_spaces>:
    5b08:	0f 93       	push	r16
    5b0a:	1f 93       	push	r17
    5b0c:	cf 93       	push	r28
    5b0e:	df 93       	push	r29
    5b10:	8c 01       	movw	r16, r24
    5b12:	c8 01       	movw	r24, r16
    5b14:	0e 94 12 30 	call	0x6024	; 0x6024 <fgetc>
    5b18:	ec 01       	movw	r28, r24
    5b1a:	97 fd       	sbrc	r25, 7
    5b1c:	08 c0       	rjmp	.+16     	; 0x5b2e <skip_spaces+0x26>
    5b1e:	0e 94 fe 2f 	call	0x5ffc	; 0x5ffc <isspace>
    5b22:	89 2b       	or	r24, r25
    5b24:	b1 f7       	brne	.-20     	; 0x5b12 <skip_spaces+0xa>
    5b26:	b8 01       	movw	r22, r16
    5b28:	ce 01       	movw	r24, r28
    5b2a:	0e 94 50 30 	call	0x60a0	; 0x60a0 <ungetc>
    5b2e:	ce 01       	movw	r24, r28
    5b30:	df 91       	pop	r29
    5b32:	cf 91       	pop	r28
    5b34:	1f 91       	pop	r17
    5b36:	0f 91       	pop	r16
    5b38:	08 95       	ret

00005b3a <conv_int>:
    5b3a:	8f 92       	push	r8
    5b3c:	9f 92       	push	r9
    5b3e:	af 92       	push	r10
    5b40:	bf 92       	push	r11
    5b42:	ef 92       	push	r14
    5b44:	ff 92       	push	r15
    5b46:	0f 93       	push	r16
    5b48:	1f 93       	push	r17
    5b4a:	cf 93       	push	r28
    5b4c:	df 93       	push	r29
    5b4e:	8c 01       	movw	r16, r24
    5b50:	d6 2f       	mov	r29, r22
    5b52:	7a 01       	movw	r14, r20
    5b54:	b2 2e       	mov	r11, r18
    5b56:	0e 94 12 30 	call	0x6024	; 0x6024 <fgetc>
    5b5a:	9c 01       	movw	r18, r24
    5b5c:	33 27       	eor	r19, r19
    5b5e:	2b 32       	cpi	r18, 0x2B	; 43
    5b60:	31 05       	cpc	r19, r1
    5b62:	31 f0       	breq	.+12     	; 0x5b70 <conv_int+0x36>
    5b64:	2d 32       	cpi	r18, 0x2D	; 45
    5b66:	31 05       	cpc	r19, r1
    5b68:	61 f4       	brne	.+24     	; 0x5b82 <conv_int+0x48>
    5b6a:	8b 2d       	mov	r24, r11
    5b6c:	80 68       	ori	r24, 0x80	; 128
    5b6e:	b8 2e       	mov	r11, r24
    5b70:	d1 50       	subi	r29, 0x01	; 1
    5b72:	11 f4       	brne	.+4      	; 0x5b78 <conv_int+0x3e>
    5b74:	80 e0       	ldi	r24, 0x00	; 0
    5b76:	68 c0       	rjmp	.+208    	; 0x5c48 <conv_int+0x10e>
    5b78:	c8 01       	movw	r24, r16
    5b7a:	0e 94 12 30 	call	0x6024	; 0x6024 <fgetc>
    5b7e:	97 fd       	sbrc	r25, 7
    5b80:	f9 cf       	rjmp	.-14     	; 0x5b74 <conv_int+0x3a>
    5b82:	cb 2d       	mov	r28, r11
    5b84:	cd 7f       	andi	r28, 0xFD	; 253
    5b86:	2b 2d       	mov	r18, r11
    5b88:	20 73       	andi	r18, 0x30	; 48
    5b8a:	09 f5       	brne	.+66     	; 0x5bce <conv_int+0x94>
    5b8c:	80 33       	cpi	r24, 0x30	; 48
    5b8e:	f9 f4       	brne	.+62     	; 0x5bce <conv_int+0x94>
    5b90:	aa 24       	eor	r10, r10
    5b92:	aa 94       	dec	r10
    5b94:	ad 0e       	add	r10, r29
    5b96:	09 f4       	brne	.+2      	; 0x5b9a <conv_int+0x60>
    5b98:	43 c0       	rjmp	.+134    	; 0x5c20 <conv_int+0xe6>
    5b9a:	c8 01       	movw	r24, r16
    5b9c:	0e 94 12 30 	call	0x6024	; 0x6024 <fgetc>
    5ba0:	97 fd       	sbrc	r25, 7
    5ba2:	3e c0       	rjmp	.+124    	; 0x5c20 <conv_int+0xe6>
    5ba4:	9c 01       	movw	r18, r24
    5ba6:	2f 7d       	andi	r18, 0xDF	; 223
    5ba8:	33 27       	eor	r19, r19
    5baa:	28 35       	cpi	r18, 0x58	; 88
    5bac:	31 05       	cpc	r19, r1
    5bae:	49 f4       	brne	.+18     	; 0x5bc2 <conv_int+0x88>
    5bb0:	c2 64       	ori	r28, 0x42	; 66
    5bb2:	d2 50       	subi	r29, 0x02	; 2
    5bb4:	a9 f1       	breq	.+106    	; 0x5c20 <conv_int+0xe6>
    5bb6:	c8 01       	movw	r24, r16
    5bb8:	0e 94 12 30 	call	0x6024	; 0x6024 <fgetc>
    5bbc:	97 ff       	sbrs	r25, 7
    5bbe:	07 c0       	rjmp	.+14     	; 0x5bce <conv_int+0x94>
    5bc0:	2f c0       	rjmp	.+94     	; 0x5c20 <conv_int+0xe6>
    5bc2:	b6 fe       	sbrs	r11, 6
    5bc4:	02 c0       	rjmp	.+4      	; 0x5bca <conv_int+0x90>
    5bc6:	c2 60       	ori	r28, 0x02	; 2
    5bc8:	01 c0       	rjmp	.+2      	; 0x5bcc <conv_int+0x92>
    5bca:	c2 61       	ori	r28, 0x12	; 18
    5bcc:	da 2d       	mov	r29, r10
    5bce:	81 2c       	mov	r8, r1
    5bd0:	91 2c       	mov	r9, r1
    5bd2:	54 01       	movw	r10, r8
    5bd4:	20 ed       	ldi	r18, 0xD0	; 208
    5bd6:	28 0f       	add	r18, r24
    5bd8:	28 30       	cpi	r18, 0x08	; 8
    5bda:	80 f0       	brcs	.+32     	; 0x5bfc <conv_int+0xc2>
    5bdc:	c4 ff       	sbrs	r28, 4
    5bde:	04 c0       	rjmp	.+8      	; 0x5be8 <conv_int+0xae>
    5be0:	b8 01       	movw	r22, r16
    5be2:	0e 94 50 30 	call	0x60a0	; 0x60a0 <ungetc>
    5be6:	19 c0       	rjmp	.+50     	; 0x5c1a <conv_int+0xe0>
    5be8:	2a 30       	cpi	r18, 0x0A	; 10
    5bea:	40 f0       	brcs	.+16     	; 0x5bfc <conv_int+0xc2>
    5bec:	c6 ff       	sbrs	r28, 6
    5bee:	f8 cf       	rjmp	.-16     	; 0x5be0 <conv_int+0xa6>
    5bf0:	2f 7d       	andi	r18, 0xDF	; 223
    5bf2:	3f ee       	ldi	r19, 0xEF	; 239
    5bf4:	32 0f       	add	r19, r18
    5bf6:	36 30       	cpi	r19, 0x06	; 6
    5bf8:	98 f7       	brcc	.-26     	; 0x5be0 <conv_int+0xa6>
    5bfa:	27 50       	subi	r18, 0x07	; 7
    5bfc:	4c 2f       	mov	r20, r28
    5bfe:	c5 01       	movw	r24, r10
    5c00:	b4 01       	movw	r22, r8
    5c02:	0e 94 5d 2d 	call	0x5aba	; 0x5aba <mulacc>
    5c06:	4b 01       	movw	r8, r22
    5c08:	5c 01       	movw	r10, r24
    5c0a:	c2 60       	ori	r28, 0x02	; 2
    5c0c:	d1 50       	subi	r29, 0x01	; 1
    5c0e:	59 f0       	breq	.+22     	; 0x5c26 <conv_int+0xec>
    5c10:	c8 01       	movw	r24, r16
    5c12:	0e 94 12 30 	call	0x6024	; 0x6024 <fgetc>
    5c16:	97 ff       	sbrs	r25, 7
    5c18:	dd cf       	rjmp	.-70     	; 0x5bd4 <conv_int+0x9a>
    5c1a:	c1 fd       	sbrc	r28, 1
    5c1c:	04 c0       	rjmp	.+8      	; 0x5c26 <conv_int+0xec>
    5c1e:	aa cf       	rjmp	.-172    	; 0x5b74 <conv_int+0x3a>
    5c20:	81 2c       	mov	r8, r1
    5c22:	91 2c       	mov	r9, r1
    5c24:	54 01       	movw	r10, r8
    5c26:	c7 ff       	sbrs	r28, 7
    5c28:	08 c0       	rjmp	.+16     	; 0x5c3a <conv_int+0x100>
    5c2a:	b0 94       	com	r11
    5c2c:	a0 94       	com	r10
    5c2e:	90 94       	com	r9
    5c30:	80 94       	com	r8
    5c32:	81 1c       	adc	r8, r1
    5c34:	91 1c       	adc	r9, r1
    5c36:	a1 1c       	adc	r10, r1
    5c38:	b1 1c       	adc	r11, r1
    5c3a:	2c 2f       	mov	r18, r28
    5c3c:	b5 01       	movw	r22, r10
    5c3e:	a4 01       	movw	r20, r8
    5c40:	c7 01       	movw	r24, r14
    5c42:	0e 94 51 2d 	call	0x5aa2	; 0x5aa2 <putval>
    5c46:	81 e0       	ldi	r24, 0x01	; 1
    5c48:	df 91       	pop	r29
    5c4a:	cf 91       	pop	r28
    5c4c:	1f 91       	pop	r17
    5c4e:	0f 91       	pop	r16
    5c50:	ff 90       	pop	r15
    5c52:	ef 90       	pop	r14
    5c54:	bf 90       	pop	r11
    5c56:	af 90       	pop	r10
    5c58:	9f 90       	pop	r9
    5c5a:	8f 90       	pop	r8
    5c5c:	08 95       	ret

00005c5e <conv_brk>:
    5c5e:	a0 e2       	ldi	r26, 0x20	; 32
    5c60:	b0 e0       	ldi	r27, 0x00	; 0
    5c62:	e5 e3       	ldi	r30, 0x35	; 53
    5c64:	fe e2       	ldi	r31, 0x2E	; 46
    5c66:	0c 94 6f 30 	jmp	0x60de	; 0x60de <__prologue_saves__+0x6>
    5c6a:	5c 01       	movw	r10, r24
    5c6c:	96 2e       	mov	r9, r22
    5c6e:	7a 01       	movw	r14, r20
    5c70:	f9 01       	movw	r30, r18
    5c72:	8e 01       	movw	r16, r28
    5c74:	0f 5f       	subi	r16, 0xFF	; 255
    5c76:	1f 4f       	sbci	r17, 0xFF	; 255
    5c78:	68 01       	movw	r12, r16
    5c7a:	80 e2       	ldi	r24, 0x20	; 32
    5c7c:	d8 01       	movw	r26, r16
    5c7e:	1d 92       	st	X+, r1
    5c80:	8a 95       	dec	r24
    5c82:	e9 f7       	brne	.-6      	; 0x5c7e <conv_brk+0x20>
    5c84:	d5 01       	movw	r26, r10
    5c86:	13 96       	adiw	r26, 0x03	; 3
    5c88:	8c 90       	ld	r8, X
    5c8a:	80 e0       	ldi	r24, 0x00	; 0
    5c8c:	90 e0       	ldi	r25, 0x00	; 0
    5c8e:	61 2c       	mov	r6, r1
    5c90:	71 2c       	mov	r7, r1
    5c92:	30 e0       	ldi	r19, 0x00	; 0
    5c94:	61 e0       	ldi	r22, 0x01	; 1
    5c96:	70 e0       	ldi	r23, 0x00	; 0
    5c98:	83 fc       	sbrc	r8, 3
    5c9a:	25 91       	lpm	r18, Z+
    5c9c:	83 fe       	sbrs	r8, 3
    5c9e:	21 91       	ld	r18, Z+
    5ca0:	8f 01       	movw	r16, r30
    5ca2:	52 2e       	mov	r5, r18
    5ca4:	21 11       	cpse	r18, r1
    5ca6:	03 c0       	rjmp	.+6      	; 0x5cae <conv_brk+0x50>
    5ca8:	80 e0       	ldi	r24, 0x00	; 0
    5caa:	90 e0       	ldi	r25, 0x00	; 0
    5cac:	92 c0       	rjmp	.+292    	; 0x5dd2 <conv_brk+0x174>
    5cae:	2e 35       	cpi	r18, 0x5E	; 94
    5cb0:	11 f4       	brne	.+4      	; 0x5cb6 <conv_brk+0x58>
    5cb2:	00 97       	sbiw	r24, 0x00	; 0
    5cb4:	51 f1       	breq	.+84     	; 0x5d0a <conv_brk+0xac>
    5cb6:	43 2f       	mov	r20, r19
    5cb8:	50 e0       	ldi	r21, 0x00	; 0
    5cba:	48 17       	cp	r20, r24
    5cbc:	59 07       	cpc	r21, r25
    5cbe:	3c f4       	brge	.+14     	; 0x5cce <conv_brk+0x70>
    5cc0:	2d 35       	cpi	r18, 0x5D	; 93
    5cc2:	59 f1       	breq	.+86     	; 0x5d1a <conv_brk+0xbc>
    5cc4:	2d 32       	cpi	r18, 0x2D	; 45
    5cc6:	19 f4       	brne	.+6      	; 0x5cce <conv_brk+0x70>
    5cc8:	77 20       	and	r7, r7
    5cca:	09 f1       	breq	.+66     	; 0x5d0e <conv_brk+0xb0>
    5ccc:	03 c0       	rjmp	.+6      	; 0x5cd4 <conv_brk+0x76>
    5cce:	77 20       	and	r7, r7
    5cd0:	09 f4       	brne	.+2      	; 0x5cd4 <conv_brk+0x76>
    5cd2:	6a c0       	rjmp	.+212    	; 0x5da8 <conv_brk+0x14a>
    5cd4:	45 2d       	mov	r20, r5
    5cd6:	46 95       	lsr	r20
    5cd8:	46 95       	lsr	r20
    5cda:	46 95       	lsr	r20
    5cdc:	d6 01       	movw	r26, r12
    5cde:	a4 0f       	add	r26, r20
    5ce0:	b1 1d       	adc	r27, r1
    5ce2:	45 2d       	mov	r20, r5
    5ce4:	47 70       	andi	r20, 0x07	; 7
    5ce6:	8b 01       	movw	r16, r22
    5ce8:	02 c0       	rjmp	.+4      	; 0x5cee <conv_brk+0x90>
    5cea:	00 0f       	add	r16, r16
    5cec:	11 1f       	adc	r17, r17
    5cee:	4a 95       	dec	r20
    5cf0:	e2 f7       	brpl	.-8      	; 0x5cea <conv_brk+0x8c>
    5cf2:	a8 01       	movw	r20, r16
    5cf4:	5c 91       	ld	r21, X
    5cf6:	45 2b       	or	r20, r21
    5cf8:	4c 93       	st	X, r20
    5cfa:	65 14       	cp	r6, r5
    5cfc:	59 f0       	breq	.+22     	; 0x5d14 <conv_brk+0xb6>
    5cfe:	56 14       	cp	r5, r6
    5d00:	10 f4       	brcc	.+4      	; 0x5d06 <conv_brk+0xa8>
    5d02:	53 94       	inc	r5
    5d04:	e7 cf       	rjmp	.-50     	; 0x5cd4 <conv_brk+0x76>
    5d06:	5a 94       	dec	r5
    5d08:	e5 cf       	rjmp	.-54     	; 0x5cd4 <conv_brk+0x76>
    5d0a:	31 e0       	ldi	r19, 0x01	; 1
    5d0c:	04 c0       	rjmp	.+8      	; 0x5d16 <conv_brk+0xb8>
    5d0e:	77 24       	eor	r7, r7
    5d10:	73 94       	inc	r7
    5d12:	01 c0       	rjmp	.+2      	; 0x5d16 <conv_brk+0xb8>
    5d14:	71 2c       	mov	r7, r1
    5d16:	01 96       	adiw	r24, 0x01	; 1
    5d18:	bf cf       	rjmp	.-130    	; 0x5c98 <conv_brk+0x3a>
    5d1a:	77 20       	and	r7, r7
    5d1c:	19 f0       	breq	.+6      	; 0x5d24 <conv_brk+0xc6>
    5d1e:	8e 81       	ldd	r24, Y+6	; 0x06
    5d20:	80 62       	ori	r24, 0x20	; 32
    5d22:	8e 83       	std	Y+6, r24	; 0x06
    5d24:	31 11       	cpse	r19, r1
    5d26:	03 c0       	rjmp	.+6      	; 0x5d2e <conv_brk+0xd0>
    5d28:	88 24       	eor	r8, r8
    5d2a:	83 94       	inc	r8
    5d2c:	17 c0       	rjmp	.+46     	; 0x5d5c <conv_brk+0xfe>
    5d2e:	f6 01       	movw	r30, r12
    5d30:	9e 01       	movw	r18, r28
    5d32:	2f 5d       	subi	r18, 0xDF	; 223
    5d34:	3f 4f       	sbci	r19, 0xFF	; 255
    5d36:	80 81       	ld	r24, Z
    5d38:	80 95       	com	r24
    5d3a:	81 93       	st	Z+, r24
    5d3c:	2e 17       	cp	r18, r30
    5d3e:	3f 07       	cpc	r19, r31
    5d40:	d1 f7       	brne	.-12     	; 0x5d36 <conv_brk+0xd8>
    5d42:	f2 cf       	rjmp	.-28     	; 0x5d28 <conv_brk+0xca>
    5d44:	e1 14       	cp	r14, r1
    5d46:	f1 04       	cpc	r15, r1
    5d48:	29 f0       	breq	.+10     	; 0x5d54 <conv_brk+0xf6>
    5d4a:	d7 01       	movw	r26, r14
    5d4c:	8c 93       	st	X, r24
    5d4e:	f7 01       	movw	r30, r14
    5d50:	31 96       	adiw	r30, 0x01	; 1
    5d52:	7f 01       	movw	r14, r30
    5d54:	9a 94       	dec	r9
    5d56:	81 2c       	mov	r8, r1
    5d58:	99 20       	and	r9, r9
    5d5a:	f9 f0       	breq	.+62     	; 0x5d9a <conv_brk+0x13c>
    5d5c:	c5 01       	movw	r24, r10
    5d5e:	0e 94 12 30 	call	0x6024	; 0x6024 <fgetc>
    5d62:	97 fd       	sbrc	r25, 7
    5d64:	18 c0       	rjmp	.+48     	; 0x5d96 <conv_brk+0x138>
    5d66:	fc 01       	movw	r30, r24
    5d68:	ff 27       	eor	r31, r31
    5d6a:	23 e0       	ldi	r18, 0x03	; 3
    5d6c:	f5 95       	asr	r31
    5d6e:	e7 95       	ror	r30
    5d70:	2a 95       	dec	r18
    5d72:	e1 f7       	brne	.-8      	; 0x5d6c <conv_brk+0x10e>
    5d74:	ec 0d       	add	r30, r12
    5d76:	fd 1d       	adc	r31, r13
    5d78:	20 81       	ld	r18, Z
    5d7a:	30 e0       	ldi	r19, 0x00	; 0
    5d7c:	ac 01       	movw	r20, r24
    5d7e:	47 70       	andi	r20, 0x07	; 7
    5d80:	55 27       	eor	r21, r21
    5d82:	02 c0       	rjmp	.+4      	; 0x5d88 <conv_brk+0x12a>
    5d84:	35 95       	asr	r19
    5d86:	27 95       	ror	r18
    5d88:	4a 95       	dec	r20
    5d8a:	e2 f7       	brpl	.-8      	; 0x5d84 <conv_brk+0x126>
    5d8c:	20 fd       	sbrc	r18, 0
    5d8e:	da cf       	rjmp	.-76     	; 0x5d44 <conv_brk+0xe6>
    5d90:	b5 01       	movw	r22, r10
    5d92:	0e 94 50 30 	call	0x60a0	; 0x60a0 <ungetc>
    5d96:	81 10       	cpse	r8, r1
    5d98:	87 cf       	rjmp	.-242    	; 0x5ca8 <conv_brk+0x4a>
    5d9a:	e1 14       	cp	r14, r1
    5d9c:	f1 04       	cpc	r15, r1
    5d9e:	11 f0       	breq	.+4      	; 0x5da4 <conv_brk+0x146>
    5da0:	d7 01       	movw	r26, r14
    5da2:	1c 92       	st	X, r1
    5da4:	c8 01       	movw	r24, r16
    5da6:	15 c0       	rjmp	.+42     	; 0x5dd2 <conv_brk+0x174>
    5da8:	42 2f       	mov	r20, r18
    5daa:	46 95       	lsr	r20
    5dac:	46 95       	lsr	r20
    5dae:	46 95       	lsr	r20
    5db0:	d6 01       	movw	r26, r12
    5db2:	a4 0f       	add	r26, r20
    5db4:	b1 1d       	adc	r27, r1
    5db6:	42 2f       	mov	r20, r18
    5db8:	47 70       	andi	r20, 0x07	; 7
    5dba:	8b 01       	movw	r16, r22
    5dbc:	02 c0       	rjmp	.+4      	; 0x5dc2 <conv_brk+0x164>
    5dbe:	00 0f       	add	r16, r16
    5dc0:	11 1f       	adc	r17, r17
    5dc2:	4a 95       	dec	r20
    5dc4:	e2 f7       	brpl	.-8      	; 0x5dbe <conv_brk+0x160>
    5dc6:	a8 01       	movw	r20, r16
    5dc8:	5c 91       	ld	r21, X
    5dca:	45 2b       	or	r20, r21
    5dcc:	4c 93       	st	X, r20
    5dce:	62 2e       	mov	r6, r18
    5dd0:	a2 cf       	rjmp	.-188    	; 0x5d16 <conv_brk+0xb8>
    5dd2:	a0 96       	adiw	r28, 0x20	; 32
    5dd4:	ef e0       	ldi	r30, 0x0F	; 15
    5dd6:	0c 94 8b 30 	jmp	0x6116	; 0x6116 <__epilogue_restores__+0x6>

00005dda <vfscanf>:
    5dda:	a0 e0       	ldi	r26, 0x00	; 0
    5ddc:	b0 e0       	ldi	r27, 0x00	; 0
    5dde:	e3 ef       	ldi	r30, 0xF3	; 243
    5de0:	fe e2       	ldi	r31, 0x2E	; 46
    5de2:	0c 94 6f 30 	jmp	0x60de	; 0x60de <__prologue_saves__+0x6>
    5de6:	6c 01       	movw	r12, r24
    5de8:	eb 01       	movw	r28, r22
    5dea:	5a 01       	movw	r10, r20
    5dec:	fc 01       	movw	r30, r24
    5dee:	17 82       	std	Z+7, r1	; 0x07
    5df0:	16 82       	std	Z+6, r1	; 0x06
    5df2:	51 2c       	mov	r5, r1
    5df4:	f6 01       	movw	r30, r12
    5df6:	e3 80       	ldd	r14, Z+3	; 0x03
    5df8:	fe 01       	movw	r30, r28
    5dfa:	e3 fc       	sbrc	r14, 3
    5dfc:	85 91       	lpm	r24, Z+
    5dfe:	e3 fe       	sbrs	r14, 3
    5e00:	81 91       	ld	r24, Z+
    5e02:	18 2f       	mov	r17, r24
    5e04:	ef 01       	movw	r28, r30
    5e06:	88 23       	and	r24, r24
    5e08:	09 f4       	brne	.+2      	; 0x5e0c <vfscanf+0x32>
    5e0a:	ee c0       	rjmp	.+476    	; 0x5fe8 <vfscanf+0x20e>
    5e0c:	90 e0       	ldi	r25, 0x00	; 0
    5e0e:	0e 94 fe 2f 	call	0x5ffc	; 0x5ffc <isspace>
    5e12:	89 2b       	or	r24, r25
    5e14:	21 f0       	breq	.+8      	; 0x5e1e <vfscanf+0x44>
    5e16:	c6 01       	movw	r24, r12
    5e18:	0e 94 84 2d 	call	0x5b08	; 0x5b08 <skip_spaces>
    5e1c:	eb cf       	rjmp	.-42     	; 0x5df4 <vfscanf+0x1a>
    5e1e:	15 32       	cpi	r17, 0x25	; 37
    5e20:	41 f4       	brne	.+16     	; 0x5e32 <vfscanf+0x58>
    5e22:	fe 01       	movw	r30, r28
    5e24:	e3 fc       	sbrc	r14, 3
    5e26:	15 91       	lpm	r17, Z+
    5e28:	e3 fe       	sbrs	r14, 3
    5e2a:	11 91       	ld	r17, Z+
    5e2c:	ef 01       	movw	r28, r30
    5e2e:	15 32       	cpi	r17, 0x25	; 37
    5e30:	81 f4       	brne	.+32     	; 0x5e52 <vfscanf+0x78>
    5e32:	c6 01       	movw	r24, r12
    5e34:	0e 94 12 30 	call	0x6024	; 0x6024 <fgetc>
    5e38:	97 fd       	sbrc	r25, 7
    5e3a:	d4 c0       	rjmp	.+424    	; 0x5fe4 <vfscanf+0x20a>
    5e3c:	41 2f       	mov	r20, r17
    5e3e:	50 e0       	ldi	r21, 0x00	; 0
    5e40:	9c 01       	movw	r18, r24
    5e42:	33 27       	eor	r19, r19
    5e44:	24 17       	cp	r18, r20
    5e46:	35 07       	cpc	r19, r21
    5e48:	a9 f2       	breq	.-86     	; 0x5df4 <vfscanf+0x1a>
    5e4a:	b6 01       	movw	r22, r12
    5e4c:	0e 94 50 30 	call	0x60a0	; 0x60a0 <ungetc>
    5e50:	cb c0       	rjmp	.+406    	; 0x5fe8 <vfscanf+0x20e>
    5e52:	1a 32       	cpi	r17, 0x2A	; 42
    5e54:	39 f4       	brne	.+14     	; 0x5e64 <vfscanf+0x8a>
    5e56:	e3 fc       	sbrc	r14, 3
    5e58:	15 91       	lpm	r17, Z+
    5e5a:	e3 fe       	sbrs	r14, 3
    5e5c:	11 91       	ld	r17, Z+
    5e5e:	ef 01       	movw	r28, r30
    5e60:	01 e0       	ldi	r16, 0x01	; 1
    5e62:	01 c0       	rjmp	.+2      	; 0x5e66 <vfscanf+0x8c>
    5e64:	00 e0       	ldi	r16, 0x00	; 0
    5e66:	f1 2c       	mov	r15, r1
    5e68:	20 ed       	ldi	r18, 0xD0	; 208
    5e6a:	21 0f       	add	r18, r17
    5e6c:	2a 30       	cpi	r18, 0x0A	; 10
    5e6e:	80 f4       	brcc	.+32     	; 0x5e90 <vfscanf+0xb6>
    5e70:	02 60       	ori	r16, 0x02	; 2
    5e72:	6f 2d       	mov	r22, r15
    5e74:	70 e0       	ldi	r23, 0x00	; 0
    5e76:	80 e0       	ldi	r24, 0x00	; 0
    5e78:	90 e0       	ldi	r25, 0x00	; 0
    5e7a:	40 e2       	ldi	r20, 0x20	; 32
    5e7c:	0e 94 5d 2d 	call	0x5aba	; 0x5aba <mulacc>
    5e80:	f6 2e       	mov	r15, r22
    5e82:	fe 01       	movw	r30, r28
    5e84:	e3 fc       	sbrc	r14, 3
    5e86:	15 91       	lpm	r17, Z+
    5e88:	e3 fe       	sbrs	r14, 3
    5e8a:	11 91       	ld	r17, Z+
    5e8c:	ef 01       	movw	r28, r30
    5e8e:	ec cf       	rjmp	.-40     	; 0x5e68 <vfscanf+0x8e>
    5e90:	01 ff       	sbrs	r16, 1
    5e92:	03 c0       	rjmp	.+6      	; 0x5e9a <vfscanf+0xc0>
    5e94:	f1 10       	cpse	r15, r1
    5e96:	03 c0       	rjmp	.+6      	; 0x5e9e <vfscanf+0xc4>
    5e98:	a7 c0       	rjmp	.+334    	; 0x5fe8 <vfscanf+0x20e>
    5e9a:	ff 24       	eor	r15, r15
    5e9c:	fa 94       	dec	r15
    5e9e:	18 36       	cpi	r17, 0x68	; 104
    5ea0:	19 f0       	breq	.+6      	; 0x5ea8 <vfscanf+0xce>
    5ea2:	1c 36       	cpi	r17, 0x6C	; 108
    5ea4:	51 f0       	breq	.+20     	; 0x5eba <vfscanf+0xe0>
    5ea6:	10 c0       	rjmp	.+32     	; 0x5ec8 <vfscanf+0xee>
    5ea8:	fe 01       	movw	r30, r28
    5eaa:	e3 fc       	sbrc	r14, 3
    5eac:	15 91       	lpm	r17, Z+
    5eae:	e3 fe       	sbrs	r14, 3
    5eb0:	11 91       	ld	r17, Z+
    5eb2:	ef 01       	movw	r28, r30
    5eb4:	18 36       	cpi	r17, 0x68	; 104
    5eb6:	41 f4       	brne	.+16     	; 0x5ec8 <vfscanf+0xee>
    5eb8:	08 60       	ori	r16, 0x08	; 8
    5eba:	04 60       	ori	r16, 0x04	; 4
    5ebc:	fe 01       	movw	r30, r28
    5ebe:	e3 fc       	sbrc	r14, 3
    5ec0:	15 91       	lpm	r17, Z+
    5ec2:	e3 fe       	sbrs	r14, 3
    5ec4:	11 91       	ld	r17, Z+
    5ec6:	ef 01       	movw	r28, r30
    5ec8:	11 23       	and	r17, r17
    5eca:	09 f4       	brne	.+2      	; 0x5ece <vfscanf+0xf4>
    5ecc:	8d c0       	rjmp	.+282    	; 0x5fe8 <vfscanf+0x20e>
    5ece:	61 2f       	mov	r22, r17
    5ed0:	70 e0       	ldi	r23, 0x00	; 0
    5ed2:	8c e8       	ldi	r24, 0x8C	; 140
    5ed4:	90 e0       	ldi	r25, 0x00	; 0
    5ed6:	0e 94 07 30 	call	0x600e	; 0x600e <strchr_P>
    5eda:	89 2b       	or	r24, r25
    5edc:	09 f4       	brne	.+2      	; 0x5ee0 <vfscanf+0x106>
    5ede:	84 c0       	rjmp	.+264    	; 0x5fe8 <vfscanf+0x20e>
    5ee0:	00 fd       	sbrc	r16, 0
    5ee2:	07 c0       	rjmp	.+14     	; 0x5ef2 <vfscanf+0x118>
    5ee4:	f5 01       	movw	r30, r10
    5ee6:	80 80       	ld	r8, Z
    5ee8:	91 80       	ldd	r9, Z+1	; 0x01
    5eea:	c5 01       	movw	r24, r10
    5eec:	02 96       	adiw	r24, 0x02	; 2
    5eee:	5c 01       	movw	r10, r24
    5ef0:	02 c0       	rjmp	.+4      	; 0x5ef6 <vfscanf+0x11c>
    5ef2:	81 2c       	mov	r8, r1
    5ef4:	91 2c       	mov	r9, r1
    5ef6:	1e 36       	cpi	r17, 0x6E	; 110
    5ef8:	51 f4       	brne	.+20     	; 0x5f0e <vfscanf+0x134>
    5efa:	f6 01       	movw	r30, r12
    5efc:	46 81       	ldd	r20, Z+6	; 0x06
    5efe:	57 81       	ldd	r21, Z+7	; 0x07
    5f00:	60 e0       	ldi	r22, 0x00	; 0
    5f02:	70 e0       	ldi	r23, 0x00	; 0
    5f04:	20 2f       	mov	r18, r16
    5f06:	c4 01       	movw	r24, r8
    5f08:	0e 94 51 2d 	call	0x5aa2	; 0x5aa2 <putval>
    5f0c:	73 cf       	rjmp	.-282    	; 0x5df4 <vfscanf+0x1a>
    5f0e:	13 36       	cpi	r17, 0x63	; 99
    5f10:	a9 f4       	brne	.+42     	; 0x5f3c <vfscanf+0x162>
    5f12:	01 fd       	sbrc	r16, 1
    5f14:	02 c0       	rjmp	.+4      	; 0x5f1a <vfscanf+0x140>
    5f16:	ff 24       	eor	r15, r15
    5f18:	f3 94       	inc	r15
    5f1a:	c6 01       	movw	r24, r12
    5f1c:	0e 94 12 30 	call	0x6024	; 0x6024 <fgetc>
    5f20:	97 fd       	sbrc	r25, 7
    5f22:	60 c0       	rjmp	.+192    	; 0x5fe4 <vfscanf+0x20a>
    5f24:	81 14       	cp	r8, r1
    5f26:	91 04       	cpc	r9, r1
    5f28:	29 f0       	breq	.+10     	; 0x5f34 <vfscanf+0x15a>
    5f2a:	f4 01       	movw	r30, r8
    5f2c:	80 83       	st	Z, r24
    5f2e:	c4 01       	movw	r24, r8
    5f30:	01 96       	adiw	r24, 0x01	; 1
    5f32:	4c 01       	movw	r8, r24
    5f34:	fa 94       	dec	r15
    5f36:	f1 10       	cpse	r15, r1
    5f38:	f0 cf       	rjmp	.-32     	; 0x5f1a <vfscanf+0x140>
    5f3a:	50 c0       	rjmp	.+160    	; 0x5fdc <vfscanf+0x202>
    5f3c:	1b 35       	cpi	r17, 0x5B	; 91
    5f3e:	59 f4       	brne	.+22     	; 0x5f56 <vfscanf+0x17c>
    5f40:	9e 01       	movw	r18, r28
    5f42:	a4 01       	movw	r20, r8
    5f44:	6f 2d       	mov	r22, r15
    5f46:	c6 01       	movw	r24, r12
    5f48:	0e 94 2f 2e 	call	0x5c5e	; 0x5c5e <conv_brk>
    5f4c:	ec 01       	movw	r28, r24
    5f4e:	89 2b       	or	r24, r25
    5f50:	09 f0       	breq	.+2      	; 0x5f54 <vfscanf+0x17a>
    5f52:	44 c0       	rjmp	.+136    	; 0x5fdc <vfscanf+0x202>
    5f54:	3e c0       	rjmp	.+124    	; 0x5fd2 <vfscanf+0x1f8>
    5f56:	c6 01       	movw	r24, r12
    5f58:	0e 94 84 2d 	call	0x5b08	; 0x5b08 <skip_spaces>
    5f5c:	97 fd       	sbrc	r25, 7
    5f5e:	42 c0       	rjmp	.+132    	; 0x5fe4 <vfscanf+0x20a>
    5f60:	1f 36       	cpi	r17, 0x6F	; 111
    5f62:	61 f1       	breq	.+88     	; 0x5fbc <vfscanf+0x1e2>
    5f64:	28 f4       	brcc	.+10     	; 0x5f70 <vfscanf+0x196>
    5f66:	14 36       	cpi	r17, 0x64	; 100
    5f68:	39 f1       	breq	.+78     	; 0x5fb8 <vfscanf+0x1de>
    5f6a:	19 36       	cpi	r17, 0x69	; 105
    5f6c:	51 f1       	breq	.+84     	; 0x5fc2 <vfscanf+0x1e8>
    5f6e:	28 c0       	rjmp	.+80     	; 0x5fc0 <vfscanf+0x1e6>
    5f70:	13 37       	cpi	r17, 0x73	; 115
    5f72:	71 f0       	breq	.+28     	; 0x5f90 <vfscanf+0x1b6>
    5f74:	15 37       	cpi	r17, 0x75	; 117
    5f76:	01 f1       	breq	.+64     	; 0x5fb8 <vfscanf+0x1de>
    5f78:	23 c0       	rjmp	.+70     	; 0x5fc0 <vfscanf+0x1e6>
    5f7a:	81 14       	cp	r8, r1
    5f7c:	91 04       	cpc	r9, r1
    5f7e:	29 f0       	breq	.+10     	; 0x5f8a <vfscanf+0x1b0>
    5f80:	f4 01       	movw	r30, r8
    5f82:	60 82       	st	Z, r6
    5f84:	c4 01       	movw	r24, r8
    5f86:	01 96       	adiw	r24, 0x01	; 1
    5f88:	4c 01       	movw	r8, r24
    5f8a:	fa 94       	dec	r15
    5f8c:	ff 20       	and	r15, r15
    5f8e:	71 f0       	breq	.+28     	; 0x5fac <vfscanf+0x1d2>
    5f90:	c6 01       	movw	r24, r12
    5f92:	0e 94 12 30 	call	0x6024	; 0x6024 <fgetc>
    5f96:	3c 01       	movw	r6, r24
    5f98:	97 fd       	sbrc	r25, 7
    5f9a:	08 c0       	rjmp	.+16     	; 0x5fac <vfscanf+0x1d2>
    5f9c:	0e 94 fe 2f 	call	0x5ffc	; 0x5ffc <isspace>
    5fa0:	89 2b       	or	r24, r25
    5fa2:	59 f3       	breq	.-42     	; 0x5f7a <vfscanf+0x1a0>
    5fa4:	b6 01       	movw	r22, r12
    5fa6:	c3 01       	movw	r24, r6
    5fa8:	0e 94 50 30 	call	0x60a0	; 0x60a0 <ungetc>
    5fac:	81 14       	cp	r8, r1
    5fae:	91 04       	cpc	r9, r1
    5fb0:	a9 f0       	breq	.+42     	; 0x5fdc <vfscanf+0x202>
    5fb2:	f4 01       	movw	r30, r8
    5fb4:	10 82       	st	Z, r1
    5fb6:	12 c0       	rjmp	.+36     	; 0x5fdc <vfscanf+0x202>
    5fb8:	00 62       	ori	r16, 0x20	; 32
    5fba:	03 c0       	rjmp	.+6      	; 0x5fc2 <vfscanf+0x1e8>
    5fbc:	00 61       	ori	r16, 0x10	; 16
    5fbe:	01 c0       	rjmp	.+2      	; 0x5fc2 <vfscanf+0x1e8>
    5fc0:	00 64       	ori	r16, 0x40	; 64
    5fc2:	20 2f       	mov	r18, r16
    5fc4:	a4 01       	movw	r20, r8
    5fc6:	6f 2d       	mov	r22, r15
    5fc8:	c6 01       	movw	r24, r12
    5fca:	0e 94 9d 2d 	call	0x5b3a	; 0x5b3a <conv_int>
    5fce:	81 11       	cpse	r24, r1
    5fd0:	05 c0       	rjmp	.+10     	; 0x5fdc <vfscanf+0x202>
    5fd2:	f6 01       	movw	r30, r12
    5fd4:	83 81       	ldd	r24, Z+3	; 0x03
    5fd6:	80 73       	andi	r24, 0x30	; 48
    5fd8:	29 f4       	brne	.+10     	; 0x5fe4 <vfscanf+0x20a>
    5fda:	06 c0       	rjmp	.+12     	; 0x5fe8 <vfscanf+0x20e>
    5fdc:	00 fd       	sbrc	r16, 0
    5fde:	0a cf       	rjmp	.-492    	; 0x5df4 <vfscanf+0x1a>
    5fe0:	53 94       	inc	r5
    5fe2:	08 cf       	rjmp	.-496    	; 0x5df4 <vfscanf+0x1a>
    5fe4:	55 20       	and	r5, r5
    5fe6:	19 f0       	breq	.+6      	; 0x5fee <vfscanf+0x214>
    5fe8:	85 2d       	mov	r24, r5
    5fea:	90 e0       	ldi	r25, 0x00	; 0
    5fec:	02 c0       	rjmp	.+4      	; 0x5ff2 <vfscanf+0x218>
    5fee:	8f ef       	ldi	r24, 0xFF	; 255
    5ff0:	9f ef       	ldi	r25, 0xFF	; 255
    5ff2:	cd b7       	in	r28, 0x3d	; 61
    5ff4:	de b7       	in	r29, 0x3e	; 62
    5ff6:	ef e0       	ldi	r30, 0x0F	; 15
    5ff8:	0c 94 8b 30 	jmp	0x6116	; 0x6116 <__epilogue_restores__+0x6>

00005ffc <isspace>:
    5ffc:	91 11       	cpse	r25, r1
    5ffe:	0c 94 69 30 	jmp	0x60d2	; 0x60d2 <__ctype_isfalse>
    6002:	80 32       	cpi	r24, 0x20	; 32
    6004:	19 f0       	breq	.+6      	; 0x600c <isspace+0x10>
    6006:	89 50       	subi	r24, 0x09	; 9
    6008:	85 50       	subi	r24, 0x05	; 5
    600a:	c8 f7       	brcc	.-14     	; 0x5ffe <isspace+0x2>
    600c:	08 95       	ret

0000600e <strchr_P>:
    600e:	fc 01       	movw	r30, r24
    6010:	05 90       	lpm	r0, Z+
    6012:	06 16       	cp	r0, r22
    6014:	21 f0       	breq	.+8      	; 0x601e <strchr_P+0x10>
    6016:	00 20       	and	r0, r0
    6018:	d9 f7       	brne	.-10     	; 0x6010 <strchr_P+0x2>
    601a:	c0 01       	movw	r24, r0
    601c:	08 95       	ret
    601e:	31 97       	sbiw	r30, 0x01	; 1
    6020:	cf 01       	movw	r24, r30
    6022:	08 95       	ret

00006024 <fgetc>:
    6024:	cf 93       	push	r28
    6026:	df 93       	push	r29
    6028:	ec 01       	movw	r28, r24
    602a:	2b 81       	ldd	r18, Y+3	; 0x03
    602c:	20 ff       	sbrs	r18, 0
    602e:	33 c0       	rjmp	.+102    	; 0x6096 <fgetc+0x72>
    6030:	26 ff       	sbrs	r18, 6
    6032:	0a c0       	rjmp	.+20     	; 0x6048 <fgetc+0x24>
    6034:	2f 7b       	andi	r18, 0xBF	; 191
    6036:	2b 83       	std	Y+3, r18	; 0x03
    6038:	8e 81       	ldd	r24, Y+6	; 0x06
    603a:	9f 81       	ldd	r25, Y+7	; 0x07
    603c:	01 96       	adiw	r24, 0x01	; 1
    603e:	9f 83       	std	Y+7, r25	; 0x07
    6040:	8e 83       	std	Y+6, r24	; 0x06
    6042:	8a 81       	ldd	r24, Y+2	; 0x02
    6044:	90 e0       	ldi	r25, 0x00	; 0
    6046:	29 c0       	rjmp	.+82     	; 0x609a <fgetc+0x76>
    6048:	22 ff       	sbrs	r18, 2
    604a:	0f c0       	rjmp	.+30     	; 0x606a <fgetc+0x46>
    604c:	e8 81       	ld	r30, Y
    604e:	f9 81       	ldd	r31, Y+1	; 0x01
    6050:	80 81       	ld	r24, Z
    6052:	08 2e       	mov	r0, r24
    6054:	00 0c       	add	r0, r0
    6056:	99 0b       	sbc	r25, r25
    6058:	00 97       	sbiw	r24, 0x00	; 0
    605a:	19 f4       	brne	.+6      	; 0x6062 <fgetc+0x3e>
    605c:	20 62       	ori	r18, 0x20	; 32
    605e:	2b 83       	std	Y+3, r18	; 0x03
    6060:	1a c0       	rjmp	.+52     	; 0x6096 <fgetc+0x72>
    6062:	31 96       	adiw	r30, 0x01	; 1
    6064:	f9 83       	std	Y+1, r31	; 0x01
    6066:	e8 83       	st	Y, r30
    6068:	0e c0       	rjmp	.+28     	; 0x6086 <fgetc+0x62>
    606a:	ea 85       	ldd	r30, Y+10	; 0x0a
    606c:	fb 85       	ldd	r31, Y+11	; 0x0b
    606e:	09 95       	icall
    6070:	97 ff       	sbrs	r25, 7
    6072:	09 c0       	rjmp	.+18     	; 0x6086 <fgetc+0x62>
    6074:	2b 81       	ldd	r18, Y+3	; 0x03
    6076:	01 96       	adiw	r24, 0x01	; 1
    6078:	11 f0       	breq	.+4      	; 0x607e <fgetc+0x5a>
    607a:	80 e2       	ldi	r24, 0x20	; 32
    607c:	01 c0       	rjmp	.+2      	; 0x6080 <fgetc+0x5c>
    607e:	80 e1       	ldi	r24, 0x10	; 16
    6080:	82 2b       	or	r24, r18
    6082:	8b 83       	std	Y+3, r24	; 0x03
    6084:	08 c0       	rjmp	.+16     	; 0x6096 <fgetc+0x72>
    6086:	2e 81       	ldd	r18, Y+6	; 0x06
    6088:	3f 81       	ldd	r19, Y+7	; 0x07
    608a:	2f 5f       	subi	r18, 0xFF	; 255
    608c:	3f 4f       	sbci	r19, 0xFF	; 255
    608e:	3f 83       	std	Y+7, r19	; 0x07
    6090:	2e 83       	std	Y+6, r18	; 0x06
    6092:	99 27       	eor	r25, r25
    6094:	02 c0       	rjmp	.+4      	; 0x609a <fgetc+0x76>
    6096:	8f ef       	ldi	r24, 0xFF	; 255
    6098:	9f ef       	ldi	r25, 0xFF	; 255
    609a:	df 91       	pop	r29
    609c:	cf 91       	pop	r28
    609e:	08 95       	ret

000060a0 <ungetc>:
    60a0:	fb 01       	movw	r30, r22
    60a2:	23 81       	ldd	r18, Z+3	; 0x03
    60a4:	20 ff       	sbrs	r18, 0
    60a6:	12 c0       	rjmp	.+36     	; 0x60cc <ungetc+0x2c>
    60a8:	26 fd       	sbrc	r18, 6
    60aa:	10 c0       	rjmp	.+32     	; 0x60cc <ungetc+0x2c>
    60ac:	8f 3f       	cpi	r24, 0xFF	; 255
    60ae:	3f ef       	ldi	r19, 0xFF	; 255
    60b0:	93 07       	cpc	r25, r19
    60b2:	61 f0       	breq	.+24     	; 0x60cc <ungetc+0x2c>
    60b4:	82 83       	std	Z+2, r24	; 0x02
    60b6:	2f 7d       	andi	r18, 0xDF	; 223
    60b8:	20 64       	ori	r18, 0x40	; 64
    60ba:	23 83       	std	Z+3, r18	; 0x03
    60bc:	26 81       	ldd	r18, Z+6	; 0x06
    60be:	37 81       	ldd	r19, Z+7	; 0x07
    60c0:	21 50       	subi	r18, 0x01	; 1
    60c2:	31 09       	sbc	r19, r1
    60c4:	37 83       	std	Z+7, r19	; 0x07
    60c6:	26 83       	std	Z+6, r18	; 0x06
    60c8:	99 27       	eor	r25, r25
    60ca:	08 95       	ret
    60cc:	8f ef       	ldi	r24, 0xFF	; 255
    60ce:	9f ef       	ldi	r25, 0xFF	; 255
    60d0:	08 95       	ret

000060d2 <__ctype_isfalse>:
    60d2:	99 27       	eor	r25, r25
    60d4:	88 27       	eor	r24, r24

000060d6 <__ctype_istrue>:
    60d6:	08 95       	ret

000060d8 <__prologue_saves__>:
    60d8:	2f 92       	push	r2
    60da:	3f 92       	push	r3
    60dc:	4f 92       	push	r4
    60de:	5f 92       	push	r5
    60e0:	6f 92       	push	r6
    60e2:	7f 92       	push	r7
    60e4:	8f 92       	push	r8
    60e6:	9f 92       	push	r9
    60e8:	af 92       	push	r10
    60ea:	bf 92       	push	r11
    60ec:	cf 92       	push	r12
    60ee:	df 92       	push	r13
    60f0:	ef 92       	push	r14
    60f2:	ff 92       	push	r15
    60f4:	0f 93       	push	r16
    60f6:	1f 93       	push	r17
    60f8:	cf 93       	push	r28
    60fa:	df 93       	push	r29
    60fc:	cd b7       	in	r28, 0x3d	; 61
    60fe:	de b7       	in	r29, 0x3e	; 62
    6100:	ca 1b       	sub	r28, r26
    6102:	db 0b       	sbc	r29, r27
    6104:	0f b6       	in	r0, 0x3f	; 63
    6106:	f8 94       	cli
    6108:	de bf       	out	0x3e, r29	; 62
    610a:	0f be       	out	0x3f, r0	; 63
    610c:	cd bf       	out	0x3d, r28	; 61
    610e:	09 94       	ijmp

00006110 <__epilogue_restores__>:
    6110:	2a 88       	ldd	r2, Y+18	; 0x12
    6112:	39 88       	ldd	r3, Y+17	; 0x11
    6114:	48 88       	ldd	r4, Y+16	; 0x10
    6116:	5f 84       	ldd	r5, Y+15	; 0x0f
    6118:	6e 84       	ldd	r6, Y+14	; 0x0e
    611a:	7d 84       	ldd	r7, Y+13	; 0x0d
    611c:	8c 84       	ldd	r8, Y+12	; 0x0c
    611e:	9b 84       	ldd	r9, Y+11	; 0x0b
    6120:	aa 84       	ldd	r10, Y+10	; 0x0a
    6122:	b9 84       	ldd	r11, Y+9	; 0x09
    6124:	c8 84       	ldd	r12, Y+8	; 0x08
    6126:	df 80       	ldd	r13, Y+7	; 0x07
    6128:	ee 80       	ldd	r14, Y+6	; 0x06
    612a:	fd 80       	ldd	r15, Y+5	; 0x05
    612c:	0c 81       	ldd	r16, Y+4	; 0x04
    612e:	1b 81       	ldd	r17, Y+3	; 0x03
    6130:	aa 81       	ldd	r26, Y+2	; 0x02
    6132:	b9 81       	ldd	r27, Y+1	; 0x01
    6134:	ce 0f       	add	r28, r30
    6136:	d1 1d       	adc	r29, r1
    6138:	0f b6       	in	r0, 0x3f	; 63
    613a:	f8 94       	cli
    613c:	de bf       	out	0x3e, r29	; 62
    613e:	0f be       	out	0x3f, r0	; 63
    6140:	cd bf       	out	0x3d, r28	; 61
    6142:	ed 01       	movw	r28, r26
    6144:	08 95       	ret

00006146 <__do_global_dtors>:
    6146:	10 e0       	ldi	r17, 0x00	; 0
    6148:	cd e6       	ldi	r28, 0x6D	; 109
    614a:	d0 e0       	ldi	r29, 0x00	; 0
    614c:	04 c0       	rjmp	.+8      	; 0x6156 <__do_global_dtors+0x10>
    614e:	fe 01       	movw	r30, r28
    6150:	0e 94 c0 2b 	call	0x5780	; 0x5780 <__tablejump2__>
    6154:	21 96       	adiw	r28, 0x01	; 1
    6156:	ce 36       	cpi	r28, 0x6E	; 110
    6158:	d1 07       	cpc	r29, r17
    615a:	c9 f7       	brne	.-14     	; 0x614e <__do_global_dtors+0x8>
    615c:	f8 94       	cli

0000615e <__stop_program>:
    615e:	ff cf       	rjmp	.-2      	; 0x615e <__stop_program>
