
os.elf:     file format elf32-avr

Sections:
Idx Name          Size      VMA       LMA       File off  Algn
  0 .data         00000000  00800100  00800100  00002104  2**0
                  CONTENTS, ALLOC, LOAD, DATA
  1 .text         00002090  00000000  00000000  00000074  2**1
                  CONTENTS, ALLOC, LOAD, READONLY, CODE
  2 .bss          00000151  00800100  00800100  00002104  2**0
                  ALLOC
  3 .comment      00000030  00000000  00000000  00002104  2**0
                  CONTENTS, READONLY
  4 .note.gnu.avr.deviceinfo 00000040  00000000  00000000  00002134  2**2
                  CONTENTS, READONLY
  5 .debug_aranges 000004d0  00000000  00000000  00002174  2**0
                  CONTENTS, READONLY, DEBUGGING
  6 .debug_info   00009960  00000000  00000000  00002644  2**0
                  CONTENTS, READONLY, DEBUGGING
  7 .debug_abbrev 00001713  00000000  00000000  0000bfa4  2**0
                  CONTENTS, READONLY, DEBUGGING
  8 .debug_line   00002487  00000000  00000000  0000d6b7  2**0
                  CONTENTS, READONLY, DEBUGGING
  9 .debug_frame  00000be8  00000000  00000000  0000fb40  2**2
                  CONTENTS, READONLY, DEBUGGING
 10 .debug_str    00001bd0  00000000  00000000  00010728  2**0
                  CONTENTS, READONLY, DEBUGGING
 11 .debug_loc    00004283  00000000  00000000  000122f8  2**0
                  CONTENTS, READONLY, DEBUGGING
 12 .debug_ranges 00000598  00000000  00000000  0001657b  2**0
                  CONTENTS, READONLY, DEBUGGING

Disassembly of section .text:

00000000 <__vectors>:
       0:	0c 94 40 00 	jmp	0x80	; 0x80 <__dtors_end>
       4:	0c 94 5d 00 	jmp	0xba	; 0xba <__bad_interrupt>
       8:	0c 94 5d 00 	jmp	0xba	; 0xba <__bad_interrupt>
       c:	0c 94 5d 00 	jmp	0xba	; 0xba <__bad_interrupt>
      10:	0c 94 5d 00 	jmp	0xba	; 0xba <__bad_interrupt>
      14:	0c 94 5d 00 	jmp	0xba	; 0xba <__bad_interrupt>
      18:	0c 94 5d 00 	jmp	0xba	; 0xba <__bad_interrupt>
      1c:	0c 94 5d 00 	jmp	0xba	; 0xba <__bad_interrupt>
      20:	0c 94 5d 00 	jmp	0xba	; 0xba <__bad_interrupt>
      24:	0c 94 5d 00 	jmp	0xba	; 0xba <__bad_interrupt>
      28:	0c 94 5d 00 	jmp	0xba	; 0xba <__bad_interrupt>
      2c:	0c 94 5d 00 	jmp	0xba	; 0xba <__bad_interrupt>
      30:	0c 94 5d 00 	jmp	0xba	; 0xba <__bad_interrupt>
      34:	0c 94 5d 00 	jmp	0xba	; 0xba <__bad_interrupt>
      38:	0c 94 5d 00 	jmp	0xba	; 0xba <__bad_interrupt>
      3c:	0c 94 5d 00 	jmp	0xba	; 0xba <__bad_interrupt>
      40:	0c 94 5d 00 	jmp	0xba	; 0xba <__bad_interrupt>
      44:	0c 94 5d 00 	jmp	0xba	; 0xba <__bad_interrupt>
      48:	0c 94 5d 00 	jmp	0xba	; 0xba <__bad_interrupt>
      4c:	0c 94 5d 00 	jmp	0xba	; 0xba <__bad_interrupt>
      50:	0c 94 5d 00 	jmp	0xba	; 0xba <__bad_interrupt>
      54:	0c 94 5d 00 	jmp	0xba	; 0xba <__bad_interrupt>
      58:	0c 94 5d 00 	jmp	0xba	; 0xba <__bad_interrupt>
      5c:	0c 94 5d 00 	jmp	0xba	; 0xba <__bad_interrupt>
      60:	0c 94 5d 00 	jmp	0xba	; 0xba <__bad_interrupt>
      64:	0c 94 5d 00 	jmp	0xba	; 0xba <__bad_interrupt>
      68:	0c 94 5d 00 	jmp	0xba	; 0xba <__bad_interrupt>
      6c:	0c 94 5d 00 	jmp	0xba	; 0xba <__bad_interrupt>
      70:	0c 94 5d 00 	jmp	0xba	; 0xba <__bad_interrupt>
      74:	0c 94 5d 00 	jmp	0xba	; 0xba <__bad_interrupt>
      78:	0c 94 5d 00 	jmp	0xba	; 0xba <__bad_interrupt>

0000007c <__ctors_start>:
      7c:	d8 0f       	add	r29, r24

0000007e <__ctors_end>:
      7e:	0c 10       	cpse	r0, r12

00000080 <__dtors_end>:
      80:	11 24       	eor	r1, r1
      82:	1f be       	out	0x3f, r1	; 63
      84:	cf ef       	ldi	r28, 0xFF	; 255
      86:	d0 e1       	ldi	r29, 0x10	; 16
      88:	de bf       	out	0x3e, r29	; 62
      8a:	cd bf       	out	0x3d, r28	; 61

0000008c <__do_clear_bss>:
      8c:	22 e0       	ldi	r18, 0x02	; 2
      8e:	a0 e0       	ldi	r26, 0x00	; 0
      90:	b1 e0       	ldi	r27, 0x01	; 1
      92:	01 c0       	rjmp	.+2      	; 0x96 <.do_clear_bss_start>

00000094 <.do_clear_bss_loop>:
      94:	1d 92       	st	X+, r1

00000096 <.do_clear_bss_start>:
      96:	a1 35       	cpi	r26, 0x51	; 81
      98:	b2 07       	cpc	r27, r18
      9a:	e1 f7       	brne	.-8      	; 0x94 <.do_clear_bss_loop>

0000009c <__do_global_ctors>:
      9c:	10 e0       	ldi	r17, 0x00	; 0
      9e:	cf e3       	ldi	r28, 0x3F	; 63
      a0:	d0 e0       	ldi	r29, 0x00	; 0
      a2:	04 c0       	rjmp	.+8      	; 0xac <__do_global_ctors+0x10>
      a4:	21 97       	sbiw	r28, 0x01	; 1
      a6:	fe 01       	movw	r30, r28
      a8:	0e 94 35 10 	call	0x206a	; 0x206a <__tablejump2__>
      ac:	ce 33       	cpi	r28, 0x3E	; 62
      ae:	d1 07       	cpc	r29, r17
      b0:	c9 f7       	brne	.-14     	; 0xa4 <__do_global_ctors+0x8>
      b2:	0e 94 bf 0f 	call	0x1f7e	; 0x1f7e <main>
      b6:	0c 94 3b 10 	jmp	0x2076	; 0x2076 <__do_global_dtors>

000000ba <__bad_interrupt>:
      ba:	0c 94 00 00 	jmp	0	; 0x0 <__vectors>

000000be <_ZN11interpreterC1Ev>:
{
	for (unsigned int i =0;i<sizeof(registers);i++)
	{
		registers[i]=0;
	}
}
      be:	cf 93       	push	r28
      c0:	df 93       	push	r29
      c2:	fc 01       	movw	r30, r24
      c4:	e1 5f       	subi	r30, 0xF1	; 241
      c6:	fe 4f       	sbci	r31, 0xFE	; 254
      c8:	2f ef       	ldi	r18, 0xFF	; 255
      ca:	3f e1       	ldi	r19, 0x1F	; 31
      cc:	31 83       	std	Z+1, r19	; 0x01
      ce:	20 83       	st	Z, r18
      d0:	32 96       	adiw	r30, 0x02	; 2
      d2:	10 82       	st	Z, r1
      d4:	11 82       	std	Z+1, r1	; 0x01
      d6:	12 82       	std	Z+2, r1	; 0x02
      d8:	13 82       	std	Z+3, r1	; 0x03
      da:	72 97       	sbiw	r30, 0x12	; 18
      dc:	bc 01       	movw	r22, r24
      de:	69 5f       	subi	r22, 0xF9	; 249
      e0:	7e 4f       	sbci	r23, 0xFE	; 254
      e2:	9c 01       	movw	r18, r24
      e4:	22 50       	subi	r18, 0x02	; 2
      e6:	3f 4f       	sbci	r19, 0xFF	; 255
      e8:	db 01       	movw	r26, r22
      ea:	2d 93       	st	X+, r18
      ec:	3c 93       	st	X, r19
      ee:	ec 01       	movw	r28, r24
      f0:	c7 5f       	subi	r28, 0xF7	; 247
      f2:	de 4f       	sbci	r29, 0xFE	; 254
      f4:	f9 83       	std	Y+1, r31	; 0x01
      f6:	e8 83       	st	Y, r30
      f8:	26 97       	sbiw	r28, 0x06	; 6
      fa:	22 50       	subi	r18, 0x02	; 2
      fc:	31 09       	sbc	r19, r1
      fe:	39 83       	std	Y+1, r19	; 0x01
     100:	28 83       	st	Y, r18
     102:	27 5f       	subi	r18, 0xF7	; 247
     104:	3f 4f       	sbci	r19, 0xFF	; 255
     106:	ac 01       	movw	r20, r24
     108:	43 50       	subi	r20, 0x03	; 3
     10a:	5f 4f       	sbci	r21, 0xFF	; 255
     10c:	d9 01       	movw	r26, r18
     10e:	4d 93       	st	X+, r20
     110:	5c 93       	st	X, r21
     112:	2b 50       	subi	r18, 0x0B	; 11
     114:	31 09       	sbc	r19, r1
     116:	31 83       	std	Z+1, r19	; 0x01
     118:	20 83       	st	Z, r18
     11a:	29 5f       	subi	r18, 0xF9	; 249
     11c:	3f 4f       	sbci	r19, 0xFF	; 255
     11e:	42 50       	subi	r20, 0x02	; 2
     120:	51 09       	sbc	r21, r1
     122:	d9 01       	movw	r26, r18
     124:	4d 93       	st	X+, r20
     126:	5c 93       	st	X, r21
     128:	2c 5e       	subi	r18, 0xEC	; 236
     12a:	3f 4f       	sbci	r19, 0xFF	; 255
     12c:	d9 01       	movw	r26, r18
     12e:	ed 93       	st	X+, r30
     130:	fc 93       	st	X, r31
     132:	78 96       	adiw	r30, 0x18	; 24
     134:	d1 83       	std	Z+1, r29	; 0x01
     136:	c0 83       	st	Z, r28
     138:	32 96       	adiw	r30, 0x02	; 2
     13a:	71 83       	std	Z+1, r23	; 0x01
     13c:	60 83       	st	Z, r22
     13e:	df 91       	pop	r29
     140:	cf 91       	pop	r28
     142:	08 95       	ret

00000144 <_ZN11interpreter3incEm>:
     144:	cf 92       	push	r12
     146:	df 92       	push	r13
     148:	ef 92       	push	r14
     14a:	ff 92       	push	r15
     14c:	cf 93       	push	r28
     14e:	df 93       	push	r29
     150:	6a 01       	movw	r12, r20
     152:	7b 01       	movw	r14, r22
     154:	ec 01       	movw	r28, r24
     156:	c5 5f       	subi	r28, 0xF5	; 245
     158:	de 4f       	sbci	r29, 0xFE	; 254
     15a:	88 81       	ld	r24, Y
     15c:	99 81       	ldd	r25, Y+1	; 0x01
     15e:	0e 94 36 0f 	call	0x1e6c	; 0x1e6c <_ZN6memory4readEm>
     162:	21 e0       	ldi	r18, 0x01	; 1
     164:	28 0f       	add	r18, r24
     166:	b7 01       	movw	r22, r14
     168:	a6 01       	movw	r20, r12
     16a:	88 81       	ld	r24, Y
     16c:	99 81       	ldd	r25, Y+1	; 0x01
     16e:	0e 94 18 0f 	call	0x1e30	; 0x1e30 <_ZN6memory5writeEmh>
     172:	df 91       	pop	r29
     174:	cf 91       	pop	r28
     176:	ff 90       	pop	r15
     178:	ef 90       	pop	r14
     17a:	df 90       	pop	r13
     17c:	cf 90       	pop	r12
     17e:	08 95       	ret

00000180 <_ZN11interpreter3decEm>:
     180:	cf 92       	push	r12
     182:	df 92       	push	r13
     184:	ef 92       	push	r14
     186:	ff 92       	push	r15
     188:	cf 93       	push	r28
     18a:	df 93       	push	r29
     18c:	6a 01       	movw	r12, r20
     18e:	7b 01       	movw	r14, r22
     190:	ec 01       	movw	r28, r24
     192:	c5 5f       	subi	r28, 0xF5	; 245
     194:	de 4f       	sbci	r29, 0xFE	; 254
     196:	88 81       	ld	r24, Y
     198:	99 81       	ldd	r25, Y+1	; 0x01
     19a:	0e 94 36 0f 	call	0x1e6c	; 0x1e6c <_ZN6memory4readEm>
     19e:	2f ef       	ldi	r18, 0xFF	; 255
     1a0:	28 0f       	add	r18, r24
     1a2:	b7 01       	movw	r22, r14
     1a4:	a6 01       	movw	r20, r12
     1a6:	88 81       	ld	r24, Y
     1a8:	99 81       	ldd	r25, Y+1	; 0x01
     1aa:	0e 94 18 0f 	call	0x1e30	; 0x1e30 <_ZN6memory5writeEmh>
     1ae:	df 91       	pop	r29
     1b0:	cf 91       	pop	r28
     1b2:	ff 90       	pop	r15
     1b4:	ef 90       	pop	r14
     1b6:	df 90       	pop	r13
     1b8:	cf 90       	pop	r12
     1ba:	08 95       	ret

000001bc <_ZN11interpreter2ldEcm>:
     1bc:	1f 93       	push	r17
     1be:	cf 93       	push	r28
     1c0:	df 93       	push	r29
     1c2:	ec 01       	movw	r28, r24
     1c4:	16 2f       	mov	r17, r22
     1c6:	ba 01       	movw	r22, r20
     1c8:	a9 01       	movw	r20, r18
     1ca:	fc 01       	movw	r30, r24
     1cc:	e5 5f       	subi	r30, 0xF5	; 245
     1ce:	fe 4f       	sbci	r31, 0xFE	; 254
     1d0:	80 81       	ld	r24, Z
     1d2:	91 81       	ldd	r25, Z+1	; 0x01
     1d4:	0e 94 36 0f 	call	0x1e6c	; 0x1e6c <_ZN6memory4readEm>
     1d8:	c1 0f       	add	r28, r17
     1da:	d1 1d       	adc	r29, r1
     1dc:	88 83       	st	Y, r24
     1de:	df 91       	pop	r29
     1e0:	cf 91       	pop	r28
     1e2:	1f 91       	pop	r17
     1e4:	08 95       	ret

000001e6 <_ZN11interpreter3ldxEc>:
     1e6:	fc 01       	movw	r30, r24
     1e8:	e1 50       	subi	r30, 0x01	; 1
     1ea:	ff 4f       	sbci	r31, 0xFF	; 255
     1ec:	a2 81       	ldd	r26, Z+2	; 0x02
     1ee:	b3 81       	ldd	r27, Z+3	; 0x03
     1f0:	2c 91       	ld	r18, X
     1f2:	30 e0       	ldi	r19, 0x00	; 0
     1f4:	32 2f       	mov	r19, r18
     1f6:	22 27       	eor	r18, r18
     1f8:	01 90       	ld	r0, Z+
     1fa:	f0 81       	ld	r31, Z
     1fc:	e0 2d       	mov	r30, r0
     1fe:	40 81       	ld	r20, Z
     200:	24 2b       	or	r18, r20
     202:	03 2e       	mov	r0, r19
     204:	00 0c       	add	r0, r0
     206:	44 0b       	sbc	r20, r20
     208:	55 0b       	sbc	r21, r21
     20a:	0e 94 de 00 	call	0x1bc	; 0x1bc <_ZN11interpreter2ldEcm>
     20e:	08 95       	ret

00000210 <_ZN11interpreter3ldyEc>:
     210:	fc 01       	movw	r30, r24
     212:	ed 5f       	subi	r30, 0xFD	; 253
     214:	fe 4f       	sbci	r31, 0xFE	; 254
     216:	a2 81       	ldd	r26, Z+2	; 0x02
     218:	b3 81       	ldd	r27, Z+3	; 0x03
     21a:	2c 91       	ld	r18, X
     21c:	30 e0       	ldi	r19, 0x00	; 0
     21e:	32 2f       	mov	r19, r18
     220:	22 27       	eor	r18, r18
     222:	01 90       	ld	r0, Z+
     224:	f0 81       	ld	r31, Z
     226:	e0 2d       	mov	r30, r0
     228:	40 81       	ld	r20, Z
     22a:	24 2b       	or	r18, r20
     22c:	03 2e       	mov	r0, r19
     22e:	00 0c       	add	r0, r0
     230:	44 0b       	sbc	r20, r20
     232:	55 0b       	sbc	r21, r21
     234:	0e 94 de 00 	call	0x1bc	; 0x1bc <_ZN11interpreter2ldEcm>
     238:	08 95       	ret

0000023a <_ZN11interpreter3ldzEc>:
     23a:	fc 01       	movw	r30, r24
     23c:	e9 5f       	subi	r30, 0xF9	; 249
     23e:	fe 4f       	sbci	r31, 0xFE	; 254
     240:	a2 81       	ldd	r26, Z+2	; 0x02
     242:	b3 81       	ldd	r27, Z+3	; 0x03
     244:	2c 91       	ld	r18, X
     246:	30 e0       	ldi	r19, 0x00	; 0
     248:	32 2f       	mov	r19, r18
     24a:	22 27       	eor	r18, r18
     24c:	01 90       	ld	r0, Z+
     24e:	f0 81       	ld	r31, Z
     250:	e0 2d       	mov	r30, r0
     252:	40 81       	ld	r20, Z
     254:	24 2b       	or	r18, r20
     256:	03 2e       	mov	r0, r19
     258:	00 0c       	add	r0, r0
     25a:	44 0b       	sbc	r20, r20
     25c:	55 0b       	sbc	r21, r21
     25e:	0e 94 de 00 	call	0x1bc	; 0x1bc <_ZN11interpreter2ldEcm>
     262:	08 95       	ret

00000264 <_ZN11interpreter3stxEc>:
     264:	fc 01       	movw	r30, r24
     266:	e6 0f       	add	r30, r22
     268:	f1 1d       	adc	r31, r1
     26a:	dc 01       	movw	r26, r24
     26c:	af 5f       	subi	r26, 0xFF	; 255
     26e:	be 4f       	sbci	r27, 0xFE	; 254
     270:	0d 90       	ld	r0, X+
     272:	bc 91       	ld	r27, X
     274:	a0 2d       	mov	r26, r0
     276:	4c 91       	ld	r20, X
     278:	50 e0       	ldi	r21, 0x00	; 0
     27a:	60 e0       	ldi	r22, 0x00	; 0
     27c:	70 e0       	ldi	r23, 0x00	; 0
     27e:	76 2f       	mov	r23, r22
     280:	65 2f       	mov	r22, r21
     282:	54 2f       	mov	r21, r20
     284:	44 27       	eor	r20, r20
     286:	dc 01       	movw	r26, r24
     288:	a1 50       	subi	r26, 0x01	; 1
     28a:	bf 4f       	sbci	r27, 0xFF	; 255
     28c:	0d 90       	ld	r0, X+
     28e:	bc 91       	ld	r27, X
     290:	a0 2d       	mov	r26, r0
     292:	2c 91       	ld	r18, X
     294:	42 2b       	or	r20, r18
     296:	dc 01       	movw	r26, r24
     298:	a5 5f       	subi	r26, 0xF5	; 245
     29a:	be 4f       	sbci	r27, 0xFE	; 254
     29c:	20 81       	ld	r18, Z
     29e:	8d 91       	ld	r24, X+
     2a0:	9c 91       	ld	r25, X
     2a2:	0e 94 18 0f 	call	0x1e30	; 0x1e30 <_ZN6memory5writeEmh>
     2a6:	08 95       	ret

000002a8 <_ZN11interpreter3styEc>:
     2a8:	fc 01       	movw	r30, r24
     2aa:	e6 0f       	add	r30, r22
     2ac:	f1 1d       	adc	r31, r1
     2ae:	dc 01       	movw	r26, r24
     2b0:	ab 5f       	subi	r26, 0xFB	; 251
     2b2:	be 4f       	sbci	r27, 0xFE	; 254
     2b4:	0d 90       	ld	r0, X+
     2b6:	bc 91       	ld	r27, X
     2b8:	a0 2d       	mov	r26, r0
     2ba:	4c 91       	ld	r20, X
     2bc:	50 e0       	ldi	r21, 0x00	; 0
     2be:	60 e0       	ldi	r22, 0x00	; 0
     2c0:	70 e0       	ldi	r23, 0x00	; 0
     2c2:	76 2f       	mov	r23, r22
     2c4:	65 2f       	mov	r22, r21
     2c6:	54 2f       	mov	r21, r20
     2c8:	44 27       	eor	r20, r20
     2ca:	dc 01       	movw	r26, r24
     2cc:	ad 5f       	subi	r26, 0xFD	; 253
     2ce:	be 4f       	sbci	r27, 0xFE	; 254
     2d0:	0d 90       	ld	r0, X+
     2d2:	bc 91       	ld	r27, X
     2d4:	a0 2d       	mov	r26, r0
     2d6:	2c 91       	ld	r18, X
     2d8:	42 2b       	or	r20, r18
     2da:	dc 01       	movw	r26, r24
     2dc:	a5 5f       	subi	r26, 0xF5	; 245
     2de:	be 4f       	sbci	r27, 0xFE	; 254
     2e0:	20 81       	ld	r18, Z
     2e2:	8d 91       	ld	r24, X+
     2e4:	9c 91       	ld	r25, X
     2e6:	0e 94 18 0f 	call	0x1e30	; 0x1e30 <_ZN6memory5writeEmh>
     2ea:	08 95       	ret

000002ec <_ZN11interpreter3stzEc>:
     2ec:	fc 01       	movw	r30, r24
     2ee:	e6 0f       	add	r30, r22
     2f0:	f1 1d       	adc	r31, r1
     2f2:	dc 01       	movw	r26, r24
     2f4:	a7 5f       	subi	r26, 0xF7	; 247
     2f6:	be 4f       	sbci	r27, 0xFE	; 254
     2f8:	0d 90       	ld	r0, X+
     2fa:	bc 91       	ld	r27, X
     2fc:	a0 2d       	mov	r26, r0
     2fe:	4c 91       	ld	r20, X
     300:	50 e0       	ldi	r21, 0x00	; 0
     302:	60 e0       	ldi	r22, 0x00	; 0
     304:	70 e0       	ldi	r23, 0x00	; 0
     306:	76 2f       	mov	r23, r22
     308:	65 2f       	mov	r22, r21
     30a:	54 2f       	mov	r21, r20
     30c:	44 27       	eor	r20, r20
     30e:	dc 01       	movw	r26, r24
     310:	a9 5f       	subi	r26, 0xF9	; 249
     312:	be 4f       	sbci	r27, 0xFE	; 254
     314:	0d 90       	ld	r0, X+
     316:	bc 91       	ld	r27, X
     318:	a0 2d       	mov	r26, r0
     31a:	2c 91       	ld	r18, X
     31c:	42 2b       	or	r20, r18
     31e:	dc 01       	movw	r26, r24
     320:	a5 5f       	subi	r26, 0xF5	; 245
     322:	be 4f       	sbci	r27, 0xFE	; 254
     324:	20 81       	ld	r18, Z
     326:	8d 91       	ld	r24, X+
     328:	9c 91       	ld	r25, X
     32a:	0e 94 18 0f 	call	0x1e30	; 0x1e30 <_ZN6memory5writeEmh>
     32e:	08 95       	ret

00000330 <_ZN11interpreter3stdEmc>:
     330:	85 5f       	subi	r24, 0xF5	; 245
     332:	9e 4f       	sbci	r25, 0xFE	; 254
     334:	fc 01       	movw	r30, r24
     336:	80 81       	ld	r24, Z
     338:	91 81       	ldd	r25, Z+1	; 0x01
     33a:	0e 94 18 0f 	call	0x1e30	; 0x1e30 <_ZN6memory5writeEmh>
     33e:	08 95       	ret

00000340 <_ZN11interpreter3svdEmc>:
     340:	83 5f       	subi	r24, 0xF3	; 243
     342:	9e 4f       	sbci	r25, 0xFE	; 254
     344:	fc 01       	movw	r30, r24
     346:	80 81       	ld	r24, Z
     348:	91 81       	ldd	r25, Z+1	; 0x01
     34a:	0e 94 18 0f 	call	0x1e30	; 0x1e30 <_ZN6memory5writeEmh>
     34e:	08 95       	ret

00000350 <_ZN11interpreter3svxEc>:
     350:	26 2f       	mov	r18, r22
     352:	fc 01       	movw	r30, r24
     354:	e1 50       	subi	r30, 0x01	; 1
     356:	ff 4f       	sbci	r31, 0xFF	; 255
     358:	a2 81       	ldd	r26, Z+2	; 0x02
     35a:	b3 81       	ldd	r27, Z+3	; 0x03
     35c:	4c 91       	ld	r20, X
     35e:	50 e0       	ldi	r21, 0x00	; 0
     360:	54 2f       	mov	r21, r20
     362:	44 27       	eor	r20, r20
     364:	01 90       	ld	r0, Z+
     366:	f0 81       	ld	r31, Z
     368:	e0 2d       	mov	r30, r0
     36a:	30 81       	ld	r19, Z
     36c:	43 2b       	or	r20, r19
     36e:	05 2e       	mov	r0, r21
     370:	00 0c       	add	r0, r0
     372:	66 0b       	sbc	r22, r22
     374:	77 0b       	sbc	r23, r23
     376:	fc 01       	movw	r30, r24
     378:	e3 5f       	subi	r30, 0xF3	; 243
     37a:	fe 4f       	sbci	r31, 0xFE	; 254
     37c:	80 81       	ld	r24, Z
     37e:	91 81       	ldd	r25, Z+1	; 0x01
     380:	0e 94 18 0f 	call	0x1e30	; 0x1e30 <_ZN6memory5writeEmh>
     384:	08 95       	ret

00000386 <_ZN11interpreter3svyEc>:
     386:	26 2f       	mov	r18, r22
     388:	fc 01       	movw	r30, r24
     38a:	ed 5f       	subi	r30, 0xFD	; 253
     38c:	fe 4f       	sbci	r31, 0xFE	; 254
     38e:	a2 81       	ldd	r26, Z+2	; 0x02
     390:	b3 81       	ldd	r27, Z+3	; 0x03
     392:	4c 91       	ld	r20, X
     394:	50 e0       	ldi	r21, 0x00	; 0
     396:	54 2f       	mov	r21, r20
     398:	44 27       	eor	r20, r20
     39a:	01 90       	ld	r0, Z+
     39c:	f0 81       	ld	r31, Z
     39e:	e0 2d       	mov	r30, r0
     3a0:	30 81       	ld	r19, Z
     3a2:	43 2b       	or	r20, r19
     3a4:	05 2e       	mov	r0, r21
     3a6:	00 0c       	add	r0, r0
     3a8:	66 0b       	sbc	r22, r22
     3aa:	77 0b       	sbc	r23, r23
     3ac:	fc 01       	movw	r30, r24
     3ae:	e3 5f       	subi	r30, 0xF3	; 243
     3b0:	fe 4f       	sbci	r31, 0xFE	; 254
     3b2:	80 81       	ld	r24, Z
     3b4:	91 81       	ldd	r25, Z+1	; 0x01
     3b6:	0e 94 18 0f 	call	0x1e30	; 0x1e30 <_ZN6memory5writeEmh>
     3ba:	08 95       	ret

000003bc <_ZN11interpreter3svzEc>:
     3bc:	26 2f       	mov	r18, r22
     3be:	fc 01       	movw	r30, r24
     3c0:	e9 5f       	subi	r30, 0xF9	; 249
     3c2:	fe 4f       	sbci	r31, 0xFE	; 254
     3c4:	a2 81       	ldd	r26, Z+2	; 0x02
     3c6:	b3 81       	ldd	r27, Z+3	; 0x03
     3c8:	4c 91       	ld	r20, X
     3ca:	50 e0       	ldi	r21, 0x00	; 0
     3cc:	54 2f       	mov	r21, r20
     3ce:	44 27       	eor	r20, r20
     3d0:	01 90       	ld	r0, Z+
     3d2:	f0 81       	ld	r31, Z
     3d4:	e0 2d       	mov	r30, r0
     3d6:	30 81       	ld	r19, Z
     3d8:	43 2b       	or	r20, r19
     3da:	05 2e       	mov	r0, r21
     3dc:	00 0c       	add	r0, r0
     3de:	66 0b       	sbc	r22, r22
     3e0:	77 0b       	sbc	r23, r23
     3e2:	fc 01       	movw	r30, r24
     3e4:	e3 5f       	subi	r30, 0xF3	; 243
     3e6:	fe 4f       	sbci	r31, 0xFE	; 254
     3e8:	80 81       	ld	r24, Z
     3ea:	91 81       	ldd	r25, Z+1	; 0x01
     3ec:	0e 94 18 0f 	call	0x1e30	; 0x1e30 <_ZN6memory5writeEmh>
     3f0:	08 95       	ret

000003f2 <_ZN11interpreter3txsEv>:
     3f2:	cf 93       	push	r28
     3f4:	df 93       	push	r29
     3f6:	dc 01       	movw	r26, r24
     3f8:	a1 5f       	subi	r26, 0xF1	; 241
     3fa:	be 4f       	sbci	r27, 0xFE	; 254
     3fc:	fc 01       	movw	r30, r24
     3fe:	e1 50       	subi	r30, 0x01	; 1
     400:	ff 4f       	sbci	r31, 0xFF	; 255
     402:	c2 81       	ldd	r28, Z+2	; 0x02
     404:	d3 81       	ldd	r29, Z+3	; 0x03
     406:	98 81       	ld	r25, Y
     408:	89 2f       	mov	r24, r25
     40a:	90 e0       	ldi	r25, 0x00	; 0
     40c:	98 2f       	mov	r25, r24
     40e:	88 27       	eor	r24, r24
     410:	01 90       	ld	r0, Z+
     412:	f0 81       	ld	r31, Z
     414:	e0 2d       	mov	r30, r0
     416:	20 81       	ld	r18, Z
     418:	82 2b       	or	r24, r18
     41a:	8d 93       	st	X+, r24
     41c:	9c 93       	st	X, r25
     41e:	df 91       	pop	r29
     420:	cf 91       	pop	r28
     422:	08 95       	ret

00000424 <_ZN11interpreter3txyEv>:
     424:	fc 01       	movw	r30, r24
     426:	e1 50       	subi	r30, 0x01	; 1
     428:	ff 4f       	sbci	r31, 0xFF	; 255
     42a:	a2 81       	ldd	r26, Z+2	; 0x02
     42c:	b3 81       	ldd	r27, Z+3	; 0x03
     42e:	4c 91       	ld	r20, X
     430:	50 e0       	ldi	r21, 0x00	; 0
     432:	54 2f       	mov	r21, r20
     434:	44 27       	eor	r20, r20
     436:	01 90       	ld	r0, Z+
     438:	f0 81       	ld	r31, Z
     43a:	e0 2d       	mov	r30, r0
     43c:	20 81       	ld	r18, Z
     43e:	42 2b       	or	r20, r18
     440:	05 2e       	mov	r0, r21
     442:	00 0c       	add	r0, r0
     444:	66 0b       	sbc	r22, r22
     446:	77 0b       	sbc	r23, r23
     448:	fc 01       	movw	r30, r24
     44a:	ed 5f       	subi	r30, 0xFD	; 253
     44c:	fe 4f       	sbci	r31, 0xFE	; 254
     44e:	a2 81       	ldd	r26, Z+2	; 0x02
     450:	b3 81       	ldd	r27, Z+3	; 0x03
     452:	5c 93       	st	X, r21
     454:	01 90       	ld	r0, Z+
     456:	f0 81       	ld	r31, Z
     458:	e0 2d       	mov	r30, r0
     45a:	40 83       	st	Z, r20
     45c:	08 95       	ret

0000045e <_ZN11interpreter3txzEv>:
     45e:	fc 01       	movw	r30, r24
     460:	e1 50       	subi	r30, 0x01	; 1
     462:	ff 4f       	sbci	r31, 0xFF	; 255
     464:	a2 81       	ldd	r26, Z+2	; 0x02
     466:	b3 81       	ldd	r27, Z+3	; 0x03
     468:	4c 91       	ld	r20, X
     46a:	50 e0       	ldi	r21, 0x00	; 0
     46c:	54 2f       	mov	r21, r20
     46e:	44 27       	eor	r20, r20
     470:	01 90       	ld	r0, Z+
     472:	f0 81       	ld	r31, Z
     474:	e0 2d       	mov	r30, r0
     476:	20 81       	ld	r18, Z
     478:	42 2b       	or	r20, r18
     47a:	05 2e       	mov	r0, r21
     47c:	00 0c       	add	r0, r0
     47e:	66 0b       	sbc	r22, r22
     480:	77 0b       	sbc	r23, r23
     482:	fc 01       	movw	r30, r24
     484:	e9 5f       	subi	r30, 0xF9	; 249
     486:	fe 4f       	sbci	r31, 0xFE	; 254
     488:	a2 81       	ldd	r26, Z+2	; 0x02
     48a:	b3 81       	ldd	r27, Z+3	; 0x03
     48c:	5c 93       	st	X, r21
     48e:	01 90       	ld	r0, Z+
     490:	f0 81       	ld	r31, Z
     492:	e0 2d       	mov	r30, r0
     494:	40 83       	st	Z, r20
     496:	08 95       	ret

00000498 <_ZN11interpreter3tysEv>:
     498:	cf 93       	push	r28
     49a:	df 93       	push	r29
     49c:	dc 01       	movw	r26, r24
     49e:	a1 5f       	subi	r26, 0xF1	; 241
     4a0:	be 4f       	sbci	r27, 0xFE	; 254
     4a2:	fc 01       	movw	r30, r24
     4a4:	ed 5f       	subi	r30, 0xFD	; 253
     4a6:	fe 4f       	sbci	r31, 0xFE	; 254
     4a8:	c2 81       	ldd	r28, Z+2	; 0x02
     4aa:	d3 81       	ldd	r29, Z+3	; 0x03
     4ac:	98 81       	ld	r25, Y
     4ae:	89 2f       	mov	r24, r25
     4b0:	90 e0       	ldi	r25, 0x00	; 0
     4b2:	98 2f       	mov	r25, r24
     4b4:	88 27       	eor	r24, r24
     4b6:	01 90       	ld	r0, Z+
     4b8:	f0 81       	ld	r31, Z
     4ba:	e0 2d       	mov	r30, r0
     4bc:	20 81       	ld	r18, Z
     4be:	82 2b       	or	r24, r18
     4c0:	8d 93       	st	X+, r24
     4c2:	9c 93       	st	X, r25
     4c4:	df 91       	pop	r29
     4c6:	cf 91       	pop	r28
     4c8:	08 95       	ret

000004ca <_ZN11interpreter3tyxEv>:
     4ca:	fc 01       	movw	r30, r24
     4cc:	ed 5f       	subi	r30, 0xFD	; 253
     4ce:	fe 4f       	sbci	r31, 0xFE	; 254
     4d0:	a2 81       	ldd	r26, Z+2	; 0x02
     4d2:	b3 81       	ldd	r27, Z+3	; 0x03
     4d4:	4c 91       	ld	r20, X
     4d6:	50 e0       	ldi	r21, 0x00	; 0
     4d8:	54 2f       	mov	r21, r20
     4da:	44 27       	eor	r20, r20
     4dc:	01 90       	ld	r0, Z+
     4de:	f0 81       	ld	r31, Z
     4e0:	e0 2d       	mov	r30, r0
     4e2:	20 81       	ld	r18, Z
     4e4:	42 2b       	or	r20, r18
     4e6:	05 2e       	mov	r0, r21
     4e8:	00 0c       	add	r0, r0
     4ea:	66 0b       	sbc	r22, r22
     4ec:	77 0b       	sbc	r23, r23
     4ee:	fc 01       	movw	r30, r24
     4f0:	e1 50       	subi	r30, 0x01	; 1
     4f2:	ff 4f       	sbci	r31, 0xFF	; 255
     4f4:	a2 81       	ldd	r26, Z+2	; 0x02
     4f6:	b3 81       	ldd	r27, Z+3	; 0x03
     4f8:	5c 93       	st	X, r21
     4fa:	01 90       	ld	r0, Z+
     4fc:	f0 81       	ld	r31, Z
     4fe:	e0 2d       	mov	r30, r0
     500:	40 83       	st	Z, r20
     502:	08 95       	ret

00000504 <_ZN11interpreter3tyzEv>:
     504:	fc 01       	movw	r30, r24
     506:	ed 5f       	subi	r30, 0xFD	; 253
     508:	fe 4f       	sbci	r31, 0xFE	; 254
     50a:	a2 81       	ldd	r26, Z+2	; 0x02
     50c:	b3 81       	ldd	r27, Z+3	; 0x03
     50e:	4c 91       	ld	r20, X
     510:	50 e0       	ldi	r21, 0x00	; 0
     512:	54 2f       	mov	r21, r20
     514:	44 27       	eor	r20, r20
     516:	01 90       	ld	r0, Z+
     518:	f0 81       	ld	r31, Z
     51a:	e0 2d       	mov	r30, r0
     51c:	20 81       	ld	r18, Z
     51e:	42 2b       	or	r20, r18
     520:	05 2e       	mov	r0, r21
     522:	00 0c       	add	r0, r0
     524:	66 0b       	sbc	r22, r22
     526:	77 0b       	sbc	r23, r23
     528:	fc 01       	movw	r30, r24
     52a:	e9 5f       	subi	r30, 0xF9	; 249
     52c:	fe 4f       	sbci	r31, 0xFE	; 254
     52e:	a2 81       	ldd	r26, Z+2	; 0x02
     530:	b3 81       	ldd	r27, Z+3	; 0x03
     532:	5c 93       	st	X, r21
     534:	01 90       	ld	r0, Z+
     536:	f0 81       	ld	r31, Z
     538:	e0 2d       	mov	r30, r0
     53a:	40 83       	st	Z, r20
     53c:	08 95       	ret

0000053e <_ZN11interpreter3tzsEv>:
     53e:	cf 93       	push	r28
     540:	df 93       	push	r29
     542:	dc 01       	movw	r26, r24
     544:	a1 5f       	subi	r26, 0xF1	; 241
     546:	be 4f       	sbci	r27, 0xFE	; 254
     548:	fc 01       	movw	r30, r24
     54a:	e9 5f       	subi	r30, 0xF9	; 249
     54c:	fe 4f       	sbci	r31, 0xFE	; 254
     54e:	c2 81       	ldd	r28, Z+2	; 0x02
     550:	d3 81       	ldd	r29, Z+3	; 0x03
     552:	98 81       	ld	r25, Y
     554:	89 2f       	mov	r24, r25
     556:	90 e0       	ldi	r25, 0x00	; 0
     558:	98 2f       	mov	r25, r24
     55a:	88 27       	eor	r24, r24
     55c:	01 90       	ld	r0, Z+
     55e:	f0 81       	ld	r31, Z
     560:	e0 2d       	mov	r30, r0
     562:	20 81       	ld	r18, Z
     564:	82 2b       	or	r24, r18
     566:	8d 93       	st	X+, r24
     568:	9c 93       	st	X, r25
     56a:	df 91       	pop	r29
     56c:	cf 91       	pop	r28
     56e:	08 95       	ret

00000570 <_ZN11interpreter3tzxEv>:
     570:	fc 01       	movw	r30, r24
     572:	e9 5f       	subi	r30, 0xF9	; 249
     574:	fe 4f       	sbci	r31, 0xFE	; 254
     576:	a2 81       	ldd	r26, Z+2	; 0x02
     578:	b3 81       	ldd	r27, Z+3	; 0x03
     57a:	4c 91       	ld	r20, X
     57c:	50 e0       	ldi	r21, 0x00	; 0
     57e:	54 2f       	mov	r21, r20
     580:	44 27       	eor	r20, r20
     582:	01 90       	ld	r0, Z+
     584:	f0 81       	ld	r31, Z
     586:	e0 2d       	mov	r30, r0
     588:	20 81       	ld	r18, Z
     58a:	42 2b       	or	r20, r18
     58c:	05 2e       	mov	r0, r21
     58e:	00 0c       	add	r0, r0
     590:	66 0b       	sbc	r22, r22
     592:	77 0b       	sbc	r23, r23
     594:	fc 01       	movw	r30, r24
     596:	e1 50       	subi	r30, 0x01	; 1
     598:	ff 4f       	sbci	r31, 0xFF	; 255
     59a:	a2 81       	ldd	r26, Z+2	; 0x02
     59c:	b3 81       	ldd	r27, Z+3	; 0x03
     59e:	5c 93       	st	X, r21
     5a0:	01 90       	ld	r0, Z+
     5a2:	f0 81       	ld	r31, Z
     5a4:	e0 2d       	mov	r30, r0
     5a6:	40 83       	st	Z, r20
     5a8:	08 95       	ret

000005aa <_ZN11interpreter3tzyEv>:
     5aa:	fc 01       	movw	r30, r24
     5ac:	e9 5f       	subi	r30, 0xF9	; 249
     5ae:	fe 4f       	sbci	r31, 0xFE	; 254
     5b0:	a2 81       	ldd	r26, Z+2	; 0x02
     5b2:	b3 81       	ldd	r27, Z+3	; 0x03
     5b4:	4c 91       	ld	r20, X
     5b6:	50 e0       	ldi	r21, 0x00	; 0
     5b8:	54 2f       	mov	r21, r20
     5ba:	44 27       	eor	r20, r20
     5bc:	01 90       	ld	r0, Z+
     5be:	f0 81       	ld	r31, Z
     5c0:	e0 2d       	mov	r30, r0
     5c2:	20 81       	ld	r18, Z
     5c4:	42 2b       	or	r20, r18
     5c6:	05 2e       	mov	r0, r21
     5c8:	00 0c       	add	r0, r0
     5ca:	66 0b       	sbc	r22, r22
     5cc:	77 0b       	sbc	r23, r23
     5ce:	fc 01       	movw	r30, r24
     5d0:	ed 5f       	subi	r30, 0xFD	; 253
     5d2:	fe 4f       	sbci	r31, 0xFE	; 254
     5d4:	a2 81       	ldd	r26, Z+2	; 0x02
     5d6:	b3 81       	ldd	r27, Z+3	; 0x03
     5d8:	5c 93       	st	X, r21
     5da:	01 90       	ld	r0, Z+
     5dc:	f0 81       	ld	r31, Z
     5de:	e0 2d       	mov	r30, r0
     5e0:	40 83       	st	Z, r20
     5e2:	08 95       	ret

000005e4 <_ZN11interpreter3tsxEv>:
     5e4:	fc 01       	movw	r30, r24
     5e6:	e1 5f       	subi	r30, 0xF1	; 241
     5e8:	fe 4f       	sbci	r31, 0xFE	; 254
     5ea:	20 81       	ld	r18, Z
     5ec:	31 81       	ldd	r19, Z+1	; 0x01
     5ee:	70 97       	sbiw	r30, 0x10	; 16
     5f0:	a2 81       	ldd	r26, Z+2	; 0x02
     5f2:	b3 81       	ldd	r27, Z+3	; 0x03
     5f4:	a9 01       	movw	r20, r18
     5f6:	5c 93       	st	X, r21
     5f8:	01 90       	ld	r0, Z+
     5fa:	f0 81       	ld	r31, Z
     5fc:	e0 2d       	mov	r30, r0
     5fe:	20 83       	st	Z, r18
     600:	08 95       	ret

00000602 <_ZN11interpreter3tsyEv>:
     602:	fc 01       	movw	r30, r24
     604:	e1 5f       	subi	r30, 0xF1	; 241
     606:	fe 4f       	sbci	r31, 0xFE	; 254
     608:	20 81       	ld	r18, Z
     60a:	31 81       	ldd	r19, Z+1	; 0x01
     60c:	3c 97       	sbiw	r30, 0x0c	; 12
     60e:	a2 81       	ldd	r26, Z+2	; 0x02
     610:	b3 81       	ldd	r27, Z+3	; 0x03
     612:	a9 01       	movw	r20, r18
     614:	5c 93       	st	X, r21
     616:	01 90       	ld	r0, Z+
     618:	f0 81       	ld	r31, Z
     61a:	e0 2d       	mov	r30, r0
     61c:	20 83       	st	Z, r18
     61e:	08 95       	ret

00000620 <_ZN11interpreter3tszEv>:
     620:	fc 01       	movw	r30, r24
     622:	e1 5f       	subi	r30, 0xF1	; 241
     624:	fe 4f       	sbci	r31, 0xFE	; 254
     626:	20 81       	ld	r18, Z
     628:	31 81       	ldd	r19, Z+1	; 0x01
     62a:	38 97       	sbiw	r30, 0x08	; 8
     62c:	a2 81       	ldd	r26, Z+2	; 0x02
     62e:	b3 81       	ldd	r27, Z+3	; 0x03
     630:	a9 01       	movw	r20, r18
     632:	5c 93       	st	X, r21
     634:	01 90       	ld	r0, Z+
     636:	f0 81       	ld	r31, Z
     638:	e0 2d       	mov	r30, r0
     63a:	20 83       	st	Z, r18
     63c:	08 95       	ret

0000063e <_ZN11interpreter3cmpEcc>:
     63e:	64 13       	cpse	r22, r20
     640:	07 c0       	rjmp	.+14     	; 0x650 <_ZN11interpreter3cmpEcc+0x12>
     642:	fc 01       	movw	r30, r24
     644:	e5 5e       	subi	r30, 0xE5	; 229
     646:	fe 4f       	sbci	r31, 0xFE	; 254
     648:	80 81       	ld	r24, Z
     64a:	88 60       	ori	r24, 0x08	; 8
     64c:	80 83       	st	Z, r24
     64e:	08 95       	ret
     650:	46 17       	cp	r20, r22
     652:	30 f4       	brcc	.+12     	; 0x660 <_ZN11interpreter3cmpEcc+0x22>
     654:	fc 01       	movw	r30, r24
     656:	e5 5e       	subi	r30, 0xE5	; 229
     658:	fe 4f       	sbci	r31, 0xFE	; 254
     65a:	20 81       	ld	r18, Z
     65c:	22 60       	ori	r18, 0x02	; 2
     65e:	20 83       	st	Z, r18
     660:	64 17       	cp	r22, r20
     662:	30 f4       	brcc	.+12     	; 0x670 <_ZN11interpreter3cmpEcc+0x32>
     664:	fc 01       	movw	r30, r24
     666:	e5 5e       	subi	r30, 0xE5	; 229
     668:	fe 4f       	sbci	r31, 0xFE	; 254
     66a:	80 81       	ld	r24, Z
     66c:	84 60       	ori	r24, 0x04	; 4
     66e:	80 83       	st	Z, r24
     670:	08 95       	ret

00000672 <_ZN11interpreter3cpiEcc>:
     672:	64 13       	cpse	r22, r20
     674:	07 c0       	rjmp	.+14     	; 0x684 <_ZN11interpreter3cpiEcc+0x12>
     676:	fc 01       	movw	r30, r24
     678:	e5 5e       	subi	r30, 0xE5	; 229
     67a:	fe 4f       	sbci	r31, 0xFE	; 254
     67c:	80 81       	ld	r24, Z
     67e:	88 60       	ori	r24, 0x08	; 8
     680:	80 83       	st	Z, r24
     682:	08 95       	ret
     684:	46 17       	cp	r20, r22
     686:	30 f4       	brcc	.+12     	; 0x694 <_ZN11interpreter3cpiEcc+0x22>
     688:	fc 01       	movw	r30, r24
     68a:	e5 5e       	subi	r30, 0xE5	; 229
     68c:	fe 4f       	sbci	r31, 0xFE	; 254
     68e:	20 81       	ld	r18, Z
     690:	22 60       	ori	r18, 0x02	; 2
     692:	20 83       	st	Z, r18
     694:	64 17       	cp	r22, r20
     696:	30 f4       	brcc	.+12     	; 0x6a4 <_ZN11interpreter3cpiEcc+0x32>
     698:	fc 01       	movw	r30, r24
     69a:	e5 5e       	subi	r30, 0xE5	; 229
     69c:	fe 4f       	sbci	r31, 0xFE	; 254
     69e:	80 81       	ld	r24, Z
     6a0:	84 60       	ori	r24, 0x04	; 4
     6a2:	80 83       	st	Z, r24
     6a4:	08 95       	ret

000006a6 <_ZN11interpreter3cpmEcm>:
     6a6:	1f 93       	push	r17
     6a8:	cf 93       	push	r28
     6aa:	df 93       	push	r29
     6ac:	ec 01       	movw	r28, r24
     6ae:	16 2f       	mov	r17, r22
     6b0:	ba 01       	movw	r22, r20
     6b2:	a9 01       	movw	r20, r18
     6b4:	fc 01       	movw	r30, r24
     6b6:	e5 5f       	subi	r30, 0xF5	; 245
     6b8:	fe 4f       	sbci	r31, 0xFE	; 254
     6ba:	80 81       	ld	r24, Z
     6bc:	91 81       	ldd	r25, Z+1	; 0x01
     6be:	0e 94 36 0f 	call	0x1e6c	; 0x1e6c <_ZN6memory4readEm>
     6c2:	81 13       	cpse	r24, r17
     6c4:	06 c0       	rjmp	.+12     	; 0x6d2 <_ZN11interpreter3cpmEcm+0x2c>
     6c6:	c5 5e       	subi	r28, 0xE5	; 229
     6c8:	de 4f       	sbci	r29, 0xFE	; 254
     6ca:	88 81       	ld	r24, Y
     6cc:	88 60       	ori	r24, 0x08	; 8
     6ce:	88 83       	st	Y, r24
     6d0:	0f c0       	rjmp	.+30     	; 0x6f0 <_ZN11interpreter3cpmEcm+0x4a>
     6d2:	81 17       	cp	r24, r17
     6d4:	30 f4       	brcc	.+12     	; 0x6e2 <_ZN11interpreter3cpmEcm+0x3c>
     6d6:	fe 01       	movw	r30, r28
     6d8:	e5 5e       	subi	r30, 0xE5	; 229
     6da:	fe 4f       	sbci	r31, 0xFE	; 254
     6dc:	90 81       	ld	r25, Z
     6de:	92 60       	ori	r25, 0x02	; 2
     6e0:	90 83       	st	Z, r25
     6e2:	18 17       	cp	r17, r24
     6e4:	28 f4       	brcc	.+10     	; 0x6f0 <_ZN11interpreter3cpmEcm+0x4a>
     6e6:	c5 5e       	subi	r28, 0xE5	; 229
     6e8:	de 4f       	sbci	r29, 0xFE	; 254
     6ea:	88 81       	ld	r24, Y
     6ec:	84 60       	ori	r24, 0x04	; 4
     6ee:	88 83       	st	Y, r24
     6f0:	df 91       	pop	r29
     6f2:	cf 91       	pop	r28
     6f4:	1f 91       	pop	r17
     6f6:	08 95       	ret

000006f8 <_ZN11interpreter3cpmEmm>:
     6f8:	8f 92       	push	r8
     6fa:	9f 92       	push	r9
     6fc:	af 92       	push	r10
     6fe:	bf 92       	push	r11
     700:	ef 92       	push	r14
     702:	ff 92       	push	r15
     704:	0f 93       	push	r16
     706:	1f 93       	push	r17
     708:	cf 93       	push	r28
     70a:	df 93       	push	r29
     70c:	ec 01       	movw	r28, r24
     70e:	48 01       	movw	r8, r16
     710:	59 01       	movw	r10, r18
     712:	7c 01       	movw	r14, r24
     714:	85 ef       	ldi	r24, 0xF5	; 245
     716:	e8 1a       	sub	r14, r24
     718:	8e ef       	ldi	r24, 0xFE	; 254
     71a:	f8 0a       	sbc	r15, r24
     71c:	f7 01       	movw	r30, r14
     71e:	80 81       	ld	r24, Z
     720:	91 81       	ldd	r25, Z+1	; 0x01
     722:	0e 94 36 0f 	call	0x1e6c	; 0x1e6c <_ZN6memory4readEm>
     726:	18 2f       	mov	r17, r24
     728:	b5 01       	movw	r22, r10
     72a:	a4 01       	movw	r20, r8
     72c:	f7 01       	movw	r30, r14
     72e:	80 81       	ld	r24, Z
     730:	91 81       	ldd	r25, Z+1	; 0x01
     732:	0e 94 36 0f 	call	0x1e6c	; 0x1e6c <_ZN6memory4readEm>
     736:	18 13       	cpse	r17, r24
     738:	06 c0       	rjmp	.+12     	; 0x746 <_ZN11interpreter3cpmEmm+0x4e>
     73a:	c5 5e       	subi	r28, 0xE5	; 229
     73c:	de 4f       	sbci	r29, 0xFE	; 254
     73e:	88 81       	ld	r24, Y
     740:	88 60       	ori	r24, 0x08	; 8
     742:	88 83       	st	Y, r24
     744:	0f c0       	rjmp	.+30     	; 0x764 <_ZN11interpreter3cpmEmm+0x6c>
     746:	81 17       	cp	r24, r17
     748:	30 f4       	brcc	.+12     	; 0x756 <_ZN11interpreter3cpmEmm+0x5e>
     74a:	fe 01       	movw	r30, r28
     74c:	e5 5e       	subi	r30, 0xE5	; 229
     74e:	fe 4f       	sbci	r31, 0xFE	; 254
     750:	90 81       	ld	r25, Z
     752:	92 60       	ori	r25, 0x02	; 2
     754:	90 83       	st	Z, r25
     756:	18 17       	cp	r17, r24
     758:	28 f4       	brcc	.+10     	; 0x764 <_ZN11interpreter3cpmEmm+0x6c>
     75a:	c5 5e       	subi	r28, 0xE5	; 229
     75c:	de 4f       	sbci	r29, 0xFE	; 254
     75e:	88 81       	ld	r24, Y
     760:	84 60       	ori	r24, 0x04	; 4
     762:	88 83       	st	Y, r24
     764:	df 91       	pop	r29
     766:	cf 91       	pop	r28
     768:	1f 91       	pop	r17
     76a:	0f 91       	pop	r16
     76c:	ff 90       	pop	r15
     76e:	ef 90       	pop	r14
     770:	bf 90       	pop	r11
     772:	af 90       	pop	r10
     774:	9f 90       	pop	r9
     776:	8f 90       	pop	r8
     778:	08 95       	ret

0000077a <_ZN11interpreter4breqEm>:
     77a:	fc 01       	movw	r30, r24
     77c:	e5 5e       	subi	r30, 0xE5	; 229
     77e:	fe 4f       	sbci	r31, 0xFE	; 254
     780:	20 81       	ld	r18, Z
     782:	23 ff       	sbrs	r18, 3
     784:	05 c0       	rjmp	.+10     	; 0x790 <_ZN11interpreter4breqEm+0x16>
     786:	3a 97       	sbiw	r30, 0x0a	; 10
     788:	40 83       	st	Z, r20
     78a:	51 83       	std	Z+1, r21	; 0x01
     78c:	62 83       	std	Z+2, r22	; 0x02
     78e:	73 83       	std	Z+3, r23	; 0x03
     790:	08 95       	ret

00000792 <_ZN11interpreter7breqpcfEm>:
     792:	fc 01       	movw	r30, r24
     794:	e5 5e       	subi	r30, 0xE5	; 229
     796:	fe 4f       	sbci	r31, 0xFE	; 254
     798:	20 81       	ld	r18, Z
     79a:	23 ff       	sbrs	r18, 3
     79c:	0d c0       	rjmp	.+26     	; 0x7b8 <_ZN11interpreter7breqpcfEm+0x26>
     79e:	3a 97       	sbiw	r30, 0x0a	; 10
     7a0:	80 81       	ld	r24, Z
     7a2:	91 81       	ldd	r25, Z+1	; 0x01
     7a4:	a2 81       	ldd	r26, Z+2	; 0x02
     7a6:	b3 81       	ldd	r27, Z+3	; 0x03
     7a8:	48 0f       	add	r20, r24
     7aa:	59 1f       	adc	r21, r25
     7ac:	6a 1f       	adc	r22, r26
     7ae:	7b 1f       	adc	r23, r27
     7b0:	40 83       	st	Z, r20
     7b2:	51 83       	std	Z+1, r21	; 0x01
     7b4:	62 83       	std	Z+2, r22	; 0x02
     7b6:	73 83       	std	Z+3, r23	; 0x03
     7b8:	08 95       	ret

000007ba <_ZN11interpreter7breqpcbEm>:
     7ba:	fc 01       	movw	r30, r24
     7bc:	e5 5e       	subi	r30, 0xE5	; 229
     7be:	fe 4f       	sbci	r31, 0xFE	; 254
     7c0:	20 81       	ld	r18, Z
     7c2:	23 ff       	sbrs	r18, 3
     7c4:	0d c0       	rjmp	.+26     	; 0x7e0 <_ZN11interpreter7breqpcbEm+0x26>
     7c6:	3a 97       	sbiw	r30, 0x0a	; 10
     7c8:	80 81       	ld	r24, Z
     7ca:	91 81       	ldd	r25, Z+1	; 0x01
     7cc:	a2 81       	ldd	r26, Z+2	; 0x02
     7ce:	b3 81       	ldd	r27, Z+3	; 0x03
     7d0:	84 1b       	sub	r24, r20
     7d2:	95 0b       	sbc	r25, r21
     7d4:	a6 0b       	sbc	r26, r22
     7d6:	b7 0b       	sbc	r27, r23
     7d8:	80 83       	st	Z, r24
     7da:	91 83       	std	Z+1, r25	; 0x01
     7dc:	a2 83       	std	Z+2, r26	; 0x02
     7de:	b3 83       	std	Z+3, r27	; 0x03
     7e0:	08 95       	ret

000007e2 <_ZN11interpreter4brneEm>:
     7e2:	fc 01       	movw	r30, r24
     7e4:	e5 5e       	subi	r30, 0xE5	; 229
     7e6:	fe 4f       	sbci	r31, 0xFE	; 254
     7e8:	20 81       	ld	r18, Z
     7ea:	30 e0       	ldi	r19, 0x00	; 0
     7ec:	f9 01       	movw	r30, r18
     7ee:	f5 95       	asr	r31
     7f0:	e7 95       	ror	r30
     7f2:	f5 95       	asr	r31
     7f4:	e7 95       	ror	r30
     7f6:	f5 95       	asr	r31
     7f8:	e7 95       	ror	r30
     7fa:	e0 fd       	sbrc	r30, 0
     7fc:	12 c0       	rjmp	.+36     	; 0x822 <_ZN11interpreter4brneEm+0x40>
     7fe:	f9 01       	movw	r30, r18
     800:	f5 95       	asr	r31
     802:	e7 95       	ror	r30
     804:	e0 fd       	sbrc	r30, 0
     806:	06 c0       	rjmp	.+12     	; 0x814 <_ZN11interpreter4brneEm+0x32>
     808:	35 95       	asr	r19
     80a:	27 95       	ror	r18
     80c:	35 95       	asr	r19
     80e:	27 95       	ror	r18
     810:	20 ff       	sbrs	r18, 0
     812:	07 c0       	rjmp	.+14     	; 0x822 <_ZN11interpreter4brneEm+0x40>
     814:	fc 01       	movw	r30, r24
     816:	ef 5e       	subi	r30, 0xEF	; 239
     818:	fe 4f       	sbci	r31, 0xFE	; 254
     81a:	40 83       	st	Z, r20
     81c:	51 83       	std	Z+1, r21	; 0x01
     81e:	62 83       	std	Z+2, r22	; 0x02
     820:	73 83       	std	Z+3, r23	; 0x03
     822:	08 95       	ret

00000824 <_ZN11interpreter7brnepcfEm>:
     824:	fc 01       	movw	r30, r24
     826:	e5 5e       	subi	r30, 0xE5	; 229
     828:	fe 4f       	sbci	r31, 0xFE	; 254
     82a:	20 81       	ld	r18, Z
     82c:	30 e0       	ldi	r19, 0x00	; 0
     82e:	f9 01       	movw	r30, r18
     830:	f5 95       	asr	r31
     832:	e7 95       	ror	r30
     834:	f5 95       	asr	r31
     836:	e7 95       	ror	r30
     838:	f5 95       	asr	r31
     83a:	e7 95       	ror	r30
     83c:	e0 fd       	sbrc	r30, 0
     83e:	1a c0       	rjmp	.+52     	; 0x874 <_ZN11interpreter7brnepcfEm+0x50>
     840:	f9 01       	movw	r30, r18
     842:	f5 95       	asr	r31
     844:	e7 95       	ror	r30
     846:	e0 fd       	sbrc	r30, 0
     848:	06 c0       	rjmp	.+12     	; 0x856 <_ZN11interpreter7brnepcfEm+0x32>
     84a:	35 95       	asr	r19
     84c:	27 95       	ror	r18
     84e:	35 95       	asr	r19
     850:	27 95       	ror	r18
     852:	20 ff       	sbrs	r18, 0
     854:	0f c0       	rjmp	.+30     	; 0x874 <_ZN11interpreter7brnepcfEm+0x50>
     856:	fc 01       	movw	r30, r24
     858:	ef 5e       	subi	r30, 0xEF	; 239
     85a:	fe 4f       	sbci	r31, 0xFE	; 254
     85c:	80 81       	ld	r24, Z
     85e:	91 81       	ldd	r25, Z+1	; 0x01
     860:	a2 81       	ldd	r26, Z+2	; 0x02
     862:	b3 81       	ldd	r27, Z+3	; 0x03
     864:	48 0f       	add	r20, r24
     866:	59 1f       	adc	r21, r25
     868:	6a 1f       	adc	r22, r26
     86a:	7b 1f       	adc	r23, r27
     86c:	40 83       	st	Z, r20
     86e:	51 83       	std	Z+1, r21	; 0x01
     870:	62 83       	std	Z+2, r22	; 0x02
     872:	73 83       	std	Z+3, r23	; 0x03
     874:	08 95       	ret

00000876 <_ZN11interpreter7brnepcbEm>:
     876:	fc 01       	movw	r30, r24
     878:	e5 5e       	subi	r30, 0xE5	; 229
     87a:	fe 4f       	sbci	r31, 0xFE	; 254
     87c:	20 81       	ld	r18, Z
     87e:	30 e0       	ldi	r19, 0x00	; 0
     880:	f9 01       	movw	r30, r18
     882:	f5 95       	asr	r31
     884:	e7 95       	ror	r30
     886:	f5 95       	asr	r31
     888:	e7 95       	ror	r30
     88a:	f5 95       	asr	r31
     88c:	e7 95       	ror	r30
     88e:	e0 fd       	sbrc	r30, 0
     890:	1a c0       	rjmp	.+52     	; 0x8c6 <_ZN11interpreter7brnepcbEm+0x50>
     892:	f9 01       	movw	r30, r18
     894:	f5 95       	asr	r31
     896:	e7 95       	ror	r30
     898:	e0 fd       	sbrc	r30, 0
     89a:	06 c0       	rjmp	.+12     	; 0x8a8 <_ZN11interpreter7brnepcbEm+0x32>
     89c:	35 95       	asr	r19
     89e:	27 95       	ror	r18
     8a0:	35 95       	asr	r19
     8a2:	27 95       	ror	r18
     8a4:	20 ff       	sbrs	r18, 0
     8a6:	0f c0       	rjmp	.+30     	; 0x8c6 <_ZN11interpreter7brnepcbEm+0x50>
     8a8:	fc 01       	movw	r30, r24
     8aa:	ef 5e       	subi	r30, 0xEF	; 239
     8ac:	fe 4f       	sbci	r31, 0xFE	; 254
     8ae:	80 81       	ld	r24, Z
     8b0:	91 81       	ldd	r25, Z+1	; 0x01
     8b2:	a2 81       	ldd	r26, Z+2	; 0x02
     8b4:	b3 81       	ldd	r27, Z+3	; 0x03
     8b6:	84 1b       	sub	r24, r20
     8b8:	95 0b       	sbc	r25, r21
     8ba:	a6 0b       	sbc	r26, r22
     8bc:	b7 0b       	sbc	r27, r23
     8be:	80 83       	st	Z, r24
     8c0:	91 83       	std	Z+1, r25	; 0x01
     8c2:	a2 83       	std	Z+2, r26	; 0x02
     8c4:	b3 83       	std	Z+3, r27	; 0x03
     8c6:	08 95       	ret

000008c8 <_ZN11interpreter4brgeEm>:
     8c8:	fc 01       	movw	r30, r24
     8ca:	e5 5e       	subi	r30, 0xE5	; 229
     8cc:	fe 4f       	sbci	r31, 0xFE	; 254
     8ce:	20 81       	ld	r18, Z
     8d0:	30 e0       	ldi	r19, 0x00	; 0
     8d2:	f9 01       	movw	r30, r18
     8d4:	f5 95       	asr	r31
     8d6:	e7 95       	ror	r30
     8d8:	f5 95       	asr	r31
     8da:	e7 95       	ror	r30
     8dc:	f5 95       	asr	r31
     8de:	e7 95       	ror	r30
     8e0:	35 95       	asr	r19
     8e2:	27 95       	ror	r18
     8e4:	2e 2b       	or	r18, r30
     8e6:	3f 2b       	or	r19, r31
     8e8:	20 ff       	sbrs	r18, 0
     8ea:	07 c0       	rjmp	.+14     	; 0x8fa <_ZN11interpreter4brgeEm+0x32>
     8ec:	fc 01       	movw	r30, r24
     8ee:	ef 5e       	subi	r30, 0xEF	; 239
     8f0:	fe 4f       	sbci	r31, 0xFE	; 254
     8f2:	40 83       	st	Z, r20
     8f4:	51 83       	std	Z+1, r21	; 0x01
     8f6:	62 83       	std	Z+2, r22	; 0x02
     8f8:	73 83       	std	Z+3, r23	; 0x03
     8fa:	08 95       	ret

000008fc <_ZN11interpreter7brgepcfEm>:
     8fc:	fc 01       	movw	r30, r24
     8fe:	e5 5e       	subi	r30, 0xE5	; 229
     900:	fe 4f       	sbci	r31, 0xFE	; 254
     902:	20 81       	ld	r18, Z
     904:	30 e0       	ldi	r19, 0x00	; 0
     906:	f9 01       	movw	r30, r18
     908:	f5 95       	asr	r31
     90a:	e7 95       	ror	r30
     90c:	f5 95       	asr	r31
     90e:	e7 95       	ror	r30
     910:	f5 95       	asr	r31
     912:	e7 95       	ror	r30
     914:	35 95       	asr	r19
     916:	27 95       	ror	r18
     918:	2e 2b       	or	r18, r30
     91a:	3f 2b       	or	r19, r31
     91c:	20 ff       	sbrs	r18, 0
     91e:	0f c0       	rjmp	.+30     	; 0x93e <_ZN11interpreter7brgepcfEm+0x42>
     920:	fc 01       	movw	r30, r24
     922:	ef 5e       	subi	r30, 0xEF	; 239
     924:	fe 4f       	sbci	r31, 0xFE	; 254
     926:	80 81       	ld	r24, Z
     928:	91 81       	ldd	r25, Z+1	; 0x01
     92a:	a2 81       	ldd	r26, Z+2	; 0x02
     92c:	b3 81       	ldd	r27, Z+3	; 0x03
     92e:	48 0f       	add	r20, r24
     930:	59 1f       	adc	r21, r25
     932:	6a 1f       	adc	r22, r26
     934:	7b 1f       	adc	r23, r27
     936:	40 83       	st	Z, r20
     938:	51 83       	std	Z+1, r21	; 0x01
     93a:	62 83       	std	Z+2, r22	; 0x02
     93c:	73 83       	std	Z+3, r23	; 0x03
     93e:	08 95       	ret

00000940 <_ZN11interpreter7brgepcbEm>:
     940:	fc 01       	movw	r30, r24
     942:	e5 5e       	subi	r30, 0xE5	; 229
     944:	fe 4f       	sbci	r31, 0xFE	; 254
     946:	20 81       	ld	r18, Z
     948:	30 e0       	ldi	r19, 0x00	; 0
     94a:	f9 01       	movw	r30, r18
     94c:	f5 95       	asr	r31
     94e:	e7 95       	ror	r30
     950:	f5 95       	asr	r31
     952:	e7 95       	ror	r30
     954:	f5 95       	asr	r31
     956:	e7 95       	ror	r30
     958:	35 95       	asr	r19
     95a:	27 95       	ror	r18
     95c:	2e 2b       	or	r18, r30
     95e:	3f 2b       	or	r19, r31
     960:	20 ff       	sbrs	r18, 0
     962:	0f c0       	rjmp	.+30     	; 0x982 <_ZN11interpreter7brgepcbEm+0x42>
     964:	fc 01       	movw	r30, r24
     966:	ef 5e       	subi	r30, 0xEF	; 239
     968:	fe 4f       	sbci	r31, 0xFE	; 254
     96a:	80 81       	ld	r24, Z
     96c:	91 81       	ldd	r25, Z+1	; 0x01
     96e:	a2 81       	ldd	r26, Z+2	; 0x02
     970:	b3 81       	ldd	r27, Z+3	; 0x03
     972:	84 1b       	sub	r24, r20
     974:	95 0b       	sbc	r25, r21
     976:	a6 0b       	sbc	r26, r22
     978:	b7 0b       	sbc	r27, r23
     97a:	80 83       	st	Z, r24
     97c:	91 83       	std	Z+1, r25	; 0x01
     97e:	a2 83       	std	Z+2, r26	; 0x02
     980:	b3 83       	std	Z+3, r27	; 0x03
     982:	08 95       	ret

00000984 <_ZN11interpreter4brleEm>:
     984:	fc 01       	movw	r30, r24
     986:	e5 5e       	subi	r30, 0xE5	; 229
     988:	fe 4f       	sbci	r31, 0xFE	; 254
     98a:	20 81       	ld	r18, Z
     98c:	30 e0       	ldi	r19, 0x00	; 0
     98e:	f9 01       	movw	r30, r18
     990:	f5 95       	asr	r31
     992:	e7 95       	ror	r30
     994:	f5 95       	asr	r31
     996:	e7 95       	ror	r30
     998:	f5 95       	asr	r31
     99a:	e7 95       	ror	r30
     99c:	35 95       	asr	r19
     99e:	27 95       	ror	r18
     9a0:	35 95       	asr	r19
     9a2:	27 95       	ror	r18
     9a4:	2e 2b       	or	r18, r30
     9a6:	3f 2b       	or	r19, r31
     9a8:	20 ff       	sbrs	r18, 0
     9aa:	07 c0       	rjmp	.+14     	; 0x9ba <_ZN11interpreter4brleEm+0x36>
     9ac:	fc 01       	movw	r30, r24
     9ae:	ef 5e       	subi	r30, 0xEF	; 239
     9b0:	fe 4f       	sbci	r31, 0xFE	; 254
     9b2:	40 83       	st	Z, r20
     9b4:	51 83       	std	Z+1, r21	; 0x01
     9b6:	62 83       	std	Z+2, r22	; 0x02
     9b8:	73 83       	std	Z+3, r23	; 0x03
     9ba:	08 95       	ret

000009bc <_ZN11interpreter7brlepcfEm>:
     9bc:	fc 01       	movw	r30, r24
     9be:	e5 5e       	subi	r30, 0xE5	; 229
     9c0:	fe 4f       	sbci	r31, 0xFE	; 254
     9c2:	20 81       	ld	r18, Z
     9c4:	30 e0       	ldi	r19, 0x00	; 0
     9c6:	f9 01       	movw	r30, r18
     9c8:	f5 95       	asr	r31
     9ca:	e7 95       	ror	r30
     9cc:	f5 95       	asr	r31
     9ce:	e7 95       	ror	r30
     9d0:	f5 95       	asr	r31
     9d2:	e7 95       	ror	r30
     9d4:	35 95       	asr	r19
     9d6:	27 95       	ror	r18
     9d8:	35 95       	asr	r19
     9da:	27 95       	ror	r18
     9dc:	2e 2b       	or	r18, r30
     9de:	3f 2b       	or	r19, r31
     9e0:	20 ff       	sbrs	r18, 0
     9e2:	0f c0       	rjmp	.+30     	; 0xa02 <_ZN11interpreter7brlepcfEm+0x46>
     9e4:	fc 01       	movw	r30, r24
     9e6:	ef 5e       	subi	r30, 0xEF	; 239
     9e8:	fe 4f       	sbci	r31, 0xFE	; 254
     9ea:	80 81       	ld	r24, Z
     9ec:	91 81       	ldd	r25, Z+1	; 0x01
     9ee:	a2 81       	ldd	r26, Z+2	; 0x02
     9f0:	b3 81       	ldd	r27, Z+3	; 0x03
     9f2:	48 0f       	add	r20, r24
     9f4:	59 1f       	adc	r21, r25
     9f6:	6a 1f       	adc	r22, r26
     9f8:	7b 1f       	adc	r23, r27
     9fa:	40 83       	st	Z, r20
     9fc:	51 83       	std	Z+1, r21	; 0x01
     9fe:	62 83       	std	Z+2, r22	; 0x02
     a00:	73 83       	std	Z+3, r23	; 0x03
     a02:	08 95       	ret

00000a04 <_ZN11interpreter7brlepcbEm>:
     a04:	fc 01       	movw	r30, r24
     a06:	e5 5e       	subi	r30, 0xE5	; 229
     a08:	fe 4f       	sbci	r31, 0xFE	; 254
     a0a:	20 81       	ld	r18, Z
     a0c:	30 e0       	ldi	r19, 0x00	; 0
     a0e:	f9 01       	movw	r30, r18
     a10:	f5 95       	asr	r31
     a12:	e7 95       	ror	r30
     a14:	f5 95       	asr	r31
     a16:	e7 95       	ror	r30
     a18:	f5 95       	asr	r31
     a1a:	e7 95       	ror	r30
     a1c:	35 95       	asr	r19
     a1e:	27 95       	ror	r18
     a20:	35 95       	asr	r19
     a22:	27 95       	ror	r18
     a24:	2e 2b       	or	r18, r30
     a26:	3f 2b       	or	r19, r31
     a28:	20 ff       	sbrs	r18, 0
     a2a:	0f c0       	rjmp	.+30     	; 0xa4a <_ZN11interpreter7brlepcbEm+0x46>
     a2c:	fc 01       	movw	r30, r24
     a2e:	ef 5e       	subi	r30, 0xEF	; 239
     a30:	fe 4f       	sbci	r31, 0xFE	; 254
     a32:	80 81       	ld	r24, Z
     a34:	91 81       	ldd	r25, Z+1	; 0x01
     a36:	a2 81       	ldd	r26, Z+2	; 0x02
     a38:	b3 81       	ldd	r27, Z+3	; 0x03
     a3a:	84 1b       	sub	r24, r20
     a3c:	95 0b       	sbc	r25, r21
     a3e:	a6 0b       	sbc	r26, r22
     a40:	b7 0b       	sbc	r27, r23
     a42:	80 83       	st	Z, r24
     a44:	91 83       	std	Z+1, r25	; 0x01
     a46:	a2 83       	std	Z+2, r26	; 0x02
     a48:	b3 83       	std	Z+3, r27	; 0x03
     a4a:	08 95       	ret

00000a4c <_ZN11interpreter3brgEm>:
     a4c:	fc 01       	movw	r30, r24
     a4e:	e5 5e       	subi	r30, 0xE5	; 229
     a50:	fe 4f       	sbci	r31, 0xFE	; 254
     a52:	20 81       	ld	r18, Z
     a54:	30 e0       	ldi	r19, 0x00	; 0
     a56:	f9 01       	movw	r30, r18
     a58:	f5 95       	asr	r31
     a5a:	e7 95       	ror	r30
     a5c:	f5 95       	asr	r31
     a5e:	e7 95       	ror	r30
     a60:	f5 95       	asr	r31
     a62:	e7 95       	ror	r30
     a64:	e0 fd       	sbrc	r30, 0
     a66:	0b c0       	rjmp	.+22     	; 0xa7e <_ZN11interpreter3brgEm+0x32>
     a68:	35 95       	asr	r19
     a6a:	27 95       	ror	r18
     a6c:	20 ff       	sbrs	r18, 0
     a6e:	07 c0       	rjmp	.+14     	; 0xa7e <_ZN11interpreter3brgEm+0x32>
     a70:	fc 01       	movw	r30, r24
     a72:	ef 5e       	subi	r30, 0xEF	; 239
     a74:	fe 4f       	sbci	r31, 0xFE	; 254
     a76:	40 83       	st	Z, r20
     a78:	51 83       	std	Z+1, r21	; 0x01
     a7a:	62 83       	std	Z+2, r22	; 0x02
     a7c:	73 83       	std	Z+3, r23	; 0x03
     a7e:	08 95       	ret

00000a80 <_ZN11interpreter6brgpcfEm>:
     a80:	fc 01       	movw	r30, r24
     a82:	e5 5e       	subi	r30, 0xE5	; 229
     a84:	fe 4f       	sbci	r31, 0xFE	; 254
     a86:	20 81       	ld	r18, Z
     a88:	30 e0       	ldi	r19, 0x00	; 0
     a8a:	f9 01       	movw	r30, r18
     a8c:	f5 95       	asr	r31
     a8e:	e7 95       	ror	r30
     a90:	f5 95       	asr	r31
     a92:	e7 95       	ror	r30
     a94:	f5 95       	asr	r31
     a96:	e7 95       	ror	r30
     a98:	e0 fd       	sbrc	r30, 0
     a9a:	13 c0       	rjmp	.+38     	; 0xac2 <_ZN11interpreter6brgpcfEm+0x42>
     a9c:	35 95       	asr	r19
     a9e:	27 95       	ror	r18
     aa0:	20 ff       	sbrs	r18, 0
     aa2:	0f c0       	rjmp	.+30     	; 0xac2 <_ZN11interpreter6brgpcfEm+0x42>
     aa4:	fc 01       	movw	r30, r24
     aa6:	ef 5e       	subi	r30, 0xEF	; 239
     aa8:	fe 4f       	sbci	r31, 0xFE	; 254
     aaa:	80 81       	ld	r24, Z
     aac:	91 81       	ldd	r25, Z+1	; 0x01
     aae:	a2 81       	ldd	r26, Z+2	; 0x02
     ab0:	b3 81       	ldd	r27, Z+3	; 0x03
     ab2:	48 0f       	add	r20, r24
     ab4:	59 1f       	adc	r21, r25
     ab6:	6a 1f       	adc	r22, r26
     ab8:	7b 1f       	adc	r23, r27
     aba:	40 83       	st	Z, r20
     abc:	51 83       	std	Z+1, r21	; 0x01
     abe:	62 83       	std	Z+2, r22	; 0x02
     ac0:	73 83       	std	Z+3, r23	; 0x03
     ac2:	08 95       	ret

00000ac4 <_ZN11interpreter6brgpcbEm>:
     ac4:	fc 01       	movw	r30, r24
     ac6:	e5 5e       	subi	r30, 0xE5	; 229
     ac8:	fe 4f       	sbci	r31, 0xFE	; 254
     aca:	20 81       	ld	r18, Z
     acc:	30 e0       	ldi	r19, 0x00	; 0
     ace:	f9 01       	movw	r30, r18
     ad0:	f5 95       	asr	r31
     ad2:	e7 95       	ror	r30
     ad4:	f5 95       	asr	r31
     ad6:	e7 95       	ror	r30
     ad8:	f5 95       	asr	r31
     ada:	e7 95       	ror	r30
     adc:	e0 fd       	sbrc	r30, 0
     ade:	13 c0       	rjmp	.+38     	; 0xb06 <_ZN11interpreter6brgpcbEm+0x42>
     ae0:	35 95       	asr	r19
     ae2:	27 95       	ror	r18
     ae4:	20 ff       	sbrs	r18, 0
     ae6:	0f c0       	rjmp	.+30     	; 0xb06 <_ZN11interpreter6brgpcbEm+0x42>
     ae8:	fc 01       	movw	r30, r24
     aea:	ef 5e       	subi	r30, 0xEF	; 239
     aec:	fe 4f       	sbci	r31, 0xFE	; 254
     aee:	80 81       	ld	r24, Z
     af0:	91 81       	ldd	r25, Z+1	; 0x01
     af2:	a2 81       	ldd	r26, Z+2	; 0x02
     af4:	b3 81       	ldd	r27, Z+3	; 0x03
     af6:	84 1b       	sub	r24, r20
     af8:	95 0b       	sbc	r25, r21
     afa:	a6 0b       	sbc	r26, r22
     afc:	b7 0b       	sbc	r27, r23
     afe:	80 83       	st	Z, r24
     b00:	91 83       	std	Z+1, r25	; 0x01
     b02:	a2 83       	std	Z+2, r26	; 0x02
     b04:	b3 83       	std	Z+3, r27	; 0x03
     b06:	08 95       	ret

00000b08 <_ZN11interpreter3brlEm>:
     b08:	fc 01       	movw	r30, r24
     b0a:	e5 5e       	subi	r30, 0xE5	; 229
     b0c:	fe 4f       	sbci	r31, 0xFE	; 254
     b0e:	20 81       	ld	r18, Z
     b10:	30 e0       	ldi	r19, 0x00	; 0
     b12:	f9 01       	movw	r30, r18
     b14:	f5 95       	asr	r31
     b16:	e7 95       	ror	r30
     b18:	f5 95       	asr	r31
     b1a:	e7 95       	ror	r30
     b1c:	f5 95       	asr	r31
     b1e:	e7 95       	ror	r30
     b20:	e0 fd       	sbrc	r30, 0
     b22:	0d c0       	rjmp	.+26     	; 0xb3e <_ZN11interpreter3brlEm+0x36>
     b24:	35 95       	asr	r19
     b26:	27 95       	ror	r18
     b28:	35 95       	asr	r19
     b2a:	27 95       	ror	r18
     b2c:	20 ff       	sbrs	r18, 0
     b2e:	07 c0       	rjmp	.+14     	; 0xb3e <_ZN11interpreter3brlEm+0x36>
     b30:	fc 01       	movw	r30, r24
     b32:	ef 5e       	subi	r30, 0xEF	; 239
     b34:	fe 4f       	sbci	r31, 0xFE	; 254
     b36:	40 83       	st	Z, r20
     b38:	51 83       	std	Z+1, r21	; 0x01
     b3a:	62 83       	std	Z+2, r22	; 0x02
     b3c:	73 83       	std	Z+3, r23	; 0x03
     b3e:	08 95       	ret

00000b40 <_ZN11interpreter6brlpcfEm>:
     b40:	fc 01       	movw	r30, r24
     b42:	e5 5e       	subi	r30, 0xE5	; 229
     b44:	fe 4f       	sbci	r31, 0xFE	; 254
     b46:	20 81       	ld	r18, Z
     b48:	30 e0       	ldi	r19, 0x00	; 0
     b4a:	f9 01       	movw	r30, r18
     b4c:	f5 95       	asr	r31
     b4e:	e7 95       	ror	r30
     b50:	f5 95       	asr	r31
     b52:	e7 95       	ror	r30
     b54:	f5 95       	asr	r31
     b56:	e7 95       	ror	r30
     b58:	e0 fd       	sbrc	r30, 0
     b5a:	15 c0       	rjmp	.+42     	; 0xb86 <_ZN11interpreter6brlpcfEm+0x46>
     b5c:	35 95       	asr	r19
     b5e:	27 95       	ror	r18
     b60:	35 95       	asr	r19
     b62:	27 95       	ror	r18
     b64:	20 ff       	sbrs	r18, 0
     b66:	0f c0       	rjmp	.+30     	; 0xb86 <_ZN11interpreter6brlpcfEm+0x46>
     b68:	fc 01       	movw	r30, r24
     b6a:	ef 5e       	subi	r30, 0xEF	; 239
     b6c:	fe 4f       	sbci	r31, 0xFE	; 254
     b6e:	80 81       	ld	r24, Z
     b70:	91 81       	ldd	r25, Z+1	; 0x01
     b72:	a2 81       	ldd	r26, Z+2	; 0x02
     b74:	b3 81       	ldd	r27, Z+3	; 0x03
     b76:	48 0f       	add	r20, r24
     b78:	59 1f       	adc	r21, r25
     b7a:	6a 1f       	adc	r22, r26
     b7c:	7b 1f       	adc	r23, r27
     b7e:	40 83       	st	Z, r20
     b80:	51 83       	std	Z+1, r21	; 0x01
     b82:	62 83       	std	Z+2, r22	; 0x02
     b84:	73 83       	std	Z+3, r23	; 0x03
     b86:	08 95       	ret

00000b88 <_ZN11interpreter6brlpcbEm>:
     b88:	fc 01       	movw	r30, r24
     b8a:	e5 5e       	subi	r30, 0xE5	; 229
     b8c:	fe 4f       	sbci	r31, 0xFE	; 254
     b8e:	20 81       	ld	r18, Z
     b90:	30 e0       	ldi	r19, 0x00	; 0
     b92:	f9 01       	movw	r30, r18
     b94:	f5 95       	asr	r31
     b96:	e7 95       	ror	r30
     b98:	f5 95       	asr	r31
     b9a:	e7 95       	ror	r30
     b9c:	f5 95       	asr	r31
     b9e:	e7 95       	ror	r30
     ba0:	e0 fd       	sbrc	r30, 0
     ba2:	15 c0       	rjmp	.+42     	; 0xbce <_ZN11interpreter6brlpcbEm+0x46>
     ba4:	35 95       	asr	r19
     ba6:	27 95       	ror	r18
     ba8:	35 95       	asr	r19
     baa:	27 95       	ror	r18
     bac:	20 ff       	sbrs	r18, 0
     bae:	0f c0       	rjmp	.+30     	; 0xbce <_ZN11interpreter6brlpcbEm+0x46>
     bb0:	fc 01       	movw	r30, r24
     bb2:	ef 5e       	subi	r30, 0xEF	; 239
     bb4:	fe 4f       	sbci	r31, 0xFE	; 254
     bb6:	80 81       	ld	r24, Z
     bb8:	91 81       	ldd	r25, Z+1	; 0x01
     bba:	a2 81       	ldd	r26, Z+2	; 0x02
     bbc:	b3 81       	ldd	r27, Z+3	; 0x03
     bbe:	84 1b       	sub	r24, r20
     bc0:	95 0b       	sbc	r25, r21
     bc2:	a6 0b       	sbc	r26, r22
     bc4:	b7 0b       	sbc	r27, r23
     bc6:	80 83       	st	Z, r24
     bc8:	91 83       	std	Z+1, r25	; 0x01
     bca:	a2 83       	std	Z+2, r26	; 0x02
     bcc:	b3 83       	std	Z+3, r27	; 0x03
     bce:	08 95       	ret

00000bd0 <_ZN11interpreter4pushEc>:
     bd0:	cf 93       	push	r28
     bd2:	df 93       	push	r29
     bd4:	fc 01       	movw	r30, r24
     bd6:	e6 0f       	add	r30, r22
     bd8:	f1 1d       	adc	r31, r1
     bda:	ec 01       	movw	r28, r24
     bdc:	c1 5f       	subi	r28, 0xF1	; 241
     bde:	de 4f       	sbci	r29, 0xFE	; 254
     be0:	48 81       	ld	r20, Y
     be2:	59 81       	ldd	r21, Y+1	; 0x01
     be4:	60 e0       	ldi	r22, 0x00	; 0
     be6:	70 e0       	ldi	r23, 0x00	; 0
     be8:	dc 01       	movw	r26, r24
     bea:	a5 5f       	subi	r26, 0xF5	; 245
     bec:	be 4f       	sbci	r27, 0xFE	; 254
     bee:	20 81       	ld	r18, Z
     bf0:	8d 91       	ld	r24, X+
     bf2:	9c 91       	ld	r25, X
     bf4:	0e 94 18 0f 	call	0x1e30	; 0x1e30 <_ZN6memory5writeEmh>
     bf8:	88 81       	ld	r24, Y
     bfa:	99 81       	ldd	r25, Y+1	; 0x01
     bfc:	01 97       	sbiw	r24, 0x01	; 1
     bfe:	99 83       	std	Y+1, r25	; 0x01
     c00:	88 83       	st	Y, r24
     c02:	df 91       	pop	r29
     c04:	cf 91       	pop	r28
     c06:	08 95       	ret

00000c08 <_ZN11interpreter4callEm>:
     c08:	cf 92       	push	r12
     c0a:	df 92       	push	r13
     c0c:	ef 92       	push	r14
     c0e:	ff 92       	push	r15
     c10:	cf 93       	push	r28
     c12:	df 93       	push	r29
     c14:	ec 01       	movw	r28, r24
     c16:	6a 01       	movw	r12, r20
     c18:	7b 01       	movw	r14, r22
     c1a:	fc 01       	movw	r30, r24
     c1c:	e1 5f       	subi	r30, 0xF1	; 241
     c1e:	fe 4f       	sbci	r31, 0xFE	; 254
     c20:	60 81       	ld	r22, Z
     c22:	0e 94 e8 05 	call	0xbd0	; 0xbd0 <_ZN11interpreter4pushEc>
     c26:	cf 5e       	subi	r28, 0xEF	; 239
     c28:	de 4f       	sbci	r29, 0xFE	; 254
     c2a:	c8 82       	st	Y, r12
     c2c:	d9 82       	std	Y+1, r13	; 0x01
     c2e:	ea 82       	std	Y+2, r14	; 0x02
     c30:	fb 82       	std	Y+3, r15	; 0x03
     c32:	df 91       	pop	r29
     c34:	cf 91       	pop	r28
     c36:	ff 90       	pop	r15
     c38:	ef 90       	pop	r14
     c3a:	df 90       	pop	r13
     c3c:	cf 90       	pop	r12
     c3e:	08 95       	ret

00000c40 <_ZN11interpreter5pushiEh>:
     c40:	cf 93       	push	r28
     c42:	df 93       	push	r29
     c44:	26 2f       	mov	r18, r22
     c46:	ec 01       	movw	r28, r24
     c48:	c1 5f       	subi	r28, 0xF1	; 241
     c4a:	de 4f       	sbci	r29, 0xFE	; 254
     c4c:	48 81       	ld	r20, Y
     c4e:	59 81       	ldd	r21, Y+1	; 0x01
     c50:	60 e0       	ldi	r22, 0x00	; 0
     c52:	70 e0       	ldi	r23, 0x00	; 0
     c54:	fc 01       	movw	r30, r24
     c56:	e5 5f       	subi	r30, 0xF5	; 245
     c58:	fe 4f       	sbci	r31, 0xFE	; 254
     c5a:	80 81       	ld	r24, Z
     c5c:	91 81       	ldd	r25, Z+1	; 0x01
     c5e:	0e 94 18 0f 	call	0x1e30	; 0x1e30 <_ZN6memory5writeEmh>
     c62:	88 81       	ld	r24, Y
     c64:	99 81       	ldd	r25, Y+1	; 0x01
     c66:	01 97       	sbiw	r24, 0x01	; 1
     c68:	99 83       	std	Y+1, r25	; 0x01
     c6a:	88 83       	st	Y, r24
     c6c:	df 91       	pop	r29
     c6e:	cf 91       	pop	r28
     c70:	08 95       	ret

00000c72 <_ZN11interpreter3popEv>:
     c72:	cf 93       	push	r28
     c74:	df 93       	push	r29
     c76:	ec 01       	movw	r28, r24
     c78:	c1 5f       	subi	r28, 0xF1	; 241
     c7a:	de 4f       	sbci	r29, 0xFE	; 254
     c7c:	48 81       	ld	r20, Y
     c7e:	59 81       	ldd	r21, Y+1	; 0x01
     c80:	60 e0       	ldi	r22, 0x00	; 0
     c82:	70 e0       	ldi	r23, 0x00	; 0
     c84:	fc 01       	movw	r30, r24
     c86:	e5 5f       	subi	r30, 0xF5	; 245
     c88:	fe 4f       	sbci	r31, 0xFE	; 254
     c8a:	80 81       	ld	r24, Z
     c8c:	91 81       	ldd	r25, Z+1	; 0x01
     c8e:	0e 94 36 0f 	call	0x1e6c	; 0x1e6c <_ZN6memory4readEm>
     c92:	28 81       	ld	r18, Y
     c94:	39 81       	ldd	r19, Y+1	; 0x01
     c96:	2f 5f       	subi	r18, 0xFF	; 255
     c98:	3f 4f       	sbci	r19, 0xFF	; 255
     c9a:	39 83       	std	Y+1, r19	; 0x01
     c9c:	28 83       	st	Y, r18
     c9e:	df 91       	pop	r29
     ca0:	cf 91       	pop	r28
     ca2:	08 95       	ret

00000ca4 <_ZN11interpreter3popEc>:
     ca4:	1f 93       	push	r17
     ca6:	cf 93       	push	r28
     ca8:	df 93       	push	r29
     caa:	ec 01       	movw	r28, r24
     cac:	16 2f       	mov	r17, r22
     cae:	0e 94 39 06 	call	0xc72	; 0xc72 <_ZN11interpreter3popEv>
     cb2:	c1 0f       	add	r28, r17
     cb4:	d1 1d       	adc	r29, r1
     cb6:	88 83       	st	Y, r24
     cb8:	df 91       	pop	r29
     cba:	cf 91       	pop	r28
     cbc:	1f 91       	pop	r17
     cbe:	08 95       	ret

00000cc0 <_ZN11interpreter4swapEc>:
     cc0:	fc 01       	movw	r30, r24
     cc2:	e6 0f       	add	r30, r22
     cc4:	f1 1d       	adc	r31, r1
     cc6:	90 81       	ld	r25, Z
     cc8:	92 95       	swap	r25
     cca:	90 83       	st	Z, r25
     ccc:	08 95       	ret

00000cce <_ZN11interpreter7syscallEv>:
     cce:	fc 01       	movw	r30, r24
     cd0:	60 81       	ld	r22, Z
     cd2:	61 11       	cpse	r22, r1
     cd4:	0d c0       	rjmp	.+26     	; 0xcf0 <_ZN11interpreter7syscallEv+0x22>
     cd6:	81 81       	ldd	r24, Z+1	; 0x01
     cd8:	90 e0       	ldi	r25, 0x00	; 0
     cda:	e9 ef       	ldi	r30, 0xF9	; 249
     cdc:	f0 e0       	ldi	r31, 0x00	; 0
     cde:	31 97       	sbiw	r30, 0x01	; 1
     ce0:	f1 f7       	brne	.-4      	; 0xcde <_ZN11interpreter7syscallEv+0x10>
     ce2:	00 c0       	rjmp	.+0      	; 0xce4 <_ZN11interpreter7syscallEv+0x16>
     ce4:	00 00       	nop
     ce6:	01 97       	sbiw	r24, 0x01	; 1
     ce8:	18 16       	cp	r1, r24
     cea:	19 06       	cpc	r1, r25
     cec:	b4 f3       	brlt	.-20     	; 0xcda <_ZN11interpreter7syscallEv+0xc>
     cee:	2f c0       	rjmp	.+94     	; 0xd4e <_ZN11interpreter7syscallEv+0x80>
     cf0:	61 30       	cpi	r22, 0x01	; 1
     cf2:	81 f4       	brne	.+32     	; 0xd14 <_ZN11interpreter7syscallEv+0x46>
     cf4:	81 81       	ldd	r24, Z+1	; 0x01
     cf6:	88 23       	and	r24, r24
     cf8:	19 f0       	breq	.+6      	; 0xd00 <_ZN11interpreter7syscallEv+0x32>
     cfa:	92 81       	ldd	r25, Z+2	; 0x02
     cfc:	91 11       	cpse	r25, r1
     cfe:	04 c0       	rjmp	.+8      	; 0xd08 <_ZN11interpreter7syscallEv+0x3a>
     d00:	81 e0       	ldi	r24, 0x01	; 1
     d02:	83 83       	std	Z+3, r24	; 0x03
     d04:	60 e0       	ldi	r22, 0x00	; 0
     d06:	23 c0       	rjmp	.+70     	; 0xd4e <_ZN11interpreter7syscallEv+0x80>
     d08:	89 9f       	mul	r24, r25
     d0a:	80 2d       	mov	r24, r0
     d0c:	11 24       	eor	r1, r1
     d0e:	83 83       	std	Z+3, r24	; 0x03
     d10:	60 e0       	ldi	r22, 0x00	; 0
     d12:	1d c0       	rjmp	.+58     	; 0xd4e <_ZN11interpreter7syscallEv+0x80>
     d14:	62 30       	cpi	r22, 0x02	; 2
     d16:	71 f4       	brne	.+28     	; 0xd34 <_ZN11interpreter7syscallEv+0x66>
     d18:	62 81       	ldd	r22, Z+2	; 0x02
     d1a:	61 11       	cpse	r22, r1
     d1c:	04 c0       	rjmp	.+8      	; 0xd26 <_ZN11interpreter7syscallEv+0x58>
     d1e:	13 82       	std	Z+3, r1	; 0x03
     d20:	81 e0       	ldi	r24, 0x01	; 1
     d22:	84 83       	std	Z+4, r24	; 0x04
     d24:	14 c0       	rjmp	.+40     	; 0xd4e <_ZN11interpreter7syscallEv+0x80>
     d26:	81 81       	ldd	r24, Z+1	; 0x01
     d28:	0e 94 29 10 	call	0x2052	; 0x2052 <__udivmodqi4>
     d2c:	83 83       	std	Z+3, r24	; 0x03
     d2e:	14 82       	std	Z+4, r1	; 0x04
     d30:	60 e0       	ldi	r22, 0x00	; 0
     d32:	0d c0       	rjmp	.+26     	; 0xd4e <_ZN11interpreter7syscallEv+0x80>
     d34:	8d ef       	ldi	r24, 0xFD	; 253
     d36:	86 0f       	add	r24, r22
     d38:	83 30       	cpi	r24, 0x03	; 3
     d3a:	30 f0       	brcs	.+12     	; 0xd48 <_ZN11interpreter7syscallEv+0x7a>
     d3c:	6f 3f       	cpi	r22, 0xFF	; 255
     d3e:	31 f4       	brne	.+12     	; 0xd4c <_ZN11interpreter7syscallEv+0x7e>
     d40:	81 e0       	ldi	r24, 0x01	; 1
     d42:	81 83       	std	Z+1, r24	; 0x01
     d44:	65 e6       	ldi	r22, 0x65	; 101
     d46:	03 c0       	rjmp	.+6      	; 0xd4e <_ZN11interpreter7syscallEv+0x80>
     d48:	62 e6       	ldi	r22, 0x62	; 98
     d4a:	01 c0       	rjmp	.+2      	; 0xd4e <_ZN11interpreter7syscallEv+0x80>
     d4c:	60 e0       	ldi	r22, 0x00	; 0
     d4e:	86 2f       	mov	r24, r22
     d50:	08 95       	ret

00000d52 <_ZN11interpreter3retEv>:
     d52:	1f 93       	push	r17
     d54:	cf 93       	push	r28
     d56:	df 93       	push	r29
     d58:	ec 01       	movw	r28, r24
     d5a:	0e 94 39 06 	call	0xc72	; 0xc72 <_ZN11interpreter3popEv>
     d5e:	ce 01       	movw	r24, r28
     d60:	0e 94 39 06 	call	0xc72	; 0xc72 <_ZN11interpreter3popEv>
     d64:	ce 01       	movw	r24, r28
     d66:	0e 94 39 06 	call	0xc72	; 0xc72 <_ZN11interpreter3popEv>
     d6a:	ce 01       	movw	r24, r28
     d6c:	0e 94 39 06 	call	0xc72	; 0xc72 <_ZN11interpreter3popEv>
     d70:	ce 01       	movw	r24, r28
     d72:	0e 94 39 06 	call	0xc72	; 0xc72 <_ZN11interpreter3popEv>
     d76:	18 2f       	mov	r17, r24
     d78:	ce 01       	movw	r24, r28
     d7a:	0e 94 39 06 	call	0xc72	; 0xc72 <_ZN11interpreter3popEv>
     d7e:	cf 5e       	subi	r28, 0xEF	; 239
     d80:	de 4f       	sbci	r29, 0xFE	; 254
     d82:	21 2f       	mov	r18, r17
     d84:	30 e0       	ldi	r19, 0x00	; 0
     d86:	32 2f       	mov	r19, r18
     d88:	22 27       	eor	r18, r18
     d8a:	a9 01       	movw	r20, r18
     d8c:	48 2b       	or	r20, r24
     d8e:	ca 01       	movw	r24, r20
     d90:	09 2e       	mov	r0, r25
     d92:	00 0c       	add	r0, r0
     d94:	aa 0b       	sbc	r26, r26
     d96:	bb 0b       	sbc	r27, r27
     d98:	88 83       	st	Y, r24
     d9a:	99 83       	std	Y+1, r25	; 0x01
     d9c:	aa 83       	std	Y+2, r26	; 0x02
     d9e:	bb 83       	std	Y+3, r27	; 0x03
     da0:	df 91       	pop	r29
     da2:	cf 91       	pop	r28
     da4:	1f 91       	pop	r17
     da6:	08 95       	ret

00000da8 <_ZN11interpreter3runEv>:
     da8:	4f 92       	push	r4
     daa:	5f 92       	push	r5
     dac:	6f 92       	push	r6
     dae:	7f 92       	push	r7
     db0:	af 92       	push	r10
     db2:	bf 92       	push	r11
     db4:	cf 92       	push	r12
     db6:	df 92       	push	r13
     db8:	ef 92       	push	r14
     dba:	ff 92       	push	r15
     dbc:	0f 93       	push	r16
     dbe:	1f 93       	push	r17
     dc0:	cf 93       	push	r28
     dc2:	df 93       	push	r29
     dc4:	6c 01       	movw	r12, r24
     dc6:	ec 01       	movw	r28, r24
     dc8:	cf 5e       	subi	r28, 0xEF	; 239
     dca:	de 4f       	sbci	r29, 0xFE	; 254
     dcc:	7c 01       	movw	r14, r24
     dce:	05 ef       	ldi	r16, 0xF5	; 245
     dd0:	e0 1a       	sub	r14, r16
     dd2:	0e ef       	ldi	r16, 0xFE	; 254
     dd4:	f0 0a       	sbc	r15, r16
     dd6:	5c 01       	movw	r10, r24
     dd8:	15 ee       	ldi	r17, 0xE5	; 229
     dda:	a1 1a       	sub	r10, r17
     ddc:	1e ef       	ldi	r17, 0xFE	; 254
     dde:	b1 0a       	sbc	r11, r17
     de0:	48 81       	ld	r20, Y
     de2:	59 81       	ldd	r21, Y+1	; 0x01
     de4:	6a 81       	ldd	r22, Y+2	; 0x02
     de6:	7b 81       	ldd	r23, Y+3	; 0x03
     de8:	f7 01       	movw	r30, r14
     dea:	80 81       	ld	r24, Z
     dec:	91 81       	ldd	r25, Z+1	; 0x01
     dee:	0e 94 36 0f 	call	0x1e6c	; 0x1e6c <_ZN6memory4readEm>
     df2:	81 11       	cpse	r24, r1
     df4:	0a c0       	rjmp	.+20     	; 0xe0a <_ZN11interpreter3runEv+0x62>
     df6:	c6 01       	movw	r24, r12
     df8:	0e 94 67 06 	call	0xcce	; 0xcce <_ZN11interpreter7syscallEv>
     dfc:	82 36       	cpi	r24, 0x62	; 98
     dfe:	09 f4       	brne	.+2      	; 0xe02 <_ZN11interpreter3runEv+0x5a>
     e00:	59 c7       	rjmp	.+3762   	; 0x1cb4 <__stack+0xbb5>
     e02:	85 36       	cpi	r24, 0x65	; 101
     e04:	09 f0       	breq	.+2      	; 0xe08 <_ZN11interpreter3runEv+0x60>
     e06:	41 c7       	rjmp	.+3714   	; 0x1c8a <__stack+0xb8b>
     e08:	4c c7       	rjmp	.+3736   	; 0x1ca2 <__stack+0xba3>
     e0a:	81 30       	cpi	r24, 0x01	; 1
     e0c:	d9 f4       	brne	.+54     	; 0xe44 <_ZN11interpreter3runEv+0x9c>
     e0e:	48 81       	ld	r20, Y
     e10:	59 81       	ldd	r21, Y+1	; 0x01
     e12:	6a 81       	ldd	r22, Y+2	; 0x02
     e14:	7b 81       	ldd	r23, Y+3	; 0x03
     e16:	f7 01       	movw	r30, r14
     e18:	80 81       	ld	r24, Z
     e1a:	91 81       	ldd	r25, Z+1	; 0x01
     e1c:	0e 94 36 0f 	call	0x1e6c	; 0x1e6c <_ZN6memory4readEm>
     e20:	f6 01       	movw	r30, r12
     e22:	e8 0f       	add	r30, r24
     e24:	f1 1d       	adc	r31, r1
     e26:	80 81       	ld	r24, Z
     e28:	8f 5f       	subi	r24, 0xFF	; 255
     e2a:	80 83       	st	Z, r24
     e2c:	88 81       	ld	r24, Y
     e2e:	99 81       	ldd	r25, Y+1	; 0x01
     e30:	aa 81       	ldd	r26, Y+2	; 0x02
     e32:	bb 81       	ldd	r27, Y+3	; 0x03
     e34:	01 96       	adiw	r24, 0x01	; 1
     e36:	a1 1d       	adc	r26, r1
     e38:	b1 1d       	adc	r27, r1
     e3a:	88 83       	st	Y, r24
     e3c:	99 83       	std	Y+1, r25	; 0x01
     e3e:	aa 83       	std	Y+2, r26	; 0x02
     e40:	bb 83       	std	Y+3, r27	; 0x03
     e42:	23 c7       	rjmp	.+3654   	; 0x1c8a <__stack+0xb8b>
     e44:	82 30       	cpi	r24, 0x02	; 2
     e46:	f1 f4       	brne	.+60     	; 0xe84 <_ZN11interpreter3runEv+0xdc>
     e48:	48 81       	ld	r20, Y
     e4a:	59 81       	ldd	r21, Y+1	; 0x01
     e4c:	6a 81       	ldd	r22, Y+2	; 0x02
     e4e:	7b 81       	ldd	r23, Y+3	; 0x03
     e50:	4f 5f       	subi	r20, 0xFF	; 255
     e52:	5f 4f       	sbci	r21, 0xFF	; 255
     e54:	6f 4f       	sbci	r22, 0xFF	; 255
     e56:	7f 4f       	sbci	r23, 0xFF	; 255
     e58:	f7 01       	movw	r30, r14
     e5a:	80 81       	ld	r24, Z
     e5c:	91 81       	ldd	r25, Z+1	; 0x01
     e5e:	0e 94 44 0f 	call	0x1e88	; 0x1e88 <_ZN6memory6read32Em>
     e62:	ab 01       	movw	r20, r22
     e64:	bc 01       	movw	r22, r24
     e66:	c6 01       	movw	r24, r12
     e68:	0e 94 a2 00 	call	0x144	; 0x144 <_ZN11interpreter3incEm>
     e6c:	88 81       	ld	r24, Y
     e6e:	99 81       	ldd	r25, Y+1	; 0x01
     e70:	aa 81       	ldd	r26, Y+2	; 0x02
     e72:	bb 81       	ldd	r27, Y+3	; 0x03
     e74:	04 96       	adiw	r24, 0x04	; 4
     e76:	a1 1d       	adc	r26, r1
     e78:	b1 1d       	adc	r27, r1
     e7a:	88 83       	st	Y, r24
     e7c:	99 83       	std	Y+1, r25	; 0x01
     e7e:	aa 83       	std	Y+2, r26	; 0x02
     e80:	bb 83       	std	Y+3, r27	; 0x03
     e82:	03 c7       	rjmp	.+3590   	; 0x1c8a <__stack+0xb8b>
     e84:	83 30       	cpi	r24, 0x03	; 3
     e86:	f9 f4       	brne	.+62     	; 0xec6 <_ZN11interpreter3runEv+0x11e>
     e88:	48 81       	ld	r20, Y
     e8a:	59 81       	ldd	r21, Y+1	; 0x01
     e8c:	6a 81       	ldd	r22, Y+2	; 0x02
     e8e:	7b 81       	ldd	r23, Y+3	; 0x03
     e90:	4f 5f       	subi	r20, 0xFF	; 255
     e92:	5f 4f       	sbci	r21, 0xFF	; 255
     e94:	6f 4f       	sbci	r22, 0xFF	; 255
     e96:	7f 4f       	sbci	r23, 0xFF	; 255
     e98:	f7 01       	movw	r30, r14
     e9a:	80 81       	ld	r24, Z
     e9c:	91 81       	ldd	r25, Z+1	; 0x01
     e9e:	0e 94 36 0f 	call	0x1e6c	; 0x1e6c <_ZN6memory4readEm>
     ea2:	f6 01       	movw	r30, r12
     ea4:	e8 0f       	add	r30, r24
     ea6:	f1 1d       	adc	r31, r1
     ea8:	80 81       	ld	r24, Z
     eaa:	81 50       	subi	r24, 0x01	; 1
     eac:	80 83       	st	Z, r24
     eae:	88 81       	ld	r24, Y
     eb0:	99 81       	ldd	r25, Y+1	; 0x01
     eb2:	aa 81       	ldd	r26, Y+2	; 0x02
     eb4:	bb 81       	ldd	r27, Y+3	; 0x03
     eb6:	01 96       	adiw	r24, 0x01	; 1
     eb8:	a1 1d       	adc	r26, r1
     eba:	b1 1d       	adc	r27, r1
     ebc:	88 83       	st	Y, r24
     ebe:	99 83       	std	Y+1, r25	; 0x01
     ec0:	aa 83       	std	Y+2, r26	; 0x02
     ec2:	bb 83       	std	Y+3, r27	; 0x03
     ec4:	e2 c6       	rjmp	.+3524   	; 0x1c8a <__stack+0xb8b>
     ec6:	84 30       	cpi	r24, 0x04	; 4
     ec8:	f1 f4       	brne	.+60     	; 0xf06 <_ZN11interpreter3runEv+0x15e>
     eca:	48 81       	ld	r20, Y
     ecc:	59 81       	ldd	r21, Y+1	; 0x01
     ece:	6a 81       	ldd	r22, Y+2	; 0x02
     ed0:	7b 81       	ldd	r23, Y+3	; 0x03
     ed2:	4f 5f       	subi	r20, 0xFF	; 255
     ed4:	5f 4f       	sbci	r21, 0xFF	; 255
     ed6:	6f 4f       	sbci	r22, 0xFF	; 255
     ed8:	7f 4f       	sbci	r23, 0xFF	; 255
     eda:	f7 01       	movw	r30, r14
     edc:	80 81       	ld	r24, Z
     ede:	91 81       	ldd	r25, Z+1	; 0x01
     ee0:	0e 94 44 0f 	call	0x1e88	; 0x1e88 <_ZN6memory6read32Em>
     ee4:	ab 01       	movw	r20, r22
     ee6:	bc 01       	movw	r22, r24
     ee8:	c6 01       	movw	r24, r12
     eea:	0e 94 c0 00 	call	0x180	; 0x180 <_ZN11interpreter3decEm>
     eee:	88 81       	ld	r24, Y
     ef0:	99 81       	ldd	r25, Y+1	; 0x01
     ef2:	aa 81       	ldd	r26, Y+2	; 0x02
     ef4:	bb 81       	ldd	r27, Y+3	; 0x03
     ef6:	04 96       	adiw	r24, 0x04	; 4
     ef8:	a1 1d       	adc	r26, r1
     efa:	b1 1d       	adc	r27, r1
     efc:	88 83       	st	Y, r24
     efe:	99 83       	std	Y+1, r25	; 0x01
     f00:	aa 83       	std	Y+2, r26	; 0x02
     f02:	bb 83       	std	Y+3, r27	; 0x03
     f04:	c2 c6       	rjmp	.+3460   	; 0x1c8a <__stack+0xb8b>
     f06:	85 30       	cpi	r24, 0x05	; 5
     f08:	79 f5       	brne	.+94     	; 0xf68 <_ZN11interpreter3runEv+0x1c0>
     f0a:	48 81       	ld	r20, Y
     f0c:	59 81       	ldd	r21, Y+1	; 0x01
     f0e:	6a 81       	ldd	r22, Y+2	; 0x02
     f10:	7b 81       	ldd	r23, Y+3	; 0x03
     f12:	4f 5f       	subi	r20, 0xFF	; 255
     f14:	5f 4f       	sbci	r21, 0xFF	; 255
     f16:	6f 4f       	sbci	r22, 0xFF	; 255
     f18:	7f 4f       	sbci	r23, 0xFF	; 255
     f1a:	f7 01       	movw	r30, r14
     f1c:	80 81       	ld	r24, Z
     f1e:	91 81       	ldd	r25, Z+1	; 0x01
     f20:	0e 94 36 0f 	call	0x1e6c	; 0x1e6c <_ZN6memory4readEm>
     f24:	18 2f       	mov	r17, r24
     f26:	48 81       	ld	r20, Y
     f28:	59 81       	ldd	r21, Y+1	; 0x01
     f2a:	6a 81       	ldd	r22, Y+2	; 0x02
     f2c:	7b 81       	ldd	r23, Y+3	; 0x03
     f2e:	4e 5f       	subi	r20, 0xFE	; 254
     f30:	5f 4f       	sbci	r21, 0xFF	; 255
     f32:	6f 4f       	sbci	r22, 0xFF	; 255
     f34:	7f 4f       	sbci	r23, 0xFF	; 255
     f36:	f7 01       	movw	r30, r14
     f38:	80 81       	ld	r24, Z
     f3a:	91 81       	ldd	r25, Z+1	; 0x01
     f3c:	0e 94 36 0f 	call	0x1e6c	; 0x1e6c <_ZN6memory4readEm>
     f40:	f6 01       	movw	r30, r12
     f42:	e8 0f       	add	r30, r24
     f44:	f1 1d       	adc	r31, r1
     f46:	80 81       	ld	r24, Z
     f48:	f6 01       	movw	r30, r12
     f4a:	e1 0f       	add	r30, r17
     f4c:	f1 1d       	adc	r31, r1
     f4e:	80 83       	st	Z, r24
     f50:	88 81       	ld	r24, Y
     f52:	99 81       	ldd	r25, Y+1	; 0x01
     f54:	aa 81       	ldd	r26, Y+2	; 0x02
     f56:	bb 81       	ldd	r27, Y+3	; 0x03
     f58:	02 96       	adiw	r24, 0x02	; 2
     f5a:	a1 1d       	adc	r26, r1
     f5c:	b1 1d       	adc	r27, r1
     f5e:	88 83       	st	Y, r24
     f60:	99 83       	std	Y+1, r25	; 0x01
     f62:	aa 83       	std	Y+2, r26	; 0x02
     f64:	bb 83       	std	Y+3, r27	; 0x03
     f66:	91 c6       	rjmp	.+3362   	; 0x1c8a <__stack+0xb8b>
     f68:	86 30       	cpi	r24, 0x06	; 6
     f6a:	69 f5       	brne	.+90     	; 0xfc6 <_ZN11interpreter3runEv+0x21e>
     f6c:	48 81       	ld	r20, Y
     f6e:	59 81       	ldd	r21, Y+1	; 0x01
     f70:	6a 81       	ldd	r22, Y+2	; 0x02
     f72:	7b 81       	ldd	r23, Y+3	; 0x03
     f74:	4f 5f       	subi	r20, 0xFF	; 255
     f76:	5f 4f       	sbci	r21, 0xFF	; 255
     f78:	6f 4f       	sbci	r22, 0xFF	; 255
     f7a:	7f 4f       	sbci	r23, 0xFF	; 255
     f7c:	f7 01       	movw	r30, r14
     f7e:	80 81       	ld	r24, Z
     f80:	91 81       	ldd	r25, Z+1	; 0x01
     f82:	0e 94 36 0f 	call	0x1e6c	; 0x1e6c <_ZN6memory4readEm>
     f86:	18 2f       	mov	r17, r24
     f88:	48 81       	ld	r20, Y
     f8a:	59 81       	ldd	r21, Y+1	; 0x01
     f8c:	6a 81       	ldd	r22, Y+2	; 0x02
     f8e:	7b 81       	ldd	r23, Y+3	; 0x03
     f90:	4e 5f       	subi	r20, 0xFE	; 254
     f92:	5f 4f       	sbci	r21, 0xFF	; 255
     f94:	6f 4f       	sbci	r22, 0xFF	; 255
     f96:	7f 4f       	sbci	r23, 0xFF	; 255
     f98:	f7 01       	movw	r30, r14
     f9a:	80 81       	ld	r24, Z
     f9c:	91 81       	ldd	r25, Z+1	; 0x01
     f9e:	0e 94 44 0f 	call	0x1e88	; 0x1e88 <_ZN6memory6read32Em>
     fa2:	9b 01       	movw	r18, r22
     fa4:	ac 01       	movw	r20, r24
     fa6:	61 2f       	mov	r22, r17
     fa8:	c6 01       	movw	r24, r12
     faa:	0e 94 de 00 	call	0x1bc	; 0x1bc <_ZN11interpreter2ldEcm>
     fae:	88 81       	ld	r24, Y
     fb0:	99 81       	ldd	r25, Y+1	; 0x01
     fb2:	aa 81       	ldd	r26, Y+2	; 0x02
     fb4:	bb 81       	ldd	r27, Y+3	; 0x03
     fb6:	05 96       	adiw	r24, 0x05	; 5
     fb8:	a1 1d       	adc	r26, r1
     fba:	b1 1d       	adc	r27, r1
     fbc:	88 83       	st	Y, r24
     fbe:	99 83       	std	Y+1, r25	; 0x01
     fc0:	aa 83       	std	Y+2, r26	; 0x02
     fc2:	bb 83       	std	Y+3, r27	; 0x03
     fc4:	62 c6       	rjmp	.+3268   	; 0x1c8a <__stack+0xb8b>
     fc6:	87 30       	cpi	r24, 0x07	; 7
     fc8:	59 f5       	brne	.+86     	; 0x1020 <_ZN11interpreter3runEv+0x278>
     fca:	48 81       	ld	r20, Y
     fcc:	59 81       	ldd	r21, Y+1	; 0x01
     fce:	6a 81       	ldd	r22, Y+2	; 0x02
     fd0:	7b 81       	ldd	r23, Y+3	; 0x03
     fd2:	4f 5f       	subi	r20, 0xFF	; 255
     fd4:	5f 4f       	sbci	r21, 0xFF	; 255
     fd6:	6f 4f       	sbci	r22, 0xFF	; 255
     fd8:	7f 4f       	sbci	r23, 0xFF	; 255
     fda:	f7 01       	movw	r30, r14
     fdc:	80 81       	ld	r24, Z
     fde:	91 81       	ldd	r25, Z+1	; 0x01
     fe0:	0e 94 36 0f 	call	0x1e6c	; 0x1e6c <_ZN6memory4readEm>
     fe4:	18 2f       	mov	r17, r24
     fe6:	48 81       	ld	r20, Y
     fe8:	59 81       	ldd	r21, Y+1	; 0x01
     fea:	6a 81       	ldd	r22, Y+2	; 0x02
     fec:	7b 81       	ldd	r23, Y+3	; 0x03
     fee:	4e 5f       	subi	r20, 0xFE	; 254
     ff0:	5f 4f       	sbci	r21, 0xFF	; 255
     ff2:	6f 4f       	sbci	r22, 0xFF	; 255
     ff4:	7f 4f       	sbci	r23, 0xFF	; 255
     ff6:	f7 01       	movw	r30, r14
     ff8:	80 81       	ld	r24, Z
     ffa:	91 81       	ldd	r25, Z+1	; 0x01
     ffc:	0e 94 36 0f 	call	0x1e6c	; 0x1e6c <_ZN6memory4readEm>
    1000:	f6 01       	movw	r30, r12
    1002:	e1 0f       	add	r30, r17
    1004:	f1 1d       	adc	r31, r1
    1006:	80 83       	st	Z, r24
    1008:	88 81       	ld	r24, Y
    100a:	99 81       	ldd	r25, Y+1	; 0x01
    100c:	aa 81       	ldd	r26, Y+2	; 0x02
    100e:	bb 81       	ldd	r27, Y+3	; 0x03
    1010:	02 96       	adiw	r24, 0x02	; 2
    1012:	a1 1d       	adc	r26, r1
    1014:	b1 1d       	adc	r27, r1
    1016:	88 83       	st	Y, r24
    1018:	99 83       	std	Y+1, r25	; 0x01
    101a:	aa 83       	std	Y+2, r26	; 0x02
    101c:	bb 83       	std	Y+3, r27	; 0x03
    101e:	35 c6       	rjmp	.+3178   	; 0x1c8a <__stack+0xb8b>
    1020:	88 30       	cpi	r24, 0x08	; 8
    1022:	e9 f4       	brne	.+58     	; 0x105e <_ZN11interpreter3runEv+0x2b6>
    1024:	48 81       	ld	r20, Y
    1026:	59 81       	ldd	r21, Y+1	; 0x01
    1028:	6a 81       	ldd	r22, Y+2	; 0x02
    102a:	7b 81       	ldd	r23, Y+3	; 0x03
    102c:	4f 5f       	subi	r20, 0xFF	; 255
    102e:	5f 4f       	sbci	r21, 0xFF	; 255
    1030:	6f 4f       	sbci	r22, 0xFF	; 255
    1032:	7f 4f       	sbci	r23, 0xFF	; 255
    1034:	f7 01       	movw	r30, r14
    1036:	80 81       	ld	r24, Z
    1038:	91 81       	ldd	r25, Z+1	; 0x01
    103a:	0e 94 36 0f 	call	0x1e6c	; 0x1e6c <_ZN6memory4readEm>
    103e:	68 2f       	mov	r22, r24
    1040:	c6 01       	movw	r24, r12
    1042:	0e 94 32 01 	call	0x264	; 0x264 <_ZN11interpreter3stxEc>
    1046:	88 81       	ld	r24, Y
    1048:	99 81       	ldd	r25, Y+1	; 0x01
    104a:	aa 81       	ldd	r26, Y+2	; 0x02
    104c:	bb 81       	ldd	r27, Y+3	; 0x03
    104e:	01 96       	adiw	r24, 0x01	; 1
    1050:	a1 1d       	adc	r26, r1
    1052:	b1 1d       	adc	r27, r1
    1054:	88 83       	st	Y, r24
    1056:	99 83       	std	Y+1, r25	; 0x01
    1058:	aa 83       	std	Y+2, r26	; 0x02
    105a:	bb 83       	std	Y+3, r27	; 0x03
    105c:	16 c6       	rjmp	.+3116   	; 0x1c8a <__stack+0xb8b>
    105e:	89 30       	cpi	r24, 0x09	; 9
    1060:	e9 f4       	brne	.+58     	; 0x109c <_ZN11interpreter3runEv+0x2f4>
    1062:	48 81       	ld	r20, Y
    1064:	59 81       	ldd	r21, Y+1	; 0x01
    1066:	6a 81       	ldd	r22, Y+2	; 0x02
    1068:	7b 81       	ldd	r23, Y+3	; 0x03
    106a:	4f 5f       	subi	r20, 0xFF	; 255
    106c:	5f 4f       	sbci	r21, 0xFF	; 255
    106e:	6f 4f       	sbci	r22, 0xFF	; 255
    1070:	7f 4f       	sbci	r23, 0xFF	; 255
    1072:	f7 01       	movw	r30, r14
    1074:	80 81       	ld	r24, Z
    1076:	91 81       	ldd	r25, Z+1	; 0x01
    1078:	0e 94 36 0f 	call	0x1e6c	; 0x1e6c <_ZN6memory4readEm>
    107c:	68 2f       	mov	r22, r24
    107e:	c6 01       	movw	r24, r12
    1080:	0e 94 54 01 	call	0x2a8	; 0x2a8 <_ZN11interpreter3styEc>
    1084:	88 81       	ld	r24, Y
    1086:	99 81       	ldd	r25, Y+1	; 0x01
    1088:	aa 81       	ldd	r26, Y+2	; 0x02
    108a:	bb 81       	ldd	r27, Y+3	; 0x03
    108c:	01 96       	adiw	r24, 0x01	; 1
    108e:	a1 1d       	adc	r26, r1
    1090:	b1 1d       	adc	r27, r1
    1092:	88 83       	st	Y, r24
    1094:	99 83       	std	Y+1, r25	; 0x01
    1096:	aa 83       	std	Y+2, r26	; 0x02
    1098:	bb 83       	std	Y+3, r27	; 0x03
    109a:	f7 c5       	rjmp	.+3054   	; 0x1c8a <__stack+0xb8b>
    109c:	8a 30       	cpi	r24, 0x0A	; 10
    109e:	e9 f4       	brne	.+58     	; 0x10da <_ZN11interpreter3runEv+0x332>
    10a0:	48 81       	ld	r20, Y
    10a2:	59 81       	ldd	r21, Y+1	; 0x01
    10a4:	6a 81       	ldd	r22, Y+2	; 0x02
    10a6:	7b 81       	ldd	r23, Y+3	; 0x03
    10a8:	4f 5f       	subi	r20, 0xFF	; 255
    10aa:	5f 4f       	sbci	r21, 0xFF	; 255
    10ac:	6f 4f       	sbci	r22, 0xFF	; 255
    10ae:	7f 4f       	sbci	r23, 0xFF	; 255
    10b0:	f7 01       	movw	r30, r14
    10b2:	80 81       	ld	r24, Z
    10b4:	91 81       	ldd	r25, Z+1	; 0x01
    10b6:	0e 94 36 0f 	call	0x1e6c	; 0x1e6c <_ZN6memory4readEm>
    10ba:	68 2f       	mov	r22, r24
    10bc:	c6 01       	movw	r24, r12
    10be:	0e 94 76 01 	call	0x2ec	; 0x2ec <_ZN11interpreter3stzEc>
    10c2:	88 81       	ld	r24, Y
    10c4:	99 81       	ldd	r25, Y+1	; 0x01
    10c6:	aa 81       	ldd	r26, Y+2	; 0x02
    10c8:	bb 81       	ldd	r27, Y+3	; 0x03
    10ca:	01 96       	adiw	r24, 0x01	; 1
    10cc:	a1 1d       	adc	r26, r1
    10ce:	b1 1d       	adc	r27, r1
    10d0:	88 83       	st	Y, r24
    10d2:	99 83       	std	Y+1, r25	; 0x01
    10d4:	aa 83       	std	Y+2, r26	; 0x02
    10d6:	bb 83       	std	Y+3, r27	; 0x03
    10d8:	d8 c5       	rjmp	.+2992   	; 0x1c8a <__stack+0xb8b>
    10da:	8b 30       	cpi	r24, 0x0B	; 11
    10dc:	71 f5       	brne	.+92     	; 0x113a <__stack+0x3b>
    10de:	48 81       	ld	r20, Y
    10e0:	59 81       	ldd	r21, Y+1	; 0x01
    10e2:	6a 81       	ldd	r22, Y+2	; 0x02
    10e4:	7b 81       	ldd	r23, Y+3	; 0x03
    10e6:	4f 5f       	subi	r20, 0xFF	; 255
    10e8:	5f 4f       	sbci	r21, 0xFF	; 255
    10ea:	6f 4f       	sbci	r22, 0xFF	; 255
    10ec:	7f 4f       	sbci	r23, 0xFF	; 255
    10ee:	f7 01       	movw	r30, r14
    10f0:	80 81       	ld	r24, Z
    10f2:	91 81       	ldd	r25, Z+1	; 0x01
    10f4:	0e 94 44 0f 	call	0x1e88	; 0x1e88 <_ZN6memory6read32Em>
    10f8:	2b 01       	movw	r4, r22
    10fa:	3c 01       	movw	r6, r24
    10fc:	48 81       	ld	r20, Y
    10fe:	59 81       	ldd	r21, Y+1	; 0x01
    1100:	6a 81       	ldd	r22, Y+2	; 0x02
    1102:	7b 81       	ldd	r23, Y+3	; 0x03
    1104:	4b 5f       	subi	r20, 0xFB	; 251
    1106:	5f 4f       	sbci	r21, 0xFF	; 255
    1108:	6f 4f       	sbci	r22, 0xFF	; 255
    110a:	7f 4f       	sbci	r23, 0xFF	; 255
    110c:	f7 01       	movw	r30, r14
    110e:	80 81       	ld	r24, Z
    1110:	91 81       	ldd	r25, Z+1	; 0x01
    1112:	0e 94 36 0f 	call	0x1e6c	; 0x1e6c <_ZN6memory4readEm>
    1116:	28 2f       	mov	r18, r24
    1118:	b3 01       	movw	r22, r6
    111a:	a2 01       	movw	r20, r4
    111c:	c6 01       	movw	r24, r12
    111e:	0e 94 98 01 	call	0x330	; 0x330 <_ZN11interpreter3stdEmc>
    1122:	88 81       	ld	r24, Y
    1124:	99 81       	ldd	r25, Y+1	; 0x01
    1126:	aa 81       	ldd	r26, Y+2	; 0x02
    1128:	bb 81       	ldd	r27, Y+3	; 0x03
    112a:	05 96       	adiw	r24, 0x05	; 5
    112c:	a1 1d       	adc	r26, r1
    112e:	b1 1d       	adc	r27, r1
    1130:	88 83       	st	Y, r24
    1132:	99 83       	std	Y+1, r25	; 0x01
    1134:	aa 83       	std	Y+2, r26	; 0x02
    1136:	bb 83       	std	Y+3, r27	; 0x03
    1138:	a8 c5       	rjmp	.+2896   	; 0x1c8a <__stack+0xb8b>
    113a:	8c 30       	cpi	r24, 0x0C	; 12
    113c:	71 f5       	brne	.+92     	; 0x119a <__stack+0x9b>
    113e:	48 81       	ld	r20, Y
    1140:	59 81       	ldd	r21, Y+1	; 0x01
    1142:	6a 81       	ldd	r22, Y+2	; 0x02
    1144:	7b 81       	ldd	r23, Y+3	; 0x03
    1146:	4f 5f       	subi	r20, 0xFF	; 255
    1148:	5f 4f       	sbci	r21, 0xFF	; 255
    114a:	6f 4f       	sbci	r22, 0xFF	; 255
    114c:	7f 4f       	sbci	r23, 0xFF	; 255
    114e:	f7 01       	movw	r30, r14
    1150:	80 81       	ld	r24, Z
    1152:	91 81       	ldd	r25, Z+1	; 0x01
    1154:	0e 94 44 0f 	call	0x1e88	; 0x1e88 <_ZN6memory6read32Em>
    1158:	2b 01       	movw	r4, r22
    115a:	3c 01       	movw	r6, r24
    115c:	48 81       	ld	r20, Y
    115e:	59 81       	ldd	r21, Y+1	; 0x01
    1160:	6a 81       	ldd	r22, Y+2	; 0x02
    1162:	7b 81       	ldd	r23, Y+3	; 0x03
    1164:	4b 5f       	subi	r20, 0xFB	; 251
    1166:	5f 4f       	sbci	r21, 0xFF	; 255
    1168:	6f 4f       	sbci	r22, 0xFF	; 255
    116a:	7f 4f       	sbci	r23, 0xFF	; 255
    116c:	f7 01       	movw	r30, r14
    116e:	80 81       	ld	r24, Z
    1170:	91 81       	ldd	r25, Z+1	; 0x01
    1172:	0e 94 36 0f 	call	0x1e6c	; 0x1e6c <_ZN6memory4readEm>
    1176:	28 2f       	mov	r18, r24
    1178:	b3 01       	movw	r22, r6
    117a:	a2 01       	movw	r20, r4
    117c:	c6 01       	movw	r24, r12
    117e:	0e 94 a0 01 	call	0x340	; 0x340 <_ZN11interpreter3svdEmc>
    1182:	88 81       	ld	r24, Y
    1184:	99 81       	ldd	r25, Y+1	; 0x01
    1186:	aa 81       	ldd	r26, Y+2	; 0x02
    1188:	bb 81       	ldd	r27, Y+3	; 0x03
    118a:	05 96       	adiw	r24, 0x05	; 5
    118c:	a1 1d       	adc	r26, r1
    118e:	b1 1d       	adc	r27, r1
    1190:	88 83       	st	Y, r24
    1192:	99 83       	std	Y+1, r25	; 0x01
    1194:	aa 83       	std	Y+2, r26	; 0x02
    1196:	bb 83       	std	Y+3, r27	; 0x03
    1198:	78 c5       	rjmp	.+2800   	; 0x1c8a <__stack+0xb8b>
    119a:	8d 30       	cpi	r24, 0x0D	; 13
    119c:	e9 f4       	brne	.+58     	; 0x11d8 <__stack+0xd9>
    119e:	48 81       	ld	r20, Y
    11a0:	59 81       	ldd	r21, Y+1	; 0x01
    11a2:	6a 81       	ldd	r22, Y+2	; 0x02
    11a4:	7b 81       	ldd	r23, Y+3	; 0x03
    11a6:	4f 5f       	subi	r20, 0xFF	; 255
    11a8:	5f 4f       	sbci	r21, 0xFF	; 255
    11aa:	6f 4f       	sbci	r22, 0xFF	; 255
    11ac:	7f 4f       	sbci	r23, 0xFF	; 255
    11ae:	f7 01       	movw	r30, r14
    11b0:	80 81       	ld	r24, Z
    11b2:	91 81       	ldd	r25, Z+1	; 0x01
    11b4:	0e 94 36 0f 	call	0x1e6c	; 0x1e6c <_ZN6memory4readEm>
    11b8:	68 2f       	mov	r22, r24
    11ba:	c6 01       	movw	r24, r12
    11bc:	0e 94 a8 01 	call	0x350	; 0x350 <_ZN11interpreter3svxEc>
    11c0:	88 81       	ld	r24, Y
    11c2:	99 81       	ldd	r25, Y+1	; 0x01
    11c4:	aa 81       	ldd	r26, Y+2	; 0x02
    11c6:	bb 81       	ldd	r27, Y+3	; 0x03
    11c8:	01 96       	adiw	r24, 0x01	; 1
    11ca:	a1 1d       	adc	r26, r1
    11cc:	b1 1d       	adc	r27, r1
    11ce:	88 83       	st	Y, r24
    11d0:	99 83       	std	Y+1, r25	; 0x01
    11d2:	aa 83       	std	Y+2, r26	; 0x02
    11d4:	bb 83       	std	Y+3, r27	; 0x03
    11d6:	59 c5       	rjmp	.+2738   	; 0x1c8a <__stack+0xb8b>
    11d8:	8e 30       	cpi	r24, 0x0E	; 14
    11da:	e9 f4       	brne	.+58     	; 0x1216 <__stack+0x117>
    11dc:	48 81       	ld	r20, Y
    11de:	59 81       	ldd	r21, Y+1	; 0x01
    11e0:	6a 81       	ldd	r22, Y+2	; 0x02
    11e2:	7b 81       	ldd	r23, Y+3	; 0x03
    11e4:	4f 5f       	subi	r20, 0xFF	; 255
    11e6:	5f 4f       	sbci	r21, 0xFF	; 255
    11e8:	6f 4f       	sbci	r22, 0xFF	; 255
    11ea:	7f 4f       	sbci	r23, 0xFF	; 255
    11ec:	f7 01       	movw	r30, r14
    11ee:	80 81       	ld	r24, Z
    11f0:	91 81       	ldd	r25, Z+1	; 0x01
    11f2:	0e 94 36 0f 	call	0x1e6c	; 0x1e6c <_ZN6memory4readEm>
    11f6:	68 2f       	mov	r22, r24
    11f8:	c6 01       	movw	r24, r12
    11fa:	0e 94 c3 01 	call	0x386	; 0x386 <_ZN11interpreter3svyEc>
    11fe:	88 81       	ld	r24, Y
    1200:	99 81       	ldd	r25, Y+1	; 0x01
    1202:	aa 81       	ldd	r26, Y+2	; 0x02
    1204:	bb 81       	ldd	r27, Y+3	; 0x03
    1206:	01 96       	adiw	r24, 0x01	; 1
    1208:	a1 1d       	adc	r26, r1
    120a:	b1 1d       	adc	r27, r1
    120c:	88 83       	st	Y, r24
    120e:	99 83       	std	Y+1, r25	; 0x01
    1210:	aa 83       	std	Y+2, r26	; 0x02
    1212:	bb 83       	std	Y+3, r27	; 0x03
    1214:	3a c5       	rjmp	.+2676   	; 0x1c8a <__stack+0xb8b>
    1216:	8f 30       	cpi	r24, 0x0F	; 15
    1218:	e9 f4       	brne	.+58     	; 0x1254 <__stack+0x155>
    121a:	48 81       	ld	r20, Y
    121c:	59 81       	ldd	r21, Y+1	; 0x01
    121e:	6a 81       	ldd	r22, Y+2	; 0x02
    1220:	7b 81       	ldd	r23, Y+3	; 0x03
    1222:	4f 5f       	subi	r20, 0xFF	; 255
    1224:	5f 4f       	sbci	r21, 0xFF	; 255
    1226:	6f 4f       	sbci	r22, 0xFF	; 255
    1228:	7f 4f       	sbci	r23, 0xFF	; 255
    122a:	f7 01       	movw	r30, r14
    122c:	80 81       	ld	r24, Z
    122e:	91 81       	ldd	r25, Z+1	; 0x01
    1230:	0e 94 36 0f 	call	0x1e6c	; 0x1e6c <_ZN6memory4readEm>
    1234:	68 2f       	mov	r22, r24
    1236:	c6 01       	movw	r24, r12
    1238:	0e 94 de 01 	call	0x3bc	; 0x3bc <_ZN11interpreter3svzEc>
    123c:	88 81       	ld	r24, Y
    123e:	99 81       	ldd	r25, Y+1	; 0x01
    1240:	aa 81       	ldd	r26, Y+2	; 0x02
    1242:	bb 81       	ldd	r27, Y+3	; 0x03
    1244:	01 96       	adiw	r24, 0x01	; 1
    1246:	a1 1d       	adc	r26, r1
    1248:	b1 1d       	adc	r27, r1
    124a:	88 83       	st	Y, r24
    124c:	99 83       	std	Y+1, r25	; 0x01
    124e:	aa 83       	std	Y+2, r26	; 0x02
    1250:	bb 83       	std	Y+3, r27	; 0x03
    1252:	1b c5       	rjmp	.+2614   	; 0x1c8a <__stack+0xb8b>
    1254:	80 31       	cpi	r24, 0x10	; 16
    1256:	21 f4       	brne	.+8      	; 0x1260 <__stack+0x161>
    1258:	c6 01       	movw	r24, r12
    125a:	0e 94 f9 01 	call	0x3f2	; 0x3f2 <_ZN11interpreter3txsEv>
    125e:	15 c5       	rjmp	.+2602   	; 0x1c8a <__stack+0xb8b>
    1260:	81 31       	cpi	r24, 0x11	; 17
    1262:	21 f4       	brne	.+8      	; 0x126c <__stack+0x16d>
    1264:	c6 01       	movw	r24, r12
    1266:	0e 94 12 02 	call	0x424	; 0x424 <_ZN11interpreter3txyEv>
    126a:	0f c5       	rjmp	.+2590   	; 0x1c8a <__stack+0xb8b>
    126c:	82 31       	cpi	r24, 0x12	; 18
    126e:	21 f4       	brne	.+8      	; 0x1278 <__stack+0x179>
    1270:	c6 01       	movw	r24, r12
    1272:	0e 94 2f 02 	call	0x45e	; 0x45e <_ZN11interpreter3txzEv>
    1276:	09 c5       	rjmp	.+2578   	; 0x1c8a <__stack+0xb8b>
    1278:	83 31       	cpi	r24, 0x13	; 19
    127a:	21 f4       	brne	.+8      	; 0x1284 <__stack+0x185>
    127c:	c6 01       	movw	r24, r12
    127e:	0e 94 4c 02 	call	0x498	; 0x498 <_ZN11interpreter3tysEv>
    1282:	03 c5       	rjmp	.+2566   	; 0x1c8a <__stack+0xb8b>
    1284:	84 31       	cpi	r24, 0x14	; 20
    1286:	21 f4       	brne	.+8      	; 0x1290 <__stack+0x191>
    1288:	c6 01       	movw	r24, r12
    128a:	0e 94 65 02 	call	0x4ca	; 0x4ca <_ZN11interpreter3tyxEv>
    128e:	fd c4       	rjmp	.+2554   	; 0x1c8a <__stack+0xb8b>
    1290:	85 31       	cpi	r24, 0x15	; 21
    1292:	21 f4       	brne	.+8      	; 0x129c <__stack+0x19d>
    1294:	c6 01       	movw	r24, r12
    1296:	0e 94 82 02 	call	0x504	; 0x504 <_ZN11interpreter3tyzEv>
    129a:	f7 c4       	rjmp	.+2542   	; 0x1c8a <__stack+0xb8b>
    129c:	86 31       	cpi	r24, 0x16	; 22
    129e:	21 f4       	brne	.+8      	; 0x12a8 <__stack+0x1a9>
    12a0:	c6 01       	movw	r24, r12
    12a2:	0e 94 9f 02 	call	0x53e	; 0x53e <_ZN11interpreter3tzsEv>
    12a6:	f1 c4       	rjmp	.+2530   	; 0x1c8a <__stack+0xb8b>
    12a8:	87 31       	cpi	r24, 0x17	; 23
    12aa:	21 f4       	brne	.+8      	; 0x12b4 <__stack+0x1b5>
    12ac:	c6 01       	movw	r24, r12
    12ae:	0e 94 b8 02 	call	0x570	; 0x570 <_ZN11interpreter3tzxEv>
    12b2:	eb c4       	rjmp	.+2518   	; 0x1c8a <__stack+0xb8b>
    12b4:	88 31       	cpi	r24, 0x18	; 24
    12b6:	21 f4       	brne	.+8      	; 0x12c0 <__stack+0x1c1>
    12b8:	c6 01       	movw	r24, r12
    12ba:	0e 94 d5 02 	call	0x5aa	; 0x5aa <_ZN11interpreter3tzyEv>
    12be:	e5 c4       	rjmp	.+2506   	; 0x1c8a <__stack+0xb8b>
    12c0:	89 31       	cpi	r24, 0x19	; 25
    12c2:	21 f4       	brne	.+8      	; 0x12cc <__stack+0x1cd>
    12c4:	c6 01       	movw	r24, r12
    12c6:	0e 94 f2 02 	call	0x5e4	; 0x5e4 <_ZN11interpreter3tsxEv>
    12ca:	df c4       	rjmp	.+2494   	; 0x1c8a <__stack+0xb8b>
    12cc:	8a 31       	cpi	r24, 0x1A	; 26
    12ce:	21 f4       	brne	.+8      	; 0x12d8 <__stack+0x1d9>
    12d0:	c6 01       	movw	r24, r12
    12d2:	0e 94 01 03 	call	0x602	; 0x602 <_ZN11interpreter3tsyEv>
    12d6:	d9 c4       	rjmp	.+2482   	; 0x1c8a <__stack+0xb8b>
    12d8:	8b 31       	cpi	r24, 0x1B	; 27
    12da:	21 f4       	brne	.+8      	; 0x12e4 <__stack+0x1e5>
    12dc:	c6 01       	movw	r24, r12
    12de:	0e 94 10 03 	call	0x620	; 0x620 <_ZN11interpreter3tszEv>
    12e2:	d3 c4       	rjmp	.+2470   	; 0x1c8a <__stack+0xb8b>
    12e4:	8c 31       	cpi	r24, 0x1C	; 28
    12e6:	61 f5       	brne	.+88     	; 0x1340 <__stack+0x241>
    12e8:	48 81       	ld	r20, Y
    12ea:	59 81       	ldd	r21, Y+1	; 0x01
    12ec:	6a 81       	ldd	r22, Y+2	; 0x02
    12ee:	7b 81       	ldd	r23, Y+3	; 0x03
    12f0:	4f 5f       	subi	r20, 0xFF	; 255
    12f2:	5f 4f       	sbci	r21, 0xFF	; 255
    12f4:	6f 4f       	sbci	r22, 0xFF	; 255
    12f6:	7f 4f       	sbci	r23, 0xFF	; 255
    12f8:	f7 01       	movw	r30, r14
    12fa:	80 81       	ld	r24, Z
    12fc:	91 81       	ldd	r25, Z+1	; 0x01
    12fe:	0e 94 36 0f 	call	0x1e6c	; 0x1e6c <_ZN6memory4readEm>
    1302:	18 2f       	mov	r17, r24
    1304:	48 81       	ld	r20, Y
    1306:	59 81       	ldd	r21, Y+1	; 0x01
    1308:	6a 81       	ldd	r22, Y+2	; 0x02
    130a:	7b 81       	ldd	r23, Y+3	; 0x03
    130c:	4e 5f       	subi	r20, 0xFE	; 254
    130e:	5f 4f       	sbci	r21, 0xFF	; 255
    1310:	6f 4f       	sbci	r22, 0xFF	; 255
    1312:	7f 4f       	sbci	r23, 0xFF	; 255
    1314:	f7 01       	movw	r30, r14
    1316:	80 81       	ld	r24, Z
    1318:	91 81       	ldd	r25, Z+1	; 0x01
    131a:	0e 94 36 0f 	call	0x1e6c	; 0x1e6c <_ZN6memory4readEm>
    131e:	48 2f       	mov	r20, r24
    1320:	61 2f       	mov	r22, r17
    1322:	c6 01       	movw	r24, r12
    1324:	0e 94 1f 03 	call	0x63e	; 0x63e <_ZN11interpreter3cmpEcc>
    1328:	88 81       	ld	r24, Y
    132a:	99 81       	ldd	r25, Y+1	; 0x01
    132c:	aa 81       	ldd	r26, Y+2	; 0x02
    132e:	bb 81       	ldd	r27, Y+3	; 0x03
    1330:	02 96       	adiw	r24, 0x02	; 2
    1332:	a1 1d       	adc	r26, r1
    1334:	b1 1d       	adc	r27, r1
    1336:	88 83       	st	Y, r24
    1338:	99 83       	std	Y+1, r25	; 0x01
    133a:	aa 83       	std	Y+2, r26	; 0x02
    133c:	bb 83       	std	Y+3, r27	; 0x03
    133e:	a5 c4       	rjmp	.+2378   	; 0x1c8a <__stack+0xb8b>
    1340:	8d 31       	cpi	r24, 0x1D	; 29
    1342:	61 f5       	brne	.+88     	; 0x139c <__stack+0x29d>
    1344:	48 81       	ld	r20, Y
    1346:	59 81       	ldd	r21, Y+1	; 0x01
    1348:	6a 81       	ldd	r22, Y+2	; 0x02
    134a:	7b 81       	ldd	r23, Y+3	; 0x03
    134c:	4f 5f       	subi	r20, 0xFF	; 255
    134e:	5f 4f       	sbci	r21, 0xFF	; 255
    1350:	6f 4f       	sbci	r22, 0xFF	; 255
    1352:	7f 4f       	sbci	r23, 0xFF	; 255
    1354:	f7 01       	movw	r30, r14
    1356:	80 81       	ld	r24, Z
    1358:	91 81       	ldd	r25, Z+1	; 0x01
    135a:	0e 94 36 0f 	call	0x1e6c	; 0x1e6c <_ZN6memory4readEm>
    135e:	18 2f       	mov	r17, r24
    1360:	48 81       	ld	r20, Y
    1362:	59 81       	ldd	r21, Y+1	; 0x01
    1364:	6a 81       	ldd	r22, Y+2	; 0x02
    1366:	7b 81       	ldd	r23, Y+3	; 0x03
    1368:	4e 5f       	subi	r20, 0xFE	; 254
    136a:	5f 4f       	sbci	r21, 0xFF	; 255
    136c:	6f 4f       	sbci	r22, 0xFF	; 255
    136e:	7f 4f       	sbci	r23, 0xFF	; 255
    1370:	f7 01       	movw	r30, r14
    1372:	80 81       	ld	r24, Z
    1374:	91 81       	ldd	r25, Z+1	; 0x01
    1376:	0e 94 36 0f 	call	0x1e6c	; 0x1e6c <_ZN6memory4readEm>
    137a:	48 2f       	mov	r20, r24
    137c:	61 2f       	mov	r22, r17
    137e:	c6 01       	movw	r24, r12
    1380:	0e 94 39 03 	call	0x672	; 0x672 <_ZN11interpreter3cpiEcc>
    1384:	88 81       	ld	r24, Y
    1386:	99 81       	ldd	r25, Y+1	; 0x01
    1388:	aa 81       	ldd	r26, Y+2	; 0x02
    138a:	bb 81       	ldd	r27, Y+3	; 0x03
    138c:	02 96       	adiw	r24, 0x02	; 2
    138e:	a1 1d       	adc	r26, r1
    1390:	b1 1d       	adc	r27, r1
    1392:	88 83       	st	Y, r24
    1394:	99 83       	std	Y+1, r25	; 0x01
    1396:	aa 83       	std	Y+2, r26	; 0x02
    1398:	bb 83       	std	Y+3, r27	; 0x03
    139a:	77 c4       	rjmp	.+2286   	; 0x1c8a <__stack+0xb8b>
    139c:	8e 31       	cpi	r24, 0x1E	; 30
    139e:	09 f5       	brne	.+66     	; 0x13e2 <__stack+0x2e3>
    13a0:	48 81       	ld	r20, Y
    13a2:	59 81       	ldd	r21, Y+1	; 0x01
    13a4:	6a 81       	ldd	r22, Y+2	; 0x02
    13a6:	7b 81       	ldd	r23, Y+3	; 0x03
    13a8:	4f 5f       	subi	r20, 0xFF	; 255
    13aa:	5f 4f       	sbci	r21, 0xFF	; 255
    13ac:	6f 4f       	sbci	r22, 0xFF	; 255
    13ae:	7f 4f       	sbci	r23, 0xFF	; 255
    13b0:	f7 01       	movw	r30, r14
    13b2:	80 81       	ld	r24, Z
    13b4:	91 81       	ldd	r25, Z+1	; 0x01
    13b6:	0e 94 36 0f 	call	0x1e6c	; 0x1e6c <_ZN6memory4readEm>
    13ba:	f6 01       	movw	r30, r12
    13bc:	e8 0f       	add	r30, r24
    13be:	f1 1d       	adc	r31, r1
    13c0:	80 81       	ld	r24, Z
    13c2:	90 e0       	ldi	r25, 0x00	; 0
    13c4:	95 95       	asr	r25
    13c6:	87 95       	ror	r24
    13c8:	80 83       	st	Z, r24
    13ca:	88 81       	ld	r24, Y
    13cc:	99 81       	ldd	r25, Y+1	; 0x01
    13ce:	aa 81       	ldd	r26, Y+2	; 0x02
    13d0:	bb 81       	ldd	r27, Y+3	; 0x03
    13d2:	01 96       	adiw	r24, 0x01	; 1
    13d4:	a1 1d       	adc	r26, r1
    13d6:	b1 1d       	adc	r27, r1
    13d8:	88 83       	st	Y, r24
    13da:	99 83       	std	Y+1, r25	; 0x01
    13dc:	aa 83       	std	Y+2, r26	; 0x02
    13de:	bb 83       	std	Y+3, r27	; 0x03
    13e0:	54 c4       	rjmp	.+2216   	; 0x1c8a <__stack+0xb8b>
    13e2:	8f 31       	cpi	r24, 0x1F	; 31
    13e4:	f9 f4       	brne	.+62     	; 0x1424 <__stack+0x325>
    13e6:	48 81       	ld	r20, Y
    13e8:	59 81       	ldd	r21, Y+1	; 0x01
    13ea:	6a 81       	ldd	r22, Y+2	; 0x02
    13ec:	7b 81       	ldd	r23, Y+3	; 0x03
    13ee:	4f 5f       	subi	r20, 0xFF	; 255
    13f0:	5f 4f       	sbci	r21, 0xFF	; 255
    13f2:	6f 4f       	sbci	r22, 0xFF	; 255
    13f4:	7f 4f       	sbci	r23, 0xFF	; 255
    13f6:	f7 01       	movw	r30, r14
    13f8:	80 81       	ld	r24, Z
    13fa:	91 81       	ldd	r25, Z+1	; 0x01
    13fc:	0e 94 36 0f 	call	0x1e6c	; 0x1e6c <_ZN6memory4readEm>
    1400:	f6 01       	movw	r30, r12
    1402:	e8 0f       	add	r30, r24
    1404:	f1 1d       	adc	r31, r1
    1406:	80 81       	ld	r24, Z
    1408:	88 0f       	add	r24, r24
    140a:	80 83       	st	Z, r24
    140c:	88 81       	ld	r24, Y
    140e:	99 81       	ldd	r25, Y+1	; 0x01
    1410:	aa 81       	ldd	r26, Y+2	; 0x02
    1412:	bb 81       	ldd	r27, Y+3	; 0x03
    1414:	01 96       	adiw	r24, 0x01	; 1
    1416:	a1 1d       	adc	r26, r1
    1418:	b1 1d       	adc	r27, r1
    141a:	88 83       	st	Y, r24
    141c:	99 83       	std	Y+1, r25	; 0x01
    141e:	aa 83       	std	Y+2, r26	; 0x02
    1420:	bb 83       	std	Y+3, r27	; 0x03
    1422:	33 c4       	rjmp	.+2150   	; 0x1c8a <__stack+0xb8b>
    1424:	80 32       	cpi	r24, 0x20	; 32
    1426:	d1 f4       	brne	.+52     	; 0x145c <__stack+0x35d>
    1428:	48 81       	ld	r20, Y
    142a:	59 81       	ldd	r21, Y+1	; 0x01
    142c:	6a 81       	ldd	r22, Y+2	; 0x02
    142e:	7b 81       	ldd	r23, Y+3	; 0x03
    1430:	f7 01       	movw	r30, r14
    1432:	80 81       	ld	r24, Z
    1434:	91 81       	ldd	r25, Z+1	; 0x01
    1436:	0e 94 44 0f 	call	0x1e88	; 0x1e88 <_ZN6memory6read32Em>
    143a:	ab 01       	movw	r20, r22
    143c:	bc 01       	movw	r22, r24
    143e:	c6 01       	movw	r24, r12
    1440:	0e 94 bd 03 	call	0x77a	; 0x77a <_ZN11interpreter4breqEm>
    1444:	88 81       	ld	r24, Y
    1446:	99 81       	ldd	r25, Y+1	; 0x01
    1448:	aa 81       	ldd	r26, Y+2	; 0x02
    144a:	bb 81       	ldd	r27, Y+3	; 0x03
    144c:	04 96       	adiw	r24, 0x04	; 4
    144e:	a1 1d       	adc	r26, r1
    1450:	b1 1d       	adc	r27, r1
    1452:	88 83       	st	Y, r24
    1454:	99 83       	std	Y+1, r25	; 0x01
    1456:	aa 83       	std	Y+2, r26	; 0x02
    1458:	bb 83       	std	Y+3, r27	; 0x03
    145a:	17 c4       	rjmp	.+2094   	; 0x1c8a <__stack+0xb8b>
    145c:	81 32       	cpi	r24, 0x21	; 33
    145e:	11 f5       	brne	.+68     	; 0x14a4 <__stack+0x3a5>
    1460:	48 81       	ld	r20, Y
    1462:	59 81       	ldd	r21, Y+1	; 0x01
    1464:	6a 81       	ldd	r22, Y+2	; 0x02
    1466:	7b 81       	ldd	r23, Y+3	; 0x03
    1468:	f7 01       	movw	r30, r14
    146a:	80 81       	ld	r24, Z
    146c:	91 81       	ldd	r25, Z+1	; 0x01
    146e:	0e 94 44 0f 	call	0x1e88	; 0x1e88 <_ZN6memory6read32Em>
    1472:	48 80       	ld	r4, Y
    1474:	59 80       	ldd	r5, Y+1	; 0x01
    1476:	6a 80       	ldd	r6, Y+2	; 0x02
    1478:	7b 80       	ldd	r7, Y+3	; 0x03
    147a:	ab 01       	movw	r20, r22
    147c:	bc 01       	movw	r22, r24
    147e:	44 0d       	add	r20, r4
    1480:	55 1d       	adc	r21, r5
    1482:	66 1d       	adc	r22, r6
    1484:	77 1d       	adc	r23, r7
    1486:	c6 01       	movw	r24, r12
    1488:	0e 94 c9 03 	call	0x792	; 0x792 <_ZN11interpreter7breqpcfEm>
    148c:	88 81       	ld	r24, Y
    148e:	99 81       	ldd	r25, Y+1	; 0x01
    1490:	aa 81       	ldd	r26, Y+2	; 0x02
    1492:	bb 81       	ldd	r27, Y+3	; 0x03
    1494:	04 96       	adiw	r24, 0x04	; 4
    1496:	a1 1d       	adc	r26, r1
    1498:	b1 1d       	adc	r27, r1
    149a:	88 83       	st	Y, r24
    149c:	99 83       	std	Y+1, r25	; 0x01
    149e:	aa 83       	std	Y+2, r26	; 0x02
    14a0:	bb 83       	std	Y+3, r27	; 0x03
    14a2:	f3 c3       	rjmp	.+2022   	; 0x1c8a <__stack+0xb8b>
    14a4:	82 32       	cpi	r24, 0x22	; 34
    14a6:	21 f5       	brne	.+72     	; 0x14f0 <__stack+0x3f1>
    14a8:	48 81       	ld	r20, Y
    14aa:	59 81       	ldd	r21, Y+1	; 0x01
    14ac:	6a 81       	ldd	r22, Y+2	; 0x02
    14ae:	7b 81       	ldd	r23, Y+3	; 0x03
    14b0:	f7 01       	movw	r30, r14
    14b2:	80 81       	ld	r24, Z
    14b4:	91 81       	ldd	r25, Z+1	; 0x01
    14b6:	0e 94 44 0f 	call	0x1e88	; 0x1e88 <_ZN6memory6read32Em>
    14ba:	48 80       	ld	r4, Y
    14bc:	59 80       	ldd	r5, Y+1	; 0x01
    14be:	6a 80       	ldd	r6, Y+2	; 0x02
    14c0:	7b 80       	ldd	r7, Y+3	; 0x03
    14c2:	93 01       	movw	r18, r6
    14c4:	82 01       	movw	r16, r4
    14c6:	06 1b       	sub	r16, r22
    14c8:	17 0b       	sbc	r17, r23
    14ca:	28 0b       	sbc	r18, r24
    14cc:	39 0b       	sbc	r19, r25
    14ce:	b9 01       	movw	r22, r18
    14d0:	a8 01       	movw	r20, r16
    14d2:	c6 01       	movw	r24, r12
    14d4:	0e 94 dd 03 	call	0x7ba	; 0x7ba <_ZN11interpreter7breqpcbEm>
    14d8:	88 81       	ld	r24, Y
    14da:	99 81       	ldd	r25, Y+1	; 0x01
    14dc:	aa 81       	ldd	r26, Y+2	; 0x02
    14de:	bb 81       	ldd	r27, Y+3	; 0x03
    14e0:	04 96       	adiw	r24, 0x04	; 4
    14e2:	a1 1d       	adc	r26, r1
    14e4:	b1 1d       	adc	r27, r1
    14e6:	88 83       	st	Y, r24
    14e8:	99 83       	std	Y+1, r25	; 0x01
    14ea:	aa 83       	std	Y+2, r26	; 0x02
    14ec:	bb 83       	std	Y+3, r27	; 0x03
    14ee:	cd c3       	rjmp	.+1946   	; 0x1c8a <__stack+0xb8b>
    14f0:	83 32       	cpi	r24, 0x23	; 35
    14f2:	d1 f4       	brne	.+52     	; 0x1528 <__stack+0x429>
    14f4:	48 81       	ld	r20, Y
    14f6:	59 81       	ldd	r21, Y+1	; 0x01
    14f8:	6a 81       	ldd	r22, Y+2	; 0x02
    14fa:	7b 81       	ldd	r23, Y+3	; 0x03
    14fc:	f7 01       	movw	r30, r14
    14fe:	80 81       	ld	r24, Z
    1500:	91 81       	ldd	r25, Z+1	; 0x01
    1502:	0e 94 44 0f 	call	0x1e88	; 0x1e88 <_ZN6memory6read32Em>
    1506:	ab 01       	movw	r20, r22
    1508:	bc 01       	movw	r22, r24
    150a:	c6 01       	movw	r24, r12
    150c:	0e 94 f1 03 	call	0x7e2	; 0x7e2 <_ZN11interpreter4brneEm>
    1510:	88 81       	ld	r24, Y
    1512:	99 81       	ldd	r25, Y+1	; 0x01
    1514:	aa 81       	ldd	r26, Y+2	; 0x02
    1516:	bb 81       	ldd	r27, Y+3	; 0x03
    1518:	04 96       	adiw	r24, 0x04	; 4
    151a:	a1 1d       	adc	r26, r1
    151c:	b1 1d       	adc	r27, r1
    151e:	88 83       	st	Y, r24
    1520:	99 83       	std	Y+1, r25	; 0x01
    1522:	aa 83       	std	Y+2, r26	; 0x02
    1524:	bb 83       	std	Y+3, r27	; 0x03
    1526:	b1 c3       	rjmp	.+1890   	; 0x1c8a <__stack+0xb8b>
    1528:	84 32       	cpi	r24, 0x24	; 36
    152a:	11 f5       	brne	.+68     	; 0x1570 <__stack+0x471>
    152c:	48 81       	ld	r20, Y
    152e:	59 81       	ldd	r21, Y+1	; 0x01
    1530:	6a 81       	ldd	r22, Y+2	; 0x02
    1532:	7b 81       	ldd	r23, Y+3	; 0x03
    1534:	f7 01       	movw	r30, r14
    1536:	80 81       	ld	r24, Z
    1538:	91 81       	ldd	r25, Z+1	; 0x01
    153a:	0e 94 44 0f 	call	0x1e88	; 0x1e88 <_ZN6memory6read32Em>
    153e:	48 80       	ld	r4, Y
    1540:	59 80       	ldd	r5, Y+1	; 0x01
    1542:	6a 80       	ldd	r6, Y+2	; 0x02
    1544:	7b 80       	ldd	r7, Y+3	; 0x03
    1546:	ab 01       	movw	r20, r22
    1548:	bc 01       	movw	r22, r24
    154a:	44 0d       	add	r20, r4
    154c:	55 1d       	adc	r21, r5
    154e:	66 1d       	adc	r22, r6
    1550:	77 1d       	adc	r23, r7
    1552:	c6 01       	movw	r24, r12
    1554:	0e 94 12 04 	call	0x824	; 0x824 <_ZN11interpreter7brnepcfEm>
    1558:	88 81       	ld	r24, Y
    155a:	99 81       	ldd	r25, Y+1	; 0x01
    155c:	aa 81       	ldd	r26, Y+2	; 0x02
    155e:	bb 81       	ldd	r27, Y+3	; 0x03
    1560:	04 96       	adiw	r24, 0x04	; 4
    1562:	a1 1d       	adc	r26, r1
    1564:	b1 1d       	adc	r27, r1
    1566:	88 83       	st	Y, r24
    1568:	99 83       	std	Y+1, r25	; 0x01
    156a:	aa 83       	std	Y+2, r26	; 0x02
    156c:	bb 83       	std	Y+3, r27	; 0x03
    156e:	8d c3       	rjmp	.+1818   	; 0x1c8a <__stack+0xb8b>
    1570:	85 32       	cpi	r24, 0x25	; 37
    1572:	21 f5       	brne	.+72     	; 0x15bc <__stack+0x4bd>
    1574:	48 81       	ld	r20, Y
    1576:	59 81       	ldd	r21, Y+1	; 0x01
    1578:	6a 81       	ldd	r22, Y+2	; 0x02
    157a:	7b 81       	ldd	r23, Y+3	; 0x03
    157c:	f7 01       	movw	r30, r14
    157e:	80 81       	ld	r24, Z
    1580:	91 81       	ldd	r25, Z+1	; 0x01
    1582:	0e 94 44 0f 	call	0x1e88	; 0x1e88 <_ZN6memory6read32Em>
    1586:	48 80       	ld	r4, Y
    1588:	59 80       	ldd	r5, Y+1	; 0x01
    158a:	6a 80       	ldd	r6, Y+2	; 0x02
    158c:	7b 80       	ldd	r7, Y+3	; 0x03
    158e:	93 01       	movw	r18, r6
    1590:	82 01       	movw	r16, r4
    1592:	06 1b       	sub	r16, r22
    1594:	17 0b       	sbc	r17, r23
    1596:	28 0b       	sbc	r18, r24
    1598:	39 0b       	sbc	r19, r25
    159a:	b9 01       	movw	r22, r18
    159c:	a8 01       	movw	r20, r16
    159e:	c6 01       	movw	r24, r12
    15a0:	0e 94 3b 04 	call	0x876	; 0x876 <_ZN11interpreter7brnepcbEm>
    15a4:	88 81       	ld	r24, Y
    15a6:	99 81       	ldd	r25, Y+1	; 0x01
    15a8:	aa 81       	ldd	r26, Y+2	; 0x02
    15aa:	bb 81       	ldd	r27, Y+3	; 0x03
    15ac:	04 96       	adiw	r24, 0x04	; 4
    15ae:	a1 1d       	adc	r26, r1
    15b0:	b1 1d       	adc	r27, r1
    15b2:	88 83       	st	Y, r24
    15b4:	99 83       	std	Y+1, r25	; 0x01
    15b6:	aa 83       	std	Y+2, r26	; 0x02
    15b8:	bb 83       	std	Y+3, r27	; 0x03
    15ba:	67 c3       	rjmp	.+1742   	; 0x1c8a <__stack+0xb8b>
    15bc:	86 32       	cpi	r24, 0x26	; 38
    15be:	d1 f4       	brne	.+52     	; 0x15f4 <__stack+0x4f5>
    15c0:	48 81       	ld	r20, Y
    15c2:	59 81       	ldd	r21, Y+1	; 0x01
    15c4:	6a 81       	ldd	r22, Y+2	; 0x02
    15c6:	7b 81       	ldd	r23, Y+3	; 0x03
    15c8:	f7 01       	movw	r30, r14
    15ca:	80 81       	ld	r24, Z
    15cc:	91 81       	ldd	r25, Z+1	; 0x01
    15ce:	0e 94 44 0f 	call	0x1e88	; 0x1e88 <_ZN6memory6read32Em>
    15d2:	ab 01       	movw	r20, r22
    15d4:	bc 01       	movw	r22, r24
    15d6:	c6 01       	movw	r24, r12
    15d8:	0e 94 64 04 	call	0x8c8	; 0x8c8 <_ZN11interpreter4brgeEm>
    15dc:	88 81       	ld	r24, Y
    15de:	99 81       	ldd	r25, Y+1	; 0x01
    15e0:	aa 81       	ldd	r26, Y+2	; 0x02
    15e2:	bb 81       	ldd	r27, Y+3	; 0x03
    15e4:	04 96       	adiw	r24, 0x04	; 4
    15e6:	a1 1d       	adc	r26, r1
    15e8:	b1 1d       	adc	r27, r1
    15ea:	88 83       	st	Y, r24
    15ec:	99 83       	std	Y+1, r25	; 0x01
    15ee:	aa 83       	std	Y+2, r26	; 0x02
    15f0:	bb 83       	std	Y+3, r27	; 0x03
    15f2:	4b c3       	rjmp	.+1686   	; 0x1c8a <__stack+0xb8b>
    15f4:	87 32       	cpi	r24, 0x27	; 39
    15f6:	11 f5       	brne	.+68     	; 0x163c <__stack+0x53d>
    15f8:	48 81       	ld	r20, Y
    15fa:	59 81       	ldd	r21, Y+1	; 0x01
    15fc:	6a 81       	ldd	r22, Y+2	; 0x02
    15fe:	7b 81       	ldd	r23, Y+3	; 0x03
    1600:	f7 01       	movw	r30, r14
    1602:	80 81       	ld	r24, Z
    1604:	91 81       	ldd	r25, Z+1	; 0x01
    1606:	0e 94 44 0f 	call	0x1e88	; 0x1e88 <_ZN6memory6read32Em>
    160a:	48 80       	ld	r4, Y
    160c:	59 80       	ldd	r5, Y+1	; 0x01
    160e:	6a 80       	ldd	r6, Y+2	; 0x02
    1610:	7b 80       	ldd	r7, Y+3	; 0x03
    1612:	ab 01       	movw	r20, r22
    1614:	bc 01       	movw	r22, r24
    1616:	44 0d       	add	r20, r4
    1618:	55 1d       	adc	r21, r5
    161a:	66 1d       	adc	r22, r6
    161c:	77 1d       	adc	r23, r7
    161e:	c6 01       	movw	r24, r12
    1620:	0e 94 7e 04 	call	0x8fc	; 0x8fc <_ZN11interpreter7brgepcfEm>
    1624:	88 81       	ld	r24, Y
    1626:	99 81       	ldd	r25, Y+1	; 0x01
    1628:	aa 81       	ldd	r26, Y+2	; 0x02
    162a:	bb 81       	ldd	r27, Y+3	; 0x03
    162c:	04 96       	adiw	r24, 0x04	; 4
    162e:	a1 1d       	adc	r26, r1
    1630:	b1 1d       	adc	r27, r1
    1632:	88 83       	st	Y, r24
    1634:	99 83       	std	Y+1, r25	; 0x01
    1636:	aa 83       	std	Y+2, r26	; 0x02
    1638:	bb 83       	std	Y+3, r27	; 0x03
    163a:	27 c3       	rjmp	.+1614   	; 0x1c8a <__stack+0xb8b>
    163c:	88 32       	cpi	r24, 0x28	; 40
    163e:	21 f5       	brne	.+72     	; 0x1688 <__stack+0x589>
    1640:	48 81       	ld	r20, Y
    1642:	59 81       	ldd	r21, Y+1	; 0x01
    1644:	6a 81       	ldd	r22, Y+2	; 0x02
    1646:	7b 81       	ldd	r23, Y+3	; 0x03
    1648:	f7 01       	movw	r30, r14
    164a:	80 81       	ld	r24, Z
    164c:	91 81       	ldd	r25, Z+1	; 0x01
    164e:	0e 94 44 0f 	call	0x1e88	; 0x1e88 <_ZN6memory6read32Em>
    1652:	48 80       	ld	r4, Y
    1654:	59 80       	ldd	r5, Y+1	; 0x01
    1656:	6a 80       	ldd	r6, Y+2	; 0x02
    1658:	7b 80       	ldd	r7, Y+3	; 0x03
    165a:	93 01       	movw	r18, r6
    165c:	82 01       	movw	r16, r4
    165e:	06 1b       	sub	r16, r22
    1660:	17 0b       	sbc	r17, r23
    1662:	28 0b       	sbc	r18, r24
    1664:	39 0b       	sbc	r19, r25
    1666:	b9 01       	movw	r22, r18
    1668:	a8 01       	movw	r20, r16
    166a:	c6 01       	movw	r24, r12
    166c:	0e 94 a0 04 	call	0x940	; 0x940 <_ZN11interpreter7brgepcbEm>
    1670:	88 81       	ld	r24, Y
    1672:	99 81       	ldd	r25, Y+1	; 0x01
    1674:	aa 81       	ldd	r26, Y+2	; 0x02
    1676:	bb 81       	ldd	r27, Y+3	; 0x03
    1678:	04 96       	adiw	r24, 0x04	; 4
    167a:	a1 1d       	adc	r26, r1
    167c:	b1 1d       	adc	r27, r1
    167e:	88 83       	st	Y, r24
    1680:	99 83       	std	Y+1, r25	; 0x01
    1682:	aa 83       	std	Y+2, r26	; 0x02
    1684:	bb 83       	std	Y+3, r27	; 0x03
    1686:	01 c3       	rjmp	.+1538   	; 0x1c8a <__stack+0xb8b>
    1688:	89 32       	cpi	r24, 0x29	; 41
    168a:	d1 f4       	brne	.+52     	; 0x16c0 <__stack+0x5c1>
    168c:	48 81       	ld	r20, Y
    168e:	59 81       	ldd	r21, Y+1	; 0x01
    1690:	6a 81       	ldd	r22, Y+2	; 0x02
    1692:	7b 81       	ldd	r23, Y+3	; 0x03
    1694:	f7 01       	movw	r30, r14
    1696:	80 81       	ld	r24, Z
    1698:	91 81       	ldd	r25, Z+1	; 0x01
    169a:	0e 94 44 0f 	call	0x1e88	; 0x1e88 <_ZN6memory6read32Em>
    169e:	ab 01       	movw	r20, r22
    16a0:	bc 01       	movw	r22, r24
    16a2:	c6 01       	movw	r24, r12
    16a4:	0e 94 c2 04 	call	0x984	; 0x984 <_ZN11interpreter4brleEm>
    16a8:	88 81       	ld	r24, Y
    16aa:	99 81       	ldd	r25, Y+1	; 0x01
    16ac:	aa 81       	ldd	r26, Y+2	; 0x02
    16ae:	bb 81       	ldd	r27, Y+3	; 0x03
    16b0:	04 96       	adiw	r24, 0x04	; 4
    16b2:	a1 1d       	adc	r26, r1
    16b4:	b1 1d       	adc	r27, r1
    16b6:	88 83       	st	Y, r24
    16b8:	99 83       	std	Y+1, r25	; 0x01
    16ba:	aa 83       	std	Y+2, r26	; 0x02
    16bc:	bb 83       	std	Y+3, r27	; 0x03
    16be:	e5 c2       	rjmp	.+1482   	; 0x1c8a <__stack+0xb8b>
    16c0:	8a 32       	cpi	r24, 0x2A	; 42
    16c2:	11 f5       	brne	.+68     	; 0x1708 <__stack+0x609>
    16c4:	48 81       	ld	r20, Y
    16c6:	59 81       	ldd	r21, Y+1	; 0x01
    16c8:	6a 81       	ldd	r22, Y+2	; 0x02
    16ca:	7b 81       	ldd	r23, Y+3	; 0x03
    16cc:	f7 01       	movw	r30, r14
    16ce:	80 81       	ld	r24, Z
    16d0:	91 81       	ldd	r25, Z+1	; 0x01
    16d2:	0e 94 44 0f 	call	0x1e88	; 0x1e88 <_ZN6memory6read32Em>
    16d6:	48 80       	ld	r4, Y
    16d8:	59 80       	ldd	r5, Y+1	; 0x01
    16da:	6a 80       	ldd	r6, Y+2	; 0x02
    16dc:	7b 80       	ldd	r7, Y+3	; 0x03
    16de:	ab 01       	movw	r20, r22
    16e0:	bc 01       	movw	r22, r24
    16e2:	44 0d       	add	r20, r4
    16e4:	55 1d       	adc	r21, r5
    16e6:	66 1d       	adc	r22, r6
    16e8:	77 1d       	adc	r23, r7
    16ea:	c6 01       	movw	r24, r12
    16ec:	0e 94 de 04 	call	0x9bc	; 0x9bc <_ZN11interpreter7brlepcfEm>
    16f0:	88 81       	ld	r24, Y
    16f2:	99 81       	ldd	r25, Y+1	; 0x01
    16f4:	aa 81       	ldd	r26, Y+2	; 0x02
    16f6:	bb 81       	ldd	r27, Y+3	; 0x03
    16f8:	04 96       	adiw	r24, 0x04	; 4
    16fa:	a1 1d       	adc	r26, r1
    16fc:	b1 1d       	adc	r27, r1
    16fe:	88 83       	st	Y, r24
    1700:	99 83       	std	Y+1, r25	; 0x01
    1702:	aa 83       	std	Y+2, r26	; 0x02
    1704:	bb 83       	std	Y+3, r27	; 0x03
    1706:	c1 c2       	rjmp	.+1410   	; 0x1c8a <__stack+0xb8b>
    1708:	8b 32       	cpi	r24, 0x2B	; 43
    170a:	21 f5       	brne	.+72     	; 0x1754 <__stack+0x655>
    170c:	48 81       	ld	r20, Y
    170e:	59 81       	ldd	r21, Y+1	; 0x01
    1710:	6a 81       	ldd	r22, Y+2	; 0x02
    1712:	7b 81       	ldd	r23, Y+3	; 0x03
    1714:	f7 01       	movw	r30, r14
    1716:	80 81       	ld	r24, Z
    1718:	91 81       	ldd	r25, Z+1	; 0x01
    171a:	0e 94 44 0f 	call	0x1e88	; 0x1e88 <_ZN6memory6read32Em>
    171e:	48 80       	ld	r4, Y
    1720:	59 80       	ldd	r5, Y+1	; 0x01
    1722:	6a 80       	ldd	r6, Y+2	; 0x02
    1724:	7b 80       	ldd	r7, Y+3	; 0x03
    1726:	93 01       	movw	r18, r6
    1728:	82 01       	movw	r16, r4
    172a:	06 1b       	sub	r16, r22
    172c:	17 0b       	sbc	r17, r23
    172e:	28 0b       	sbc	r18, r24
    1730:	39 0b       	sbc	r19, r25
    1732:	b9 01       	movw	r22, r18
    1734:	a8 01       	movw	r20, r16
    1736:	c6 01       	movw	r24, r12
    1738:	0e 94 02 05 	call	0xa04	; 0xa04 <_ZN11interpreter7brlepcbEm>
    173c:	88 81       	ld	r24, Y
    173e:	99 81       	ldd	r25, Y+1	; 0x01
    1740:	aa 81       	ldd	r26, Y+2	; 0x02
    1742:	bb 81       	ldd	r27, Y+3	; 0x03
    1744:	04 96       	adiw	r24, 0x04	; 4
    1746:	a1 1d       	adc	r26, r1
    1748:	b1 1d       	adc	r27, r1
    174a:	88 83       	st	Y, r24
    174c:	99 83       	std	Y+1, r25	; 0x01
    174e:	aa 83       	std	Y+2, r26	; 0x02
    1750:	bb 83       	std	Y+3, r27	; 0x03
    1752:	9b c2       	rjmp	.+1334   	; 0x1c8a <__stack+0xb8b>
    1754:	8c 32       	cpi	r24, 0x2C	; 44
    1756:	d1 f4       	brne	.+52     	; 0x178c <__stack+0x68d>
    1758:	48 81       	ld	r20, Y
    175a:	59 81       	ldd	r21, Y+1	; 0x01
    175c:	6a 81       	ldd	r22, Y+2	; 0x02
    175e:	7b 81       	ldd	r23, Y+3	; 0x03
    1760:	f7 01       	movw	r30, r14
    1762:	80 81       	ld	r24, Z
    1764:	91 81       	ldd	r25, Z+1	; 0x01
    1766:	0e 94 44 0f 	call	0x1e88	; 0x1e88 <_ZN6memory6read32Em>
    176a:	ab 01       	movw	r20, r22
    176c:	bc 01       	movw	r22, r24
    176e:	c6 01       	movw	r24, r12
    1770:	0e 94 26 05 	call	0xa4c	; 0xa4c <_ZN11interpreter3brgEm>
    1774:	88 81       	ld	r24, Y
    1776:	99 81       	ldd	r25, Y+1	; 0x01
    1778:	aa 81       	ldd	r26, Y+2	; 0x02
    177a:	bb 81       	ldd	r27, Y+3	; 0x03
    177c:	04 96       	adiw	r24, 0x04	; 4
    177e:	a1 1d       	adc	r26, r1
    1780:	b1 1d       	adc	r27, r1
    1782:	88 83       	st	Y, r24
    1784:	99 83       	std	Y+1, r25	; 0x01
    1786:	aa 83       	std	Y+2, r26	; 0x02
    1788:	bb 83       	std	Y+3, r27	; 0x03
    178a:	7f c2       	rjmp	.+1278   	; 0x1c8a <__stack+0xb8b>
    178c:	8d 32       	cpi	r24, 0x2D	; 45
    178e:	11 f5       	brne	.+68     	; 0x17d4 <__stack+0x6d5>
    1790:	48 81       	ld	r20, Y
    1792:	59 81       	ldd	r21, Y+1	; 0x01
    1794:	6a 81       	ldd	r22, Y+2	; 0x02
    1796:	7b 81       	ldd	r23, Y+3	; 0x03
    1798:	f7 01       	movw	r30, r14
    179a:	80 81       	ld	r24, Z
    179c:	91 81       	ldd	r25, Z+1	; 0x01
    179e:	0e 94 44 0f 	call	0x1e88	; 0x1e88 <_ZN6memory6read32Em>
    17a2:	48 80       	ld	r4, Y
    17a4:	59 80       	ldd	r5, Y+1	; 0x01
    17a6:	6a 80       	ldd	r6, Y+2	; 0x02
    17a8:	7b 80       	ldd	r7, Y+3	; 0x03
    17aa:	ab 01       	movw	r20, r22
    17ac:	bc 01       	movw	r22, r24
    17ae:	44 0d       	add	r20, r4
    17b0:	55 1d       	adc	r21, r5
    17b2:	66 1d       	adc	r22, r6
    17b4:	77 1d       	adc	r23, r7
    17b6:	c6 01       	movw	r24, r12
    17b8:	0e 94 40 05 	call	0xa80	; 0xa80 <_ZN11interpreter6brgpcfEm>
    17bc:	88 81       	ld	r24, Y
    17be:	99 81       	ldd	r25, Y+1	; 0x01
    17c0:	aa 81       	ldd	r26, Y+2	; 0x02
    17c2:	bb 81       	ldd	r27, Y+3	; 0x03
    17c4:	04 96       	adiw	r24, 0x04	; 4
    17c6:	a1 1d       	adc	r26, r1
    17c8:	b1 1d       	adc	r27, r1
    17ca:	88 83       	st	Y, r24
    17cc:	99 83       	std	Y+1, r25	; 0x01
    17ce:	aa 83       	std	Y+2, r26	; 0x02
    17d0:	bb 83       	std	Y+3, r27	; 0x03
    17d2:	5b c2       	rjmp	.+1206   	; 0x1c8a <__stack+0xb8b>
    17d4:	8e 32       	cpi	r24, 0x2E	; 46
    17d6:	21 f5       	brne	.+72     	; 0x1820 <__stack+0x721>
    17d8:	48 81       	ld	r20, Y
    17da:	59 81       	ldd	r21, Y+1	; 0x01
    17dc:	6a 81       	ldd	r22, Y+2	; 0x02
    17de:	7b 81       	ldd	r23, Y+3	; 0x03
    17e0:	f7 01       	movw	r30, r14
    17e2:	80 81       	ld	r24, Z
    17e4:	91 81       	ldd	r25, Z+1	; 0x01
    17e6:	0e 94 44 0f 	call	0x1e88	; 0x1e88 <_ZN6memory6read32Em>
    17ea:	48 80       	ld	r4, Y
    17ec:	59 80       	ldd	r5, Y+1	; 0x01
    17ee:	6a 80       	ldd	r6, Y+2	; 0x02
    17f0:	7b 80       	ldd	r7, Y+3	; 0x03
    17f2:	93 01       	movw	r18, r6
    17f4:	82 01       	movw	r16, r4
    17f6:	06 1b       	sub	r16, r22
    17f8:	17 0b       	sbc	r17, r23
    17fa:	28 0b       	sbc	r18, r24
    17fc:	39 0b       	sbc	r19, r25
    17fe:	b9 01       	movw	r22, r18
    1800:	a8 01       	movw	r20, r16
    1802:	c6 01       	movw	r24, r12
    1804:	0e 94 62 05 	call	0xac4	; 0xac4 <_ZN11interpreter6brgpcbEm>
    1808:	88 81       	ld	r24, Y
    180a:	99 81       	ldd	r25, Y+1	; 0x01
    180c:	aa 81       	ldd	r26, Y+2	; 0x02
    180e:	bb 81       	ldd	r27, Y+3	; 0x03
    1810:	04 96       	adiw	r24, 0x04	; 4
    1812:	a1 1d       	adc	r26, r1
    1814:	b1 1d       	adc	r27, r1
    1816:	88 83       	st	Y, r24
    1818:	99 83       	std	Y+1, r25	; 0x01
    181a:	aa 83       	std	Y+2, r26	; 0x02
    181c:	bb 83       	std	Y+3, r27	; 0x03
    181e:	35 c2       	rjmp	.+1130   	; 0x1c8a <__stack+0xb8b>
    1820:	8f 32       	cpi	r24, 0x2F	; 47
    1822:	d1 f4       	brne	.+52     	; 0x1858 <__stack+0x759>
    1824:	48 81       	ld	r20, Y
    1826:	59 81       	ldd	r21, Y+1	; 0x01
    1828:	6a 81       	ldd	r22, Y+2	; 0x02
    182a:	7b 81       	ldd	r23, Y+3	; 0x03
    182c:	f7 01       	movw	r30, r14
    182e:	80 81       	ld	r24, Z
    1830:	91 81       	ldd	r25, Z+1	; 0x01
    1832:	0e 94 44 0f 	call	0x1e88	; 0x1e88 <_ZN6memory6read32Em>
    1836:	ab 01       	movw	r20, r22
    1838:	bc 01       	movw	r22, r24
    183a:	c6 01       	movw	r24, r12
    183c:	0e 94 84 05 	call	0xb08	; 0xb08 <_ZN11interpreter3brlEm>
    1840:	88 81       	ld	r24, Y
    1842:	99 81       	ldd	r25, Y+1	; 0x01
    1844:	aa 81       	ldd	r26, Y+2	; 0x02
    1846:	bb 81       	ldd	r27, Y+3	; 0x03
    1848:	04 96       	adiw	r24, 0x04	; 4
    184a:	a1 1d       	adc	r26, r1
    184c:	b1 1d       	adc	r27, r1
    184e:	88 83       	st	Y, r24
    1850:	99 83       	std	Y+1, r25	; 0x01
    1852:	aa 83       	std	Y+2, r26	; 0x02
    1854:	bb 83       	std	Y+3, r27	; 0x03
    1856:	19 c2       	rjmp	.+1074   	; 0x1c8a <__stack+0xb8b>
    1858:	80 33       	cpi	r24, 0x30	; 48
    185a:	11 f5       	brne	.+68     	; 0x18a0 <__stack+0x7a1>
    185c:	48 81       	ld	r20, Y
    185e:	59 81       	ldd	r21, Y+1	; 0x01
    1860:	6a 81       	ldd	r22, Y+2	; 0x02
    1862:	7b 81       	ldd	r23, Y+3	; 0x03
    1864:	f7 01       	movw	r30, r14
    1866:	80 81       	ld	r24, Z
    1868:	91 81       	ldd	r25, Z+1	; 0x01
    186a:	0e 94 44 0f 	call	0x1e88	; 0x1e88 <_ZN6memory6read32Em>
    186e:	48 80       	ld	r4, Y
    1870:	59 80       	ldd	r5, Y+1	; 0x01
    1872:	6a 80       	ldd	r6, Y+2	; 0x02
    1874:	7b 80       	ldd	r7, Y+3	; 0x03
    1876:	ab 01       	movw	r20, r22
    1878:	bc 01       	movw	r22, r24
    187a:	44 0d       	add	r20, r4
    187c:	55 1d       	adc	r21, r5
    187e:	66 1d       	adc	r22, r6
    1880:	77 1d       	adc	r23, r7
    1882:	c6 01       	movw	r24, r12
    1884:	0e 94 a0 05 	call	0xb40	; 0xb40 <_ZN11interpreter6brlpcfEm>
    1888:	88 81       	ld	r24, Y
    188a:	99 81       	ldd	r25, Y+1	; 0x01
    188c:	aa 81       	ldd	r26, Y+2	; 0x02
    188e:	bb 81       	ldd	r27, Y+3	; 0x03
    1890:	04 96       	adiw	r24, 0x04	; 4
    1892:	a1 1d       	adc	r26, r1
    1894:	b1 1d       	adc	r27, r1
    1896:	88 83       	st	Y, r24
    1898:	99 83       	std	Y+1, r25	; 0x01
    189a:	aa 83       	std	Y+2, r26	; 0x02
    189c:	bb 83       	std	Y+3, r27	; 0x03
    189e:	f5 c1       	rjmp	.+1002   	; 0x1c8a <__stack+0xb8b>
    18a0:	81 33       	cpi	r24, 0x31	; 49
    18a2:	21 f5       	brne	.+72     	; 0x18ec <__stack+0x7ed>
    18a4:	48 81       	ld	r20, Y
    18a6:	59 81       	ldd	r21, Y+1	; 0x01
    18a8:	6a 81       	ldd	r22, Y+2	; 0x02
    18aa:	7b 81       	ldd	r23, Y+3	; 0x03
    18ac:	f7 01       	movw	r30, r14
    18ae:	80 81       	ld	r24, Z
    18b0:	91 81       	ldd	r25, Z+1	; 0x01
    18b2:	0e 94 44 0f 	call	0x1e88	; 0x1e88 <_ZN6memory6read32Em>
    18b6:	48 80       	ld	r4, Y
    18b8:	59 80       	ldd	r5, Y+1	; 0x01
    18ba:	6a 80       	ldd	r6, Y+2	; 0x02
    18bc:	7b 80       	ldd	r7, Y+3	; 0x03
    18be:	93 01       	movw	r18, r6
    18c0:	82 01       	movw	r16, r4
    18c2:	06 1b       	sub	r16, r22
    18c4:	17 0b       	sbc	r17, r23
    18c6:	28 0b       	sbc	r18, r24
    18c8:	39 0b       	sbc	r19, r25
    18ca:	b9 01       	movw	r22, r18
    18cc:	a8 01       	movw	r20, r16
    18ce:	c6 01       	movw	r24, r12
    18d0:	0e 94 c4 05 	call	0xb88	; 0xb88 <_ZN11interpreter6brlpcbEm>
    18d4:	88 81       	ld	r24, Y
    18d6:	99 81       	ldd	r25, Y+1	; 0x01
    18d8:	aa 81       	ldd	r26, Y+2	; 0x02
    18da:	bb 81       	ldd	r27, Y+3	; 0x03
    18dc:	04 96       	adiw	r24, 0x04	; 4
    18de:	a1 1d       	adc	r26, r1
    18e0:	b1 1d       	adc	r27, r1
    18e2:	88 83       	st	Y, r24
    18e4:	99 83       	std	Y+1, r25	; 0x01
    18e6:	aa 83       	std	Y+2, r26	; 0x02
    18e8:	bb 83       	std	Y+3, r27	; 0x03
    18ea:	cf c1       	rjmp	.+926    	; 0x1c8a <__stack+0xb8b>
    18ec:	82 33       	cpi	r24, 0x32	; 50
    18ee:	e9 f4       	brne	.+58     	; 0x192a <__stack+0x82b>
    18f0:	48 81       	ld	r20, Y
    18f2:	59 81       	ldd	r21, Y+1	; 0x01
    18f4:	6a 81       	ldd	r22, Y+2	; 0x02
    18f6:	7b 81       	ldd	r23, Y+3	; 0x03
    18f8:	4f 5f       	subi	r20, 0xFF	; 255
    18fa:	5f 4f       	sbci	r21, 0xFF	; 255
    18fc:	6f 4f       	sbci	r22, 0xFF	; 255
    18fe:	7f 4f       	sbci	r23, 0xFF	; 255
    1900:	f7 01       	movw	r30, r14
    1902:	80 81       	ld	r24, Z
    1904:	91 81       	ldd	r25, Z+1	; 0x01
    1906:	0e 94 36 0f 	call	0x1e6c	; 0x1e6c <_ZN6memory4readEm>
    190a:	f6 01       	movw	r30, r12
    190c:	e8 0f       	add	r30, r24
    190e:	f1 1d       	adc	r31, r1
    1910:	10 82       	st	Z, r1
    1912:	88 81       	ld	r24, Y
    1914:	99 81       	ldd	r25, Y+1	; 0x01
    1916:	aa 81       	ldd	r26, Y+2	; 0x02
    1918:	bb 81       	ldd	r27, Y+3	; 0x03
    191a:	01 96       	adiw	r24, 0x01	; 1
    191c:	a1 1d       	adc	r26, r1
    191e:	b1 1d       	adc	r27, r1
    1920:	88 83       	st	Y, r24
    1922:	99 83       	std	Y+1, r25	; 0x01
    1924:	aa 83       	std	Y+2, r26	; 0x02
    1926:	bb 83       	std	Y+3, r27	; 0x03
    1928:	b0 c1       	rjmp	.+864    	; 0x1c8a <__stack+0xb8b>
    192a:	83 33       	cpi	r24, 0x33	; 51
    192c:	19 f4       	brne	.+6      	; 0x1934 <__stack+0x835>
    192e:	f5 01       	movw	r30, r10
    1930:	10 82       	st	Z, r1
    1932:	ab c1       	rjmp	.+854    	; 0x1c8a <__stack+0xb8b>
    1934:	84 33       	cpi	r24, 0x34	; 52
    1936:	e9 f4       	brne	.+58     	; 0x1972 <__stack+0x873>
    1938:	48 81       	ld	r20, Y
    193a:	59 81       	ldd	r21, Y+1	; 0x01
    193c:	6a 81       	ldd	r22, Y+2	; 0x02
    193e:	7b 81       	ldd	r23, Y+3	; 0x03
    1940:	4f 5f       	subi	r20, 0xFF	; 255
    1942:	5f 4f       	sbci	r21, 0xFF	; 255
    1944:	6f 4f       	sbci	r22, 0xFF	; 255
    1946:	7f 4f       	sbci	r23, 0xFF	; 255
    1948:	f7 01       	movw	r30, r14
    194a:	80 81       	ld	r24, Z
    194c:	91 81       	ldd	r25, Z+1	; 0x01
    194e:	0e 94 36 0f 	call	0x1e6c	; 0x1e6c <_ZN6memory4readEm>
    1952:	68 2f       	mov	r22, r24
    1954:	c6 01       	movw	r24, r12
    1956:	0e 94 60 06 	call	0xcc0	; 0xcc0 <_ZN11interpreter4swapEc>
    195a:	88 81       	ld	r24, Y
    195c:	99 81       	ldd	r25, Y+1	; 0x01
    195e:	aa 81       	ldd	r26, Y+2	; 0x02
    1960:	bb 81       	ldd	r27, Y+3	; 0x03
    1962:	01 96       	adiw	r24, 0x01	; 1
    1964:	a1 1d       	adc	r26, r1
    1966:	b1 1d       	adc	r27, r1
    1968:	88 83       	st	Y, r24
    196a:	99 83       	std	Y+1, r25	; 0x01
    196c:	aa 83       	std	Y+2, r26	; 0x02
    196e:	bb 83       	std	Y+3, r27	; 0x03
    1970:	8c c1       	rjmp	.+792    	; 0x1c8a <__stack+0xb8b>
    1972:	85 33       	cpi	r24, 0x35	; 53
    1974:	e9 f4       	brne	.+58     	; 0x19b0 <__stack+0x8b1>
    1976:	48 81       	ld	r20, Y
    1978:	59 81       	ldd	r21, Y+1	; 0x01
    197a:	6a 81       	ldd	r22, Y+2	; 0x02
    197c:	7b 81       	ldd	r23, Y+3	; 0x03
    197e:	4f 5f       	subi	r20, 0xFF	; 255
    1980:	5f 4f       	sbci	r21, 0xFF	; 255
    1982:	6f 4f       	sbci	r22, 0xFF	; 255
    1984:	7f 4f       	sbci	r23, 0xFF	; 255
    1986:	f7 01       	movw	r30, r14
    1988:	80 81       	ld	r24, Z
    198a:	91 81       	ldd	r25, Z+1	; 0x01
    198c:	0e 94 36 0f 	call	0x1e6c	; 0x1e6c <_ZN6memory4readEm>
    1990:	68 2f       	mov	r22, r24
    1992:	c6 01       	movw	r24, r12
    1994:	0e 94 52 06 	call	0xca4	; 0xca4 <_ZN11interpreter3popEc>
    1998:	88 81       	ld	r24, Y
    199a:	99 81       	ldd	r25, Y+1	; 0x01
    199c:	aa 81       	ldd	r26, Y+2	; 0x02
    199e:	bb 81       	ldd	r27, Y+3	; 0x03
    19a0:	01 96       	adiw	r24, 0x01	; 1
    19a2:	a1 1d       	adc	r26, r1
    19a4:	b1 1d       	adc	r27, r1
    19a6:	88 83       	st	Y, r24
    19a8:	99 83       	std	Y+1, r25	; 0x01
    19aa:	aa 83       	std	Y+2, r26	; 0x02
    19ac:	bb 83       	std	Y+3, r27	; 0x03
    19ae:	6d c1       	rjmp	.+730    	; 0x1c8a <__stack+0xb8b>
    19b0:	86 33       	cpi	r24, 0x36	; 54
    19b2:	e9 f4       	brne	.+58     	; 0x19ee <__stack+0x8ef>
    19b4:	48 81       	ld	r20, Y
    19b6:	59 81       	ldd	r21, Y+1	; 0x01
    19b8:	6a 81       	ldd	r22, Y+2	; 0x02
    19ba:	7b 81       	ldd	r23, Y+3	; 0x03
    19bc:	4f 5f       	subi	r20, 0xFF	; 255
    19be:	5f 4f       	sbci	r21, 0xFF	; 255
    19c0:	6f 4f       	sbci	r22, 0xFF	; 255
    19c2:	7f 4f       	sbci	r23, 0xFF	; 255
    19c4:	f7 01       	movw	r30, r14
    19c6:	80 81       	ld	r24, Z
    19c8:	91 81       	ldd	r25, Z+1	; 0x01
    19ca:	0e 94 36 0f 	call	0x1e6c	; 0x1e6c <_ZN6memory4readEm>
    19ce:	68 2f       	mov	r22, r24
    19d0:	c6 01       	movw	r24, r12
    19d2:	0e 94 e8 05 	call	0xbd0	; 0xbd0 <_ZN11interpreter4pushEc>
    19d6:	88 81       	ld	r24, Y
    19d8:	99 81       	ldd	r25, Y+1	; 0x01
    19da:	aa 81       	ldd	r26, Y+2	; 0x02
    19dc:	bb 81       	ldd	r27, Y+3	; 0x03
    19de:	01 96       	adiw	r24, 0x01	; 1
    19e0:	a1 1d       	adc	r26, r1
    19e2:	b1 1d       	adc	r27, r1
    19e4:	88 83       	st	Y, r24
    19e6:	99 83       	std	Y+1, r25	; 0x01
    19e8:	aa 83       	std	Y+2, r26	; 0x02
    19ea:	bb 83       	std	Y+3, r27	; 0x03
    19ec:	4e c1       	rjmp	.+668    	; 0x1c8a <__stack+0xb8b>
    19ee:	87 33       	cpi	r24, 0x37	; 55
    19f0:	b1 f5       	brne	.+108    	; 0x1a5e <__stack+0x95f>
    19f2:	48 81       	ld	r20, Y
    19f4:	59 81       	ldd	r21, Y+1	; 0x01
    19f6:	6a 81       	ldd	r22, Y+2	; 0x02
    19f8:	7b 81       	ldd	r23, Y+3	; 0x03
    19fa:	4f 5f       	subi	r20, 0xFF	; 255
    19fc:	5f 4f       	sbci	r21, 0xFF	; 255
    19fe:	6f 4f       	sbci	r22, 0xFF	; 255
    1a00:	7f 4f       	sbci	r23, 0xFF	; 255
    1a02:	f7 01       	movw	r30, r14
    1a04:	80 81       	ld	r24, Z
    1a06:	91 81       	ldd	r25, Z+1	; 0x01
    1a08:	0e 94 36 0f 	call	0x1e6c	; 0x1e6c <_ZN6memory4readEm>
    1a0c:	e8 2f       	mov	r30, r24
    1a0e:	f0 e0       	ldi	r31, 0x00	; 0
    1a10:	ee 0f       	add	r30, r30
    1a12:	ff 1f       	adc	r31, r31
    1a14:	ec 0d       	add	r30, r12
    1a16:	fd 1d       	adc	r31, r13
    1a18:	eb 5e       	subi	r30, 0xEB	; 235
    1a1a:	fe 4f       	sbci	r31, 0xFE	; 254
    1a1c:	01 90       	ld	r0, Z+
    1a1e:	f0 81       	ld	r31, Z
    1a20:	e0 2d       	mov	r30, r0
    1a22:	a2 81       	ldd	r26, Z+2	; 0x02
    1a24:	b3 81       	ldd	r27, Z+3	; 0x03
    1a26:	6c 91       	ld	r22, X
    1a28:	70 e0       	ldi	r23, 0x00	; 0
    1a2a:	76 2f       	mov	r23, r22
    1a2c:	66 27       	eor	r22, r22
    1a2e:	01 90       	ld	r0, Z+
    1a30:	f0 81       	ld	r31, Z
    1a32:	e0 2d       	mov	r30, r0
    1a34:	80 81       	ld	r24, Z
    1a36:	68 2b       	or	r22, r24
    1a38:	07 2e       	mov	r0, r23
    1a3a:	00 0c       	add	r0, r0
    1a3c:	88 0b       	sbc	r24, r24
    1a3e:	99 0b       	sbc	r25, r25
    1a40:	c6 01       	movw	r24, r12
    1a42:	0e 94 e8 05 	call	0xbd0	; 0xbd0 <_ZN11interpreter4pushEc>
    1a46:	88 81       	ld	r24, Y
    1a48:	99 81       	ldd	r25, Y+1	; 0x01
    1a4a:	aa 81       	ldd	r26, Y+2	; 0x02
    1a4c:	bb 81       	ldd	r27, Y+3	; 0x03
    1a4e:	01 96       	adiw	r24, 0x01	; 1
    1a50:	a1 1d       	adc	r26, r1
    1a52:	b1 1d       	adc	r27, r1
    1a54:	88 83       	st	Y, r24
    1a56:	99 83       	std	Y+1, r25	; 0x01
    1a58:	aa 83       	std	Y+2, r26	; 0x02
    1a5a:	bb 83       	std	Y+3, r27	; 0x03
    1a5c:	16 c1       	rjmp	.+556    	; 0x1c8a <__stack+0xb8b>
    1a5e:	88 33       	cpi	r24, 0x38	; 56
    1a60:	e9 f4       	brne	.+58     	; 0x1a9c <__stack+0x99d>
    1a62:	48 81       	ld	r20, Y
    1a64:	59 81       	ldd	r21, Y+1	; 0x01
    1a66:	6a 81       	ldd	r22, Y+2	; 0x02
    1a68:	7b 81       	ldd	r23, Y+3	; 0x03
    1a6a:	4f 5f       	subi	r20, 0xFF	; 255
    1a6c:	5f 4f       	sbci	r21, 0xFF	; 255
    1a6e:	6f 4f       	sbci	r22, 0xFF	; 255
    1a70:	7f 4f       	sbci	r23, 0xFF	; 255
    1a72:	f7 01       	movw	r30, r14
    1a74:	80 81       	ld	r24, Z
    1a76:	91 81       	ldd	r25, Z+1	; 0x01
    1a78:	0e 94 36 0f 	call	0x1e6c	; 0x1e6c <_ZN6memory4readEm>
    1a7c:	68 2f       	mov	r22, r24
    1a7e:	c6 01       	movw	r24, r12
    1a80:	0e 94 20 06 	call	0xc40	; 0xc40 <_ZN11interpreter5pushiEh>
    1a84:	88 81       	ld	r24, Y
    1a86:	99 81       	ldd	r25, Y+1	; 0x01
    1a88:	aa 81       	ldd	r26, Y+2	; 0x02
    1a8a:	bb 81       	ldd	r27, Y+3	; 0x03
    1a8c:	01 96       	adiw	r24, 0x01	; 1
    1a8e:	a1 1d       	adc	r26, r1
    1a90:	b1 1d       	adc	r27, r1
    1a92:	88 83       	st	Y, r24
    1a94:	99 83       	std	Y+1, r25	; 0x01
    1a96:	aa 83       	std	Y+2, r26	; 0x02
    1a98:	bb 83       	std	Y+3, r27	; 0x03
    1a9a:	f7 c0       	rjmp	.+494    	; 0x1c8a <__stack+0xb8b>
    1a9c:	89 33       	cpi	r24, 0x39	; 57
    1a9e:	e9 f4       	brne	.+58     	; 0x1ada <__stack+0x9db>
    1aa0:	48 81       	ld	r20, Y
    1aa2:	59 81       	ldd	r21, Y+1	; 0x01
    1aa4:	6a 81       	ldd	r22, Y+2	; 0x02
    1aa6:	7b 81       	ldd	r23, Y+3	; 0x03
    1aa8:	4f 5f       	subi	r20, 0xFF	; 255
    1aaa:	5f 4f       	sbci	r21, 0xFF	; 255
    1aac:	6f 4f       	sbci	r22, 0xFF	; 255
    1aae:	7f 4f       	sbci	r23, 0xFF	; 255
    1ab0:	f7 01       	movw	r30, r14
    1ab2:	80 81       	ld	r24, Z
    1ab4:	91 81       	ldd	r25, Z+1	; 0x01
    1ab6:	0e 94 36 0f 	call	0x1e6c	; 0x1e6c <_ZN6memory4readEm>
    1aba:	68 2f       	mov	r22, r24
    1abc:	c6 01       	movw	r24, r12
    1abe:	0e 94 f3 00 	call	0x1e6	; 0x1e6 <_ZN11interpreter3ldxEc>
    1ac2:	88 81       	ld	r24, Y
    1ac4:	99 81       	ldd	r25, Y+1	; 0x01
    1ac6:	aa 81       	ldd	r26, Y+2	; 0x02
    1ac8:	bb 81       	ldd	r27, Y+3	; 0x03
    1aca:	01 96       	adiw	r24, 0x01	; 1
    1acc:	a1 1d       	adc	r26, r1
    1ace:	b1 1d       	adc	r27, r1
    1ad0:	88 83       	st	Y, r24
    1ad2:	99 83       	std	Y+1, r25	; 0x01
    1ad4:	aa 83       	std	Y+2, r26	; 0x02
    1ad6:	bb 83       	std	Y+3, r27	; 0x03
    1ad8:	d8 c0       	rjmp	.+432    	; 0x1c8a <__stack+0xb8b>
    1ada:	8a 33       	cpi	r24, 0x3A	; 58
    1adc:	e9 f4       	brne	.+58     	; 0x1b18 <__stack+0xa19>
    1ade:	48 81       	ld	r20, Y
    1ae0:	59 81       	ldd	r21, Y+1	; 0x01
    1ae2:	6a 81       	ldd	r22, Y+2	; 0x02
    1ae4:	7b 81       	ldd	r23, Y+3	; 0x03
    1ae6:	4f 5f       	subi	r20, 0xFF	; 255
    1ae8:	5f 4f       	sbci	r21, 0xFF	; 255
    1aea:	6f 4f       	sbci	r22, 0xFF	; 255
    1aec:	7f 4f       	sbci	r23, 0xFF	; 255
    1aee:	f7 01       	movw	r30, r14
    1af0:	80 81       	ld	r24, Z
    1af2:	91 81       	ldd	r25, Z+1	; 0x01
    1af4:	0e 94 36 0f 	call	0x1e6c	; 0x1e6c <_ZN6memory4readEm>
    1af8:	68 2f       	mov	r22, r24
    1afa:	c6 01       	movw	r24, r12
    1afc:	0e 94 08 01 	call	0x210	; 0x210 <_ZN11interpreter3ldyEc>
    1b00:	88 81       	ld	r24, Y
    1b02:	99 81       	ldd	r25, Y+1	; 0x01
    1b04:	aa 81       	ldd	r26, Y+2	; 0x02
    1b06:	bb 81       	ldd	r27, Y+3	; 0x03
    1b08:	01 96       	adiw	r24, 0x01	; 1
    1b0a:	a1 1d       	adc	r26, r1
    1b0c:	b1 1d       	adc	r27, r1
    1b0e:	88 83       	st	Y, r24
    1b10:	99 83       	std	Y+1, r25	; 0x01
    1b12:	aa 83       	std	Y+2, r26	; 0x02
    1b14:	bb 83       	std	Y+3, r27	; 0x03
    1b16:	b9 c0       	rjmp	.+370    	; 0x1c8a <__stack+0xb8b>
    1b18:	8b 33       	cpi	r24, 0x3B	; 59
    1b1a:	e9 f4       	brne	.+58     	; 0x1b56 <__stack+0xa57>
    1b1c:	48 81       	ld	r20, Y
    1b1e:	59 81       	ldd	r21, Y+1	; 0x01
    1b20:	6a 81       	ldd	r22, Y+2	; 0x02
    1b22:	7b 81       	ldd	r23, Y+3	; 0x03
    1b24:	4f 5f       	subi	r20, 0xFF	; 255
    1b26:	5f 4f       	sbci	r21, 0xFF	; 255
    1b28:	6f 4f       	sbci	r22, 0xFF	; 255
    1b2a:	7f 4f       	sbci	r23, 0xFF	; 255
    1b2c:	f7 01       	movw	r30, r14
    1b2e:	80 81       	ld	r24, Z
    1b30:	91 81       	ldd	r25, Z+1	; 0x01
    1b32:	0e 94 36 0f 	call	0x1e6c	; 0x1e6c <_ZN6memory4readEm>
    1b36:	68 2f       	mov	r22, r24
    1b38:	c6 01       	movw	r24, r12
    1b3a:	0e 94 1d 01 	call	0x23a	; 0x23a <_ZN11interpreter3ldzEc>
    1b3e:	88 81       	ld	r24, Y
    1b40:	99 81       	ldd	r25, Y+1	; 0x01
    1b42:	aa 81       	ldd	r26, Y+2	; 0x02
    1b44:	bb 81       	ldd	r27, Y+3	; 0x03
    1b46:	01 96       	adiw	r24, 0x01	; 1
    1b48:	a1 1d       	adc	r26, r1
    1b4a:	b1 1d       	adc	r27, r1
    1b4c:	88 83       	st	Y, r24
    1b4e:	99 83       	std	Y+1, r25	; 0x01
    1b50:	aa 83       	std	Y+2, r26	; 0x02
    1b52:	bb 83       	std	Y+3, r27	; 0x03
    1b54:	9a c0       	rjmp	.+308    	; 0x1c8a <__stack+0xb8b>
    1b56:	8c 33       	cpi	r24, 0x3C	; 60
    1b58:	21 f4       	brne	.+8      	; 0x1b62 <__stack+0xa63>
    1b5a:	c6 01       	movw	r24, r12
    1b5c:	0e 94 a9 06 	call	0xd52	; 0xd52 <_ZN11interpreter3retEv>
    1b60:	94 c0       	rjmp	.+296    	; 0x1c8a <__stack+0xb8b>
    1b62:	8d 33       	cpi	r24, 0x3D	; 61
    1b64:	99 f4       	brne	.+38     	; 0x1b8c <__stack+0xa8d>
    1b66:	48 81       	ld	r20, Y
    1b68:	59 81       	ldd	r21, Y+1	; 0x01
    1b6a:	6a 81       	ldd	r22, Y+2	; 0x02
    1b6c:	7b 81       	ldd	r23, Y+3	; 0x03
    1b6e:	f7 01       	movw	r30, r14
    1b70:	80 81       	ld	r24, Z
    1b72:	91 81       	ldd	r25, Z+1	; 0x01
    1b74:	0e 94 44 0f 	call	0x1e88	; 0x1e88 <_ZN6memory6read32Em>
    1b78:	dc 01       	movw	r26, r24
    1b7a:	cb 01       	movw	r24, r22
    1b7c:	04 96       	adiw	r24, 0x04	; 4
    1b7e:	a1 1d       	adc	r26, r1
    1b80:	b1 1d       	adc	r27, r1
    1b82:	88 83       	st	Y, r24
    1b84:	99 83       	std	Y+1, r25	; 0x01
    1b86:	aa 83       	std	Y+2, r26	; 0x02
    1b88:	bb 83       	std	Y+3, r27	; 0x03
    1b8a:	7f c0       	rjmp	.+254    	; 0x1c8a <__stack+0xb8b>
    1b8c:	8e 33       	cpi	r24, 0x3E	; 62
    1b8e:	d1 f4       	brne	.+52     	; 0x1bc4 <__stack+0xac5>
    1b90:	48 81       	ld	r20, Y
    1b92:	59 81       	ldd	r21, Y+1	; 0x01
    1b94:	6a 81       	ldd	r22, Y+2	; 0x02
    1b96:	7b 81       	ldd	r23, Y+3	; 0x03
    1b98:	f7 01       	movw	r30, r14
    1b9a:	80 81       	ld	r24, Z
    1b9c:	91 81       	ldd	r25, Z+1	; 0x01
    1b9e:	0e 94 44 0f 	call	0x1e88	; 0x1e88 <_ZN6memory6read32Em>
    1ba2:	ab 01       	movw	r20, r22
    1ba4:	bc 01       	movw	r22, r24
    1ba6:	c6 01       	movw	r24, r12
    1ba8:	0e 94 04 06 	call	0xc08	; 0xc08 <_ZN11interpreter4callEm>
    1bac:	88 81       	ld	r24, Y
    1bae:	99 81       	ldd	r25, Y+1	; 0x01
    1bb0:	aa 81       	ldd	r26, Y+2	; 0x02
    1bb2:	bb 81       	ldd	r27, Y+3	; 0x03
    1bb4:	04 96       	adiw	r24, 0x04	; 4
    1bb6:	a1 1d       	adc	r26, r1
    1bb8:	b1 1d       	adc	r27, r1
    1bba:	88 83       	st	Y, r24
    1bbc:	99 83       	std	Y+1, r25	; 0x01
    1bbe:	aa 83       	std	Y+2, r26	; 0x02
    1bc0:	bb 83       	std	Y+3, r27	; 0x03
    1bc2:	63 c0       	rjmp	.+198    	; 0x1c8a <__stack+0xb8b>
    1bc4:	8f 33       	cpi	r24, 0x3F	; 63
    1bc6:	69 f5       	brne	.+90     	; 0x1c22 <__stack+0xb23>
    1bc8:	48 81       	ld	r20, Y
    1bca:	59 81       	ldd	r21, Y+1	; 0x01
    1bcc:	6a 81       	ldd	r22, Y+2	; 0x02
    1bce:	7b 81       	ldd	r23, Y+3	; 0x03
    1bd0:	4f 5f       	subi	r20, 0xFF	; 255
    1bd2:	5f 4f       	sbci	r21, 0xFF	; 255
    1bd4:	6f 4f       	sbci	r22, 0xFF	; 255
    1bd6:	7f 4f       	sbci	r23, 0xFF	; 255
    1bd8:	f7 01       	movw	r30, r14
    1bda:	80 81       	ld	r24, Z
    1bdc:	91 81       	ldd	r25, Z+1	; 0x01
    1bde:	0e 94 36 0f 	call	0x1e6c	; 0x1e6c <_ZN6memory4readEm>
    1be2:	18 2f       	mov	r17, r24
    1be4:	48 81       	ld	r20, Y
    1be6:	59 81       	ldd	r21, Y+1	; 0x01
    1be8:	6a 81       	ldd	r22, Y+2	; 0x02
    1bea:	7b 81       	ldd	r23, Y+3	; 0x03
    1bec:	4e 5f       	subi	r20, 0xFE	; 254
    1bee:	5f 4f       	sbci	r21, 0xFF	; 255
    1bf0:	6f 4f       	sbci	r22, 0xFF	; 255
    1bf2:	7f 4f       	sbci	r23, 0xFF	; 255
    1bf4:	f7 01       	movw	r30, r14
    1bf6:	80 81       	ld	r24, Z
    1bf8:	91 81       	ldd	r25, Z+1	; 0x01
    1bfa:	0e 94 44 0f 	call	0x1e88	; 0x1e88 <_ZN6memory6read32Em>
    1bfe:	9b 01       	movw	r18, r22
    1c00:	ac 01       	movw	r20, r24
    1c02:	61 2f       	mov	r22, r17
    1c04:	c6 01       	movw	r24, r12
    1c06:	0e 94 53 03 	call	0x6a6	; 0x6a6 <_ZN11interpreter3cpmEcm>
    1c0a:	88 81       	ld	r24, Y
    1c0c:	99 81       	ldd	r25, Y+1	; 0x01
    1c0e:	aa 81       	ldd	r26, Y+2	; 0x02
    1c10:	bb 81       	ldd	r27, Y+3	; 0x03
    1c12:	05 96       	adiw	r24, 0x05	; 5
    1c14:	a1 1d       	adc	r26, r1
    1c16:	b1 1d       	adc	r27, r1
    1c18:	88 83       	st	Y, r24
    1c1a:	99 83       	std	Y+1, r25	; 0x01
    1c1c:	aa 83       	std	Y+2, r26	; 0x02
    1c1e:	bb 83       	std	Y+3, r27	; 0x03
    1c20:	34 c0       	rjmp	.+104    	; 0x1c8a <__stack+0xb8b>
    1c22:	80 34       	cpi	r24, 0x40	; 64
    1c24:	79 f5       	brne	.+94     	; 0x1c84 <__stack+0xb85>
    1c26:	48 81       	ld	r20, Y
    1c28:	59 81       	ldd	r21, Y+1	; 0x01
    1c2a:	6a 81       	ldd	r22, Y+2	; 0x02
    1c2c:	7b 81       	ldd	r23, Y+3	; 0x03
    1c2e:	4f 5f       	subi	r20, 0xFF	; 255
    1c30:	5f 4f       	sbci	r21, 0xFF	; 255
    1c32:	6f 4f       	sbci	r22, 0xFF	; 255
    1c34:	7f 4f       	sbci	r23, 0xFF	; 255
    1c36:	f7 01       	movw	r30, r14
    1c38:	80 81       	ld	r24, Z
    1c3a:	91 81       	ldd	r25, Z+1	; 0x01
    1c3c:	0e 94 44 0f 	call	0x1e88	; 0x1e88 <_ZN6memory6read32Em>
    1c40:	2b 01       	movw	r4, r22
    1c42:	3c 01       	movw	r6, r24
    1c44:	48 81       	ld	r20, Y
    1c46:	59 81       	ldd	r21, Y+1	; 0x01
    1c48:	6a 81       	ldd	r22, Y+2	; 0x02
    1c4a:	7b 81       	ldd	r23, Y+3	; 0x03
    1c4c:	4b 5f       	subi	r20, 0xFB	; 251
    1c4e:	5f 4f       	sbci	r21, 0xFF	; 255
    1c50:	6f 4f       	sbci	r22, 0xFF	; 255
    1c52:	7f 4f       	sbci	r23, 0xFF	; 255
    1c54:	f7 01       	movw	r30, r14
    1c56:	80 81       	ld	r24, Z
    1c58:	91 81       	ldd	r25, Z+1	; 0x01
    1c5a:	0e 94 44 0f 	call	0x1e88	; 0x1e88 <_ZN6memory6read32Em>
    1c5e:	8b 01       	movw	r16, r22
    1c60:	9c 01       	movw	r18, r24
    1c62:	b3 01       	movw	r22, r6
    1c64:	a2 01       	movw	r20, r4
    1c66:	c6 01       	movw	r24, r12
    1c68:	0e 94 7c 03 	call	0x6f8	; 0x6f8 <_ZN11interpreter3cpmEmm>
    1c6c:	88 81       	ld	r24, Y
    1c6e:	99 81       	ldd	r25, Y+1	; 0x01
    1c70:	aa 81       	ldd	r26, Y+2	; 0x02
    1c72:	bb 81       	ldd	r27, Y+3	; 0x03
    1c74:	08 96       	adiw	r24, 0x08	; 8
    1c76:	a1 1d       	adc	r26, r1
    1c78:	b1 1d       	adc	r27, r1
    1c7a:	88 83       	st	Y, r24
    1c7c:	99 83       	std	Y+1, r25	; 0x01
    1c7e:	aa 83       	std	Y+2, r26	; 0x02
    1c80:	bb 83       	std	Y+3, r27	; 0x03
    1c82:	03 c0       	rjmp	.+6      	; 0x1c8a <__stack+0xb8b>
    1c84:	8f 3f       	cpi	r24, 0xFF	; 255
    1c86:	09 f4       	brne	.+2      	; 0x1c8a <__stack+0xb8b>
    1c88:	00 00       	nop
    1c8a:	88 81       	ld	r24, Y
    1c8c:	99 81       	ldd	r25, Y+1	; 0x01
    1c8e:	aa 81       	ldd	r26, Y+2	; 0x02
    1c90:	bb 81       	ldd	r27, Y+3	; 0x03
    1c92:	01 96       	adiw	r24, 0x01	; 1
    1c94:	a1 1d       	adc	r26, r1
    1c96:	b1 1d       	adc	r27, r1
    1c98:	88 83       	st	Y, r24
    1c9a:	99 83       	std	Y+1, r25	; 0x01
    1c9c:	aa 83       	std	Y+2, r26	; 0x02
    1c9e:	bb 83       	std	Y+3, r27	; 0x03
    1ca0:	9f c8       	rjmp	.-3778   	; 0xde0 <_ZN11interpreter3runEv+0x38>
    1ca2:	f6 01       	movw	r30, r12
    1ca4:	ef 5e       	subi	r30, 0xEF	; 239
    1ca6:	fe 4f       	sbci	r31, 0xFE	; 254
    1ca8:	10 82       	st	Z, r1
    1caa:	11 82       	std	Z+1, r1	; 0x01
    1cac:	12 82       	std	Z+2, r1	; 0x02
    1cae:	13 82       	std	Z+3, r1	; 0x03
    1cb0:	85 e6       	ldi	r24, 0x65	; 101
    1cb2:	01 c0       	rjmp	.+2      	; 0x1cb6 <__stack+0xbb7>
    1cb4:	82 e6       	ldi	r24, 0x62	; 98
    1cb6:	df 91       	pop	r29
    1cb8:	cf 91       	pop	r28
    1cba:	1f 91       	pop	r17
    1cbc:	0f 91       	pop	r16
    1cbe:	ff 90       	pop	r15
    1cc0:	ef 90       	pop	r14
    1cc2:	df 90       	pop	r13
    1cc4:	cf 90       	pop	r12
    1cc6:	bf 90       	pop	r11
    1cc8:	af 90       	pop	r10
    1cca:	7f 90       	pop	r7
    1ccc:	6f 90       	pop	r6
    1cce:	5f 90       	pop	r5
    1cd0:	4f 90       	pop	r4
    1cd2:	08 95       	ret

00001cd4 <_ZN11interpreterD1Ev>:
// default destructor
interpreter::~interpreter()
    1cd4:	08 95       	ret

00001cd6 <_ZN14portcontrollerC1Ev>:
    1cd6:	08 95       	ret

00001cd8 <_ZN14portcontroller9readportdEv>:
    1cd8:	89 b1       	in	r24, 0x09	; 9
    1cda:	08 95       	ret

00001cdc <_ZN14portcontroller10writeportcEc>:
    1cdc:	68 b9       	out	0x08, r22	; 8
    1cde:	08 95       	ret

00001ce0 <_ZN14portcontroller9writeddraEc>:
    1ce0:	61 b9       	out	0x01, r22	; 1
    1ce2:	08 95       	ret

00001ce4 <_ZN14portcontroller9writeddrbEc>:
    1ce4:	64 b9       	out	0x04, r22	; 4
    1ce6:	08 95       	ret

00001ce8 <_ZN14portcontroller9writeddrcEc>:
    1ce8:	67 b9       	out	0x07, r22	; 7
    1cea:	08 95       	ret

00001cec <_ZN14portcontroller9writeddrdEc>:
    1cec:	6a b9       	out	0x0a, r22	; 10
    1cee:	08 95       	ret

00001cf0 <_ZN14portcontroller13digitalwriteaEhb>:
    1cf0:	44 23       	and	r20, r20
    1cf2:	59 f0       	breq	.+22     	; 0x1d0a <_ZN14portcontroller13digitalwriteaEhb+0x1a>
    1cf4:	22 b1       	in	r18, 0x02	; 2
    1cf6:	81 e0       	ldi	r24, 0x01	; 1
    1cf8:	90 e0       	ldi	r25, 0x00	; 0
    1cfa:	02 c0       	rjmp	.+4      	; 0x1d00 <_ZN14portcontroller13digitalwriteaEhb+0x10>
    1cfc:	88 0f       	add	r24, r24
    1cfe:	99 1f       	adc	r25, r25
    1d00:	6a 95       	dec	r22
    1d02:	e2 f7       	brpl	.-8      	; 0x1cfc <_ZN14portcontroller13digitalwriteaEhb+0xc>
    1d04:	82 2b       	or	r24, r18
    1d06:	82 b9       	out	0x02, r24	; 2
    1d08:	08 95       	ret
    1d0a:	22 b1       	in	r18, 0x02	; 2
    1d0c:	81 e0       	ldi	r24, 0x01	; 1
    1d0e:	90 e0       	ldi	r25, 0x00	; 0
    1d10:	02 c0       	rjmp	.+4      	; 0x1d16 <_ZN14portcontroller13digitalwriteaEhb+0x26>
    1d12:	88 0f       	add	r24, r24
    1d14:	99 1f       	adc	r25, r25
    1d16:	6a 95       	dec	r22
    1d18:	e2 f7       	brpl	.-8      	; 0x1d12 <_ZN14portcontroller13digitalwriteaEhb+0x22>
    1d1a:	80 95       	com	r24
    1d1c:	82 23       	and	r24, r18
    1d1e:	82 b9       	out	0x02, r24	; 2
    1d20:	08 95       	ret

00001d22 <_ZN14portcontroller12digitalwriteEhb>:
    1d22:	9c 01       	movw	r18, r24
    1d24:	9f ef       	ldi	r25, 0xFF	; 255
    1d26:	96 0f       	add	r25, r22
    1d28:	98 30       	cpi	r25, 0x08	; 8
    1d2a:	28 f4       	brcc	.+10     	; 0x1d36 <_ZN14portcontroller12digitalwriteEhb+0x14>
    1d2c:	69 2f       	mov	r22, r25
    1d2e:	c9 01       	movw	r24, r18
    1d30:	0e 94 78 0e 	call	0x1cf0	; 0x1cf0 <_ZN14portcontroller13digitalwriteaEhb>
    1d34:	08 95       	ret
    1d36:	82 ef       	ldi	r24, 0xF2	; 242
    1d38:	86 0f       	add	r24, r22
    1d3a:	88 30       	cpi	r24, 0x08	; 8
    1d3c:	28 f4       	brcc	.+10     	; 0x1d48 <_ZN14portcontroller12digitalwriteEhb+0x26>
    1d3e:	6d 50       	subi	r22, 0x0D	; 13
    1d40:	c9 01       	movw	r24, r18
    1d42:	0e 94 78 0e 	call	0x1cf0	; 0x1cf0 <_ZN14portcontroller13digitalwriteaEhb>
    1d46:	08 95       	ret
    1d48:	8a ee       	ldi	r24, 0xEA	; 234
    1d4a:	86 0f       	add	r24, r22
    1d4c:	88 30       	cpi	r24, 0x08	; 8
    1d4e:	28 f4       	brcc	.+10     	; 0x1d5a <_ZN14portcontroller12digitalwriteEhb+0x38>
    1d50:	65 51       	subi	r22, 0x15	; 21
    1d52:	c9 01       	movw	r24, r18
    1d54:	0e 94 78 0e 	call	0x1cf0	; 0x1cf0 <_ZN14portcontroller13digitalwriteaEhb>
    1d58:	08 95       	ret
    1d5a:	8f ed       	ldi	r24, 0xDF	; 223
    1d5c:	86 0f       	add	r24, r22
    1d5e:	88 30       	cpi	r24, 0x08	; 8
    1d60:	20 f4       	brcc	.+8      	; 0x1d6a <_ZN14portcontroller12digitalwriteEhb+0x48>
    1d62:	60 52       	subi	r22, 0x20	; 32
    1d64:	c9 01       	movw	r24, r18
    1d66:	0e 94 78 0e 	call	0x1cf0	; 0x1cf0 <_ZN14portcontroller13digitalwriteaEhb>
    1d6a:	08 95       	ret

00001d6c <_ZN14portcontrollerD1Ev>:
    1d6c:	08 95       	ret

00001d6e <_ZN8shiftregC1EhhhP14portcontroller>:
    1d6e:	0f 93       	push	r16
    1d70:	1f 93       	push	r17
    1d72:	fc 01       	movw	r30, r24
    1d74:	60 83       	st	Z, r22
    1d76:	41 83       	std	Z+1, r20	; 0x01
    1d78:	22 83       	std	Z+2, r18	; 0x02
    1d7a:	14 87       	std	Z+12, r17	; 0x0c
    1d7c:	03 87       	std	Z+11, r16	; 0x0b
    1d7e:	13 82       	std	Z+3, r1	; 0x03
    1d80:	14 82       	std	Z+4, r1	; 0x04
    1d82:	15 82       	std	Z+5, r1	; 0x05
    1d84:	16 82       	std	Z+6, r1	; 0x06
    1d86:	17 82       	std	Z+7, r1	; 0x07
    1d88:	10 86       	std	Z+8, r1	; 0x08
    1d8a:	11 86       	std	Z+9, r1	; 0x09
    1d8c:	12 86       	std	Z+10, r1	; 0x0a
    1d8e:	1f 91       	pop	r17
    1d90:	0f 91       	pop	r16
    1d92:	08 95       	ret

00001d94 <_ZN8shiftreg10shiftout32Em>:
    1d94:	cf 92       	push	r12
    1d96:	df 92       	push	r13
    1d98:	ef 92       	push	r14
    1d9a:	ff 92       	push	r15
    1d9c:	0f 93       	push	r16
    1d9e:	1f 93       	push	r17
    1da0:	cf 93       	push	r28
    1da2:	df 93       	push	r29
    1da4:	ec 01       	movw	r28, r24
    1da6:	6a 01       	movw	r12, r20
    1da8:	7b 01       	movw	r14, r22
    1daa:	0f e1       	ldi	r16, 0x1F	; 31
    1dac:	10 e0       	ldi	r17, 0x00	; 0
    1dae:	d7 01       	movw	r26, r14
    1db0:	c6 01       	movw	r24, r12
    1db2:	00 2e       	mov	r0, r16
    1db4:	04 c0       	rjmp	.+8      	; 0x1dbe <_ZN8shiftreg10shiftout32Em+0x2a>
    1db6:	b6 95       	lsr	r27
    1db8:	a7 95       	ror	r26
    1dba:	97 95       	ror	r25
    1dbc:	87 95       	ror	r24
    1dbe:	0a 94       	dec	r0
    1dc0:	d2 f7       	brpl	.-12     	; 0x1db6 <_ZN8shiftreg10shiftout32Em+0x22>
    1dc2:	01 97       	sbiw	r24, 0x01	; 1
    1dc4:	a1 05       	cpc	r26, r1
    1dc6:	b1 05       	cpc	r27, r1
    1dc8:	39 f4       	brne	.+14     	; 0x1dd8 <_ZN8shiftreg10shiftout32Em+0x44>
    1dca:	41 e0       	ldi	r20, 0x01	; 1
    1dcc:	68 81       	ld	r22, Y
    1dce:	8b 85       	ldd	r24, Y+11	; 0x0b
    1dd0:	9c 85       	ldd	r25, Y+12	; 0x0c
    1dd2:	0e 94 91 0e 	call	0x1d22	; 0x1d22 <_ZN14portcontroller12digitalwriteEhb>
    1dd6:	06 c0       	rjmp	.+12     	; 0x1de4 <_ZN8shiftreg10shiftout32Em+0x50>
    1dd8:	40 e0       	ldi	r20, 0x00	; 0
    1dda:	68 81       	ld	r22, Y
    1ddc:	8b 85       	ldd	r24, Y+11	; 0x0b
    1dde:	9c 85       	ldd	r25, Y+12	; 0x0c
    1de0:	0e 94 91 0e 	call	0x1d22	; 0x1d22 <_ZN14portcontroller12digitalwriteEhb>
    1de4:	41 e0       	ldi	r20, 0x01	; 1
    1de6:	69 81       	ldd	r22, Y+1	; 0x01
    1de8:	8b 85       	ldd	r24, Y+11	; 0x0b
    1dea:	9c 85       	ldd	r25, Y+12	; 0x0c
    1dec:	0e 94 91 0e 	call	0x1d22	; 0x1d22 <_ZN14portcontroller12digitalwriteEhb>
    1df0:	40 e0       	ldi	r20, 0x00	; 0
    1df2:	69 81       	ldd	r22, Y+1	; 0x01
    1df4:	8b 85       	ldd	r24, Y+11	; 0x0b
    1df6:	9c 85       	ldd	r25, Y+12	; 0x0c
    1df8:	0e 94 91 0e 	call	0x1d22	; 0x1d22 <_ZN14portcontroller12digitalwriteEhb>
    1dfc:	01 50       	subi	r16, 0x01	; 1
    1dfe:	11 09       	sbc	r17, r1
    1e00:	b0 f6       	brcc	.-84     	; 0x1dae <_ZN8shiftreg10shiftout32Em+0x1a>
    1e02:	41 e0       	ldi	r20, 0x01	; 1
    1e04:	6a 81       	ldd	r22, Y+2	; 0x02
    1e06:	8b 85       	ldd	r24, Y+11	; 0x0b
    1e08:	9c 85       	ldd	r25, Y+12	; 0x0c
    1e0a:	0e 94 91 0e 	call	0x1d22	; 0x1d22 <_ZN14portcontroller12digitalwriteEhb>
    1e0e:	40 e0       	ldi	r20, 0x00	; 0
    1e10:	6a 81       	ldd	r22, Y+2	; 0x02
    1e12:	8b 85       	ldd	r24, Y+11	; 0x0b
    1e14:	9c 85       	ldd	r25, Y+12	; 0x0c
    1e16:	0e 94 91 0e 	call	0x1d22	; 0x1d22 <_ZN14portcontroller12digitalwriteEhb>
    1e1a:	df 91       	pop	r29
    1e1c:	cf 91       	pop	r28
    1e1e:	1f 91       	pop	r17
    1e20:	0f 91       	pop	r16
    1e22:	ff 90       	pop	r15
    1e24:	ef 90       	pop	r14
    1e26:	df 90       	pop	r13
    1e28:	cf 90       	pop	r12
    1e2a:	08 95       	ret

00001e2c <_ZN8shiftregD1Ev>:
    1e2c:	08 95       	ret

00001e2e <_ZN6memoryC1Ev>:
	portcon = a;
}
memory::memory(portcontroller* a, shiftreg* b)
{
	portcon = a;
	addressreg = b;
    1e2e:	08 95       	ret

00001e30 <_ZN6memory5writeEmh>:
}
void memory::write(uint32_t address, uint8_t data)
{
    1e30:	1f 93       	push	r17
    1e32:	cf 93       	push	r28
    1e34:	df 93       	push	r29
    1e36:	ec 01       	movw	r28, r24
    1e38:	12 2f       	mov	r17, r18
	addressreg->shiftout32(address);
    1e3a:	8a 81       	ldd	r24, Y+2	; 0x02
    1e3c:	9b 81       	ldd	r25, Y+3	; 0x03
    1e3e:	0e 94 ca 0e 	call	0x1d94	; 0x1d94 <_ZN8shiftreg10shiftout32Em>
	portcon->writeportc(data);
    1e42:	61 2f       	mov	r22, r17
    1e44:	88 81       	ld	r24, Y
    1e46:	99 81       	ldd	r25, Y+1	; 0x01
    1e48:	0e 94 6e 0e 	call	0x1cdc	; 0x1cdc <_ZN14portcontroller10writeportcEc>
	portcon->digitalwrite(wepin,true);
    1e4c:	41 e0       	ldi	r20, 0x01	; 1
    1e4e:	68 85       	ldd	r22, Y+8	; 0x08
    1e50:	88 81       	ld	r24, Y
    1e52:	99 81       	ldd	r25, Y+1	; 0x01
    1e54:	0e 94 91 0e 	call	0x1d22	; 0x1d22 <_ZN14portcontroller12digitalwriteEhb>
	portcon->digitalwrite(wepin,false);
    1e58:	40 e0       	ldi	r20, 0x00	; 0
    1e5a:	68 85       	ldd	r22, Y+8	; 0x08
    1e5c:	88 81       	ld	r24, Y
    1e5e:	99 81       	ldd	r25, Y+1	; 0x01
    1e60:	0e 94 91 0e 	call	0x1d22	; 0x1d22 <_ZN14portcontroller12digitalwriteEhb>
}
    1e64:	df 91       	pop	r29
    1e66:	cf 91       	pop	r28
    1e68:	1f 91       	pop	r17
    1e6a:	08 95       	ret

00001e6c <_ZN6memory4readEm>:
uint8_t memory::read(uint32_t address)
{
    1e6c:	cf 93       	push	r28
    1e6e:	df 93       	push	r29
    1e70:	ec 01       	movw	r28, r24
	addressreg->shiftout32(address);
    1e72:	8a 81       	ldd	r24, Y+2	; 0x02
    1e74:	9b 81       	ldd	r25, Y+3	; 0x03
    1e76:	0e 94 ca 0e 	call	0x1d94	; 0x1d94 <_ZN8shiftreg10shiftout32Em>
	return portcon->readportd();
    1e7a:	88 81       	ld	r24, Y
    1e7c:	99 81       	ldd	r25, Y+1	; 0x01
    1e7e:	0e 94 6c 0e 	call	0x1cd8	; 0x1cd8 <_ZN14portcontroller9readportdEv>
}
    1e82:	df 91       	pop	r29
    1e84:	cf 91       	pop	r28
    1e86:	08 95       	ret

00001e88 <_ZN6memory6read32Em>:
uint32_t memory::read32(uint32_t address)
{
    1e88:	4f 92       	push	r4
    1e8a:	5f 92       	push	r5
    1e8c:	6f 92       	push	r6
    1e8e:	7f 92       	push	r7
    1e90:	8f 92       	push	r8
    1e92:	9f 92       	push	r9
    1e94:	af 92       	push	r10
    1e96:	bf 92       	push	r11
    1e98:	cf 92       	push	r12
    1e9a:	df 92       	push	r13
    1e9c:	ff 92       	push	r15
    1e9e:	0f 93       	push	r16
    1ea0:	1f 93       	push	r17
    1ea2:	cf 93       	push	r28
    1ea4:	df 93       	push	r29
    1ea6:	ec 01       	movw	r28, r24
    1ea8:	4a 01       	movw	r8, r20
    1eaa:	5b 01       	movw	r10, r22
	uint32_t a,b,c,d;
	addressreg->shiftout32(address+3);
    1eac:	2a 01       	movw	r4, r20
    1eae:	3b 01       	movw	r6, r22
    1eb0:	83 e0       	ldi	r24, 0x03	; 3
    1eb2:	48 0e       	add	r4, r24
    1eb4:	51 1c       	adc	r5, r1
    1eb6:	61 1c       	adc	r6, r1
    1eb8:	71 1c       	adc	r7, r1
    1eba:	b3 01       	movw	r22, r6
    1ebc:	a2 01       	movw	r20, r4
    1ebe:	8a 81       	ldd	r24, Y+2	; 0x02
    1ec0:	9b 81       	ldd	r25, Y+3	; 0x03
    1ec2:	0e 94 ca 0e 	call	0x1d94	; 0x1d94 <_ZN8shiftreg10shiftout32Em>
	a = read(address+3);
    1ec6:	b3 01       	movw	r22, r6
    1ec8:	a2 01       	movw	r20, r4
    1eca:	ce 01       	movw	r24, r28
    1ecc:	0e 94 36 0f 	call	0x1e6c	; 0x1e6c <_ZN6memory4readEm>
    1ed0:	f8 2e       	mov	r15, r24
	addressreg->shiftout32(address+2);
    1ed2:	24 01       	movw	r4, r8
    1ed4:	35 01       	movw	r6, r10
    1ed6:	82 e0       	ldi	r24, 0x02	; 2
    1ed8:	48 0e       	add	r4, r24
    1eda:	51 1c       	adc	r5, r1
    1edc:	61 1c       	adc	r6, r1
    1ede:	71 1c       	adc	r7, r1
    1ee0:	b3 01       	movw	r22, r6
    1ee2:	a2 01       	movw	r20, r4
    1ee4:	8a 81       	ldd	r24, Y+2	; 0x02
    1ee6:	9b 81       	ldd	r25, Y+3	; 0x03
    1ee8:	0e 94 ca 0e 	call	0x1d94	; 0x1d94 <_ZN8shiftreg10shiftout32Em>
	b = read(address+2);
    1eec:	b3 01       	movw	r22, r6
    1eee:	a2 01       	movw	r20, r4
    1ef0:	ce 01       	movw	r24, r28
    1ef2:	0e 94 36 0f 	call	0x1e6c	; 0x1e6c <_ZN6memory4readEm>
    1ef6:	18 2f       	mov	r17, r24
	addressreg->shiftout32(address+1);
    1ef8:	24 01       	movw	r4, r8
    1efa:	35 01       	movw	r6, r10
    1efc:	8f ef       	ldi	r24, 0xFF	; 255
    1efe:	48 1a       	sub	r4, r24
    1f00:	58 0a       	sbc	r5, r24
    1f02:	68 0a       	sbc	r6, r24
    1f04:	78 0a       	sbc	r7, r24
    1f06:	b3 01       	movw	r22, r6
    1f08:	a2 01       	movw	r20, r4
    1f0a:	8a 81       	ldd	r24, Y+2	; 0x02
    1f0c:	9b 81       	ldd	r25, Y+3	; 0x03
    1f0e:	0e 94 ca 0e 	call	0x1d94	; 0x1d94 <_ZN8shiftreg10shiftout32Em>
	c = read(address+1);
    1f12:	b3 01       	movw	r22, r6
    1f14:	a2 01       	movw	r20, r4
    1f16:	ce 01       	movw	r24, r28
    1f18:	0e 94 36 0f 	call	0x1e6c	; 0x1e6c <_ZN6memory4readEm>
    1f1c:	08 2f       	mov	r16, r24
	addressreg->shiftout32(address);
    1f1e:	b5 01       	movw	r22, r10
    1f20:	a4 01       	movw	r20, r8
    1f22:	8a 81       	ldd	r24, Y+2	; 0x02
    1f24:	9b 81       	ldd	r25, Y+3	; 0x03
    1f26:	0e 94 ca 0e 	call	0x1d94	; 0x1d94 <_ZN8shiftreg10shiftout32Em>
	d = read(address);
    1f2a:	b5 01       	movw	r22, r10
    1f2c:	a4 01       	movw	r20, r8
    1f2e:	ce 01       	movw	r24, r28
    1f30:	0e 94 36 0f 	call	0x1e6c	; 0x1e6c <_ZN6memory4readEm>
	return (uint32_t)((d<<24)|(c<<16)|(b<<8)|(a<<0));
    1f34:	40 2f       	mov	r20, r16
    1f36:	50 e0       	ldi	r21, 0x00	; 0
    1f38:	60 e0       	ldi	r22, 0x00	; 0
    1f3a:	70 e0       	ldi	r23, 0x00	; 0
    1f3c:	ba 01       	movw	r22, r20
    1f3e:	55 27       	eor	r21, r21
    1f40:	44 27       	eor	r20, r20
    1f42:	5a 01       	movw	r10, r20
    1f44:	6b 01       	movw	r12, r22
    1f46:	d8 2a       	or	r13, r24
    1f48:	d6 01       	movw	r26, r12
    1f4a:	c5 01       	movw	r24, r10
    1f4c:	8f 29       	or	r24, r15
    1f4e:	bc 01       	movw	r22, r24
    1f50:	cd 01       	movw	r24, r26
    1f52:	71 2b       	or	r23, r17
}
    1f54:	df 91       	pop	r29
    1f56:	cf 91       	pop	r28
    1f58:	1f 91       	pop	r17
    1f5a:	0f 91       	pop	r16
    1f5c:	ff 90       	pop	r15
    1f5e:	df 90       	pop	r13
    1f60:	cf 90       	pop	r12
    1f62:	bf 90       	pop	r11
    1f64:	af 90       	pop	r10
    1f66:	9f 90       	pop	r9
    1f68:	8f 90       	pop	r8
    1f6a:	7f 90       	pop	r7
    1f6c:	6f 90       	pop	r6
    1f6e:	5f 90       	pop	r5
    1f70:	4f 90       	pop	r4
    1f72:	08 95       	ret

00001f74 <_ZN6memoryD1Ev>:
// default destructor
memory::~memory()
    1f74:	08 95       	ret

00001f76 <_ZN9video_memC1Ev>:


#include "video_mem.h"

// default constructor
video_mem::video_mem()
    1f76:	08 95       	ret

00001f78 <_ZN9video_memD1Ev>:
{
} //video_mem

// default destructor
video_mem::~video_mem()
    1f78:	08 95       	ret

00001f7a <_ZN6SerialC1EP8shiftregP14portcontrollerccc>:
}

char Serial::iddevice(int cs)
{

}
    1f7a:	08 95       	ret

00001f7c <_ZN6SerialD1Ev>:

Serial::~Serial()
    1f7c:	08 95       	ret

00001f7e <main>:
	
}
int main(void)
{
	char intrepreter_return=0;
	port.writeddra(0xff);
    1f7e:	6f ef       	ldi	r22, 0xFF	; 255
    1f80:	80 e5       	ldi	r24, 0x50	; 80
    1f82:	92 e0       	ldi	r25, 0x02	; 2
    1f84:	0e 94 70 0e 	call	0x1ce0	; 0x1ce0 <_ZN14portcontroller9writeddraEc>
	port.writeddrb(0b10100000);	
    1f88:	60 ea       	ldi	r22, 0xA0	; 160
    1f8a:	80 e5       	ldi	r24, 0x50	; 80
    1f8c:	92 e0       	ldi	r25, 0x02	; 2
    1f8e:	0e 94 72 0e 	call	0x1ce4	; 0x1ce4 <_ZN14portcontroller9writeddrbEc>
	port.writeddrc(0xff);
    1f92:	6f ef       	ldi	r22, 0xFF	; 255
    1f94:	80 e5       	ldi	r24, 0x50	; 80
    1f96:	92 e0       	ldi	r25, 0x02	; 2
    1f98:	0e 94 74 0e 	call	0x1ce8	; 0x1ce8 <_ZN14portcontroller9writeddrcEc>
	port.writeddrd(0x00);
    1f9c:	60 e0       	ldi	r22, 0x00	; 0
    1f9e:	80 e5       	ldi	r24, 0x50	; 80
    1fa0:	92 e0       	ldi	r25, 0x02	; 2
    1fa2:	0e 94 76 0e 	call	0x1cec	; 0x1cec <_ZN14portcontroller9writeddrdEc>
		PORTD = a1;
		PORTD = b;
		PORTD = c;
		PORTD = d;
		*/
		intrepreter_return = interpreter_main.run();
    1fa6:	82 e1       	ldi	r24, 0x12	; 18
    1fa8:	91 e0       	ldi	r25, 0x01	; 1
    1faa:	0e 94 d4 06 	call	0xda8	; 0xda8 <_ZN11interpreter3runEv>
    1fae:	fb cf       	rjmp	.-10     	; 0x1fa6 <main+0x28>

00001fb0 <_GLOBAL__sub_I__Z13handlesyscallP11interpreter>:
		else if (intrepreter_return == 'e')
		{
			
		}
	}
}
    1fb0:	ef 92       	push	r14
    1fb2:	0f 93       	push	r16
    1fb4:	1f 93       	push	r17
#include "drivers/serial/Serial.h"
#define bios_address_start ffff0000
#define serial_miso_pin 6
#define serial_miso_pin 7
#define serial_clk_pin 8
static portcontroller port = portcontroller();
    1fb6:	80 e5       	ldi	r24, 0x50	; 80
    1fb8:	92 e0       	ldi	r25, 0x02	; 2
    1fba:	0e 94 6b 0e 	call	0x1cd6	; 0x1cd6 <_ZN14portcontrollerC1Ev>
static shiftreg addreg=shiftreg(40,39,38,&port);
    1fbe:	00 e5       	ldi	r16, 0x50	; 80
    1fc0:	12 e0       	ldi	r17, 0x02	; 2
    1fc2:	26 e2       	ldi	r18, 0x26	; 38
    1fc4:	47 e2       	ldi	r20, 0x27	; 39
    1fc6:	68 e2       	ldi	r22, 0x28	; 40
    1fc8:	83 e4       	ldi	r24, 0x43	; 67
    1fca:	92 e0       	ldi	r25, 0x02	; 2
    1fcc:	0e 94 b7 0e 	call	0x1d6e	; 0x1d6e <_ZN8shiftregC1EhhhP14portcontroller>
static shiftreg csreg=shiftreg(37,36,35,&port);
    1fd0:	23 e2       	ldi	r18, 0x23	; 35
    1fd2:	44 e2       	ldi	r20, 0x24	; 36
    1fd4:	65 e2       	ldi	r22, 0x25	; 37
    1fd6:	86 e3       	ldi	r24, 0x36	; 54
    1fd8:	92 e0       	ldi	r25, 0x02	; 2
    1fda:	0e 94 b7 0e 	call	0x1d6e	; 0x1d6e <_ZN8shiftregC1EhhhP14portcontroller>
static Serial spi = Serial(&csreg,&port,serial_miso_pin,serial_miso_pin,serial_clk_pin);
    1fde:	68 94       	set
    1fe0:	ee 24       	eor	r14, r14
    1fe2:	e3 f8       	bld	r14, 3
    1fe4:	07 e0       	ldi	r16, 0x07	; 7
    1fe6:	27 e0       	ldi	r18, 0x07	; 7
    1fe8:	40 e5       	ldi	r20, 0x50	; 80
    1fea:	52 e0       	ldi	r21, 0x02	; 2
    1fec:	66 e3       	ldi	r22, 0x36	; 54
    1fee:	72 e0       	ldi	r23, 0x02	; 2
    1ff0:	8e e2       	ldi	r24, 0x2E	; 46
    1ff2:	92 e0       	ldi	r25, 0x02	; 2
    1ff4:	0e 94 bd 0f 	call	0x1f7a	; 0x1f7a <_ZN6SerialC1EP8shiftregP14portcontrollerccc>
static interpreter interpreter_main = interpreter();
    1ff8:	82 e1       	ldi	r24, 0x12	; 18
    1ffa:	91 e0       	ldi	r25, 0x01	; 1
    1ffc:	0e 94 5f 00 	call	0xbe	; 0xbe <_ZN11interpreterC1Ev>
static memory mainmemory = memory();
    2000:	89 e0       	ldi	r24, 0x09	; 9
    2002:	91 e0       	ldi	r25, 0x01	; 1
    2004:	0e 94 17 0f 	call	0x1e2e	; 0x1e2e <_ZN6memoryC1Ev>
static video_mem videomemory = video_mem();
    2008:	80 e0       	ldi	r24, 0x00	; 0
    200a:	91 e0       	ldi	r25, 0x01	; 1
    200c:	0e 94 bb 0f 	call	0x1f76	; 0x1f76 <_ZN9video_memC1Ev>
		else if (intrepreter_return == 'e')
		{
			
		}
	}
}
    2010:	1f 91       	pop	r17
    2012:	0f 91       	pop	r16
    2014:	ef 90       	pop	r14
    2016:	08 95       	ret

00002018 <_GLOBAL__sub_D__Z13handlesyscallP11interpreter>:
static shiftreg addreg=shiftreg(40,39,38,&port);
static shiftreg csreg=shiftreg(37,36,35,&port);
static Serial spi = Serial(&csreg,&port,serial_miso_pin,serial_miso_pin,serial_clk_pin);
static interpreter interpreter_main = interpreter();
static memory mainmemory = memory();
static video_mem videomemory = video_mem();
    2018:	80 e0       	ldi	r24, 0x00	; 0
    201a:	91 e0       	ldi	r25, 0x01	; 1
    201c:	0e 94 bc 0f 	call	0x1f78	; 0x1f78 <_ZN9video_memD1Ev>
static portcontroller port = portcontroller();
static shiftreg addreg=shiftreg(40,39,38,&port);
static shiftreg csreg=shiftreg(37,36,35,&port);
static Serial spi = Serial(&csreg,&port,serial_miso_pin,serial_miso_pin,serial_clk_pin);
static interpreter interpreter_main = interpreter();
static memory mainmemory = memory();
    2020:	89 e0       	ldi	r24, 0x09	; 9
    2022:	91 e0       	ldi	r25, 0x01	; 1
    2024:	0e 94 ba 0f 	call	0x1f74	; 0x1f74 <_ZN6memoryD1Ev>
#define serial_clk_pin 8
static portcontroller port = portcontroller();
static shiftreg addreg=shiftreg(40,39,38,&port);
static shiftreg csreg=shiftreg(37,36,35,&port);
static Serial spi = Serial(&csreg,&port,serial_miso_pin,serial_miso_pin,serial_clk_pin);
static interpreter interpreter_main = interpreter();
    2028:	82 e1       	ldi	r24, 0x12	; 18
    202a:	91 e0       	ldi	r25, 0x01	; 1
    202c:	0e 94 6a 0e 	call	0x1cd4	; 0x1cd4 <_ZN11interpreterD1Ev>
#define serial_miso_pin 7
#define serial_clk_pin 8
static portcontroller port = portcontroller();
static shiftreg addreg=shiftreg(40,39,38,&port);
static shiftreg csreg=shiftreg(37,36,35,&port);
static Serial spi = Serial(&csreg,&port,serial_miso_pin,serial_miso_pin,serial_clk_pin);
    2030:	8e e2       	ldi	r24, 0x2E	; 46
    2032:	92 e0       	ldi	r25, 0x02	; 2
    2034:	0e 94 be 0f 	call	0x1f7c	; 0x1f7c <_ZN6SerialD1Ev>
#define serial_miso_pin 6
#define serial_miso_pin 7
#define serial_clk_pin 8
static portcontroller port = portcontroller();
static shiftreg addreg=shiftreg(40,39,38,&port);
static shiftreg csreg=shiftreg(37,36,35,&port);
    2038:	86 e3       	ldi	r24, 0x36	; 54
    203a:	92 e0       	ldi	r25, 0x02	; 2
    203c:	0e 94 16 0f 	call	0x1e2c	; 0x1e2c <_ZN8shiftregD1Ev>
#define bios_address_start ffff0000
#define serial_miso_pin 6
#define serial_miso_pin 7
#define serial_clk_pin 8
static portcontroller port = portcontroller();
static shiftreg addreg=shiftreg(40,39,38,&port);
    2040:	83 e4       	ldi	r24, 0x43	; 67
    2042:	92 e0       	ldi	r25, 0x02	; 2
    2044:	0e 94 16 0f 	call	0x1e2c	; 0x1e2c <_ZN8shiftregD1Ev>
#include "drivers/serial/Serial.h"
#define bios_address_start ffff0000
#define serial_miso_pin 6
#define serial_miso_pin 7
#define serial_clk_pin 8
static portcontroller port = portcontroller();
    2048:	80 e5       	ldi	r24, 0x50	; 80
    204a:	92 e0       	ldi	r25, 0x02	; 2
    204c:	0e 94 b6 0e 	call	0x1d6c	; 0x1d6c <_ZN14portcontrollerD1Ev>
    2050:	08 95       	ret

00002052 <__udivmodqi4>:
    2052:	99 1b       	sub	r25, r25
    2054:	79 e0       	ldi	r23, 0x09	; 9
    2056:	04 c0       	rjmp	.+8      	; 0x2060 <__udivmodqi4_ep>

00002058 <__udivmodqi4_loop>:
    2058:	99 1f       	adc	r25, r25
    205a:	96 17       	cp	r25, r22
    205c:	08 f0       	brcs	.+2      	; 0x2060 <__udivmodqi4_ep>
    205e:	96 1b       	sub	r25, r22

00002060 <__udivmodqi4_ep>:
    2060:	88 1f       	adc	r24, r24
    2062:	7a 95       	dec	r23
    2064:	c9 f7       	brne	.-14     	; 0x2058 <__udivmodqi4_loop>
    2066:	80 95       	com	r24
    2068:	08 95       	ret

0000206a <__tablejump2__>:
    206a:	ee 0f       	add	r30, r30
    206c:	ff 1f       	adc	r31, r31
    206e:	05 90       	lpm	r0, Z+
    2070:	f4 91       	lpm	r31, Z
    2072:	e0 2d       	mov	r30, r0
    2074:	09 94       	ijmp

00002076 <__do_global_dtors>:
    2076:	10 e0       	ldi	r17, 0x00	; 0
    2078:	cf e3       	ldi	r28, 0x3F	; 63
    207a:	d0 e0       	ldi	r29, 0x00	; 0
    207c:	04 c0       	rjmp	.+8      	; 0x2086 <__do_global_dtors+0x10>
    207e:	fe 01       	movw	r30, r28
    2080:	0e 94 35 10 	call	0x206a	; 0x206a <__tablejump2__>
    2084:	21 96       	adiw	r28, 0x01	; 1
    2086:	c0 34       	cpi	r28, 0x40	; 64
    2088:	d1 07       	cpc	r29, r17
    208a:	c9 f7       	brne	.-14     	; 0x207e <__do_global_dtors+0x8>
    208c:	f8 94       	cli

0000208e <__stop_program>:
    208e:	ff cf       	rjmp	.-2      	; 0x208e <__stop_program>
