
os.elf:     file format elf32-avr

Sections:
Idx Name          Size      VMA       LMA       File off  Algn
  0 .data         0000000e  00800100  000022a8  0000233c  2**0
                  CONTENTS, ALLOC, LOAD, DATA
  1 .text         000022a8  00000000  00000000  00000094  2**1
                  CONTENTS, ALLOC, LOAD, READONLY, CODE
  2 .bss          0000028e  0080010e  0080010e  0000234a  2**0
                  ALLOC
  3 .comment      00000030  00000000  00000000  0000234a  2**0
                  CONTENTS, READONLY
  4 .note.gnu.avr.deviceinfo 00000040  00000000  00000000  0000237c  2**2
                  CONTENTS, READONLY
  5 .debug_aranges 00000590  00000000  00000000  000023bc  2**0
                  CONTENTS, READONLY, DEBUGGING
  6 .debug_info   0000c06e  00000000  00000000  0000294c  2**0
                  CONTENTS, READONLY, DEBUGGING
  7 .debug_abbrev 0000210a  00000000  00000000  0000e9ba  2**0
                  CONTENTS, READONLY, DEBUGGING
  8 .debug_line   00002e38  00000000  00000000  00010ac4  2**0
                  CONTENTS, READONLY, DEBUGGING
  9 .debug_frame  00000e08  00000000  00000000  000138fc  2**2
                  CONTENTS, READONLY, DEBUGGING
 10 .debug_str    0000205b  00000000  00000000  00014704  2**0
                  CONTENTS, READONLY, DEBUGGING
 11 .debug_loc    0000431b  00000000  00000000  0001675f  2**0
                  CONTENTS, READONLY, DEBUGGING
 12 .debug_ranges 00000618  00000000  00000000  0001aa7a  2**0
                  CONTENTS, READONLY, DEBUGGING

Disassembly of section .text:

00000000 <__vectors>:
       0:	0c 94 40 00 	jmp	0x80	; 0x80 <__dtors_end>
       4:	0c 94 68 00 	jmp	0xd0	; 0xd0 <__bad_interrupt>
       8:	0c 94 68 00 	jmp	0xd0	; 0xd0 <__bad_interrupt>
       c:	0c 94 68 00 	jmp	0xd0	; 0xd0 <__bad_interrupt>
      10:	0c 94 68 00 	jmp	0xd0	; 0xd0 <__bad_interrupt>
      14:	0c 94 68 00 	jmp	0xd0	; 0xd0 <__bad_interrupt>
      18:	0c 94 68 00 	jmp	0xd0	; 0xd0 <__bad_interrupt>
      1c:	0c 94 68 00 	jmp	0xd0	; 0xd0 <__bad_interrupt>
      20:	0c 94 68 00 	jmp	0xd0	; 0xd0 <__bad_interrupt>
      24:	0c 94 68 00 	jmp	0xd0	; 0xd0 <__bad_interrupt>
      28:	0c 94 68 00 	jmp	0xd0	; 0xd0 <__bad_interrupt>
      2c:	0c 94 68 00 	jmp	0xd0	; 0xd0 <__bad_interrupt>
      30:	0c 94 68 00 	jmp	0xd0	; 0xd0 <__bad_interrupt>
      34:	0c 94 68 00 	jmp	0xd0	; 0xd0 <__bad_interrupt>
      38:	0c 94 68 00 	jmp	0xd0	; 0xd0 <__bad_interrupt>
      3c:	0c 94 68 00 	jmp	0xd0	; 0xd0 <__bad_interrupt>
      40:	0c 94 68 00 	jmp	0xd0	; 0xd0 <__bad_interrupt>
      44:	0c 94 68 00 	jmp	0xd0	; 0xd0 <__bad_interrupt>
      48:	0c 94 68 00 	jmp	0xd0	; 0xd0 <__bad_interrupt>
      4c:	0c 94 68 00 	jmp	0xd0	; 0xd0 <__bad_interrupt>
      50:	0c 94 68 00 	jmp	0xd0	; 0xd0 <__bad_interrupt>
      54:	0c 94 68 00 	jmp	0xd0	; 0xd0 <__bad_interrupt>
      58:	0c 94 68 00 	jmp	0xd0	; 0xd0 <__bad_interrupt>
      5c:	0c 94 68 00 	jmp	0xd0	; 0xd0 <__bad_interrupt>
      60:	0c 94 68 00 	jmp	0xd0	; 0xd0 <__bad_interrupt>
      64:	0c 94 68 00 	jmp	0xd0	; 0xd0 <__bad_interrupt>
      68:	0c 94 68 00 	jmp	0xd0	; 0xd0 <__bad_interrupt>
      6c:	0c 94 68 00 	jmp	0xd0	; 0xd0 <__bad_interrupt>
      70:	0c 94 68 00 	jmp	0xd0	; 0xd0 <__bad_interrupt>
      74:	0c 94 68 00 	jmp	0xd0	; 0xd0 <__bad_interrupt>
      78:	0c 94 68 00 	jmp	0xd0	; 0xd0 <__bad_interrupt>

0000007c <__ctors_start>:
      7c:	ee 0d       	add	r30, r14

0000007e <__ctors_end>:
      7e:	7e 0f       	add	r23, r30

00000080 <__dtors_end>:
      80:	11 24       	eor	r1, r1
      82:	1f be       	out	0x3f, r1	; 63
      84:	cf ef       	ldi	r28, 0xFF	; 255
      86:	d0 e1       	ldi	r29, 0x10	; 16
      88:	de bf       	out	0x3e, r29	; 62
      8a:	cd bf       	out	0x3d, r28	; 61

0000008c <__do_copy_data>:
      8c:	11 e0       	ldi	r17, 0x01	; 1
      8e:	a0 e0       	ldi	r26, 0x00	; 0
      90:	b1 e0       	ldi	r27, 0x01	; 1
      92:	e8 ea       	ldi	r30, 0xA8	; 168
      94:	f2 e2       	ldi	r31, 0x22	; 34
      96:	02 c0       	rjmp	.+4      	; 0x9c <__do_copy_data+0x10>
      98:	05 90       	lpm	r0, Z+
      9a:	0d 92       	st	X+, r0
      9c:	ae 30       	cpi	r26, 0x0E	; 14
      9e:	b1 07       	cpc	r27, r17
      a0:	d9 f7       	brne	.-10     	; 0x98 <__do_copy_data+0xc>

000000a2 <__do_clear_bss>:
      a2:	23 e0       	ldi	r18, 0x03	; 3
      a4:	ae e0       	ldi	r26, 0x0E	; 14
      a6:	b1 e0       	ldi	r27, 0x01	; 1
      a8:	01 c0       	rjmp	.+2      	; 0xac <.do_clear_bss_start>

000000aa <.do_clear_bss_loop>:
      aa:	1d 92       	st	X+, r1

000000ac <.do_clear_bss_start>:
      ac:	ac 39       	cpi	r26, 0x9C	; 156
      ae:	b2 07       	cpc	r27, r18
      b0:	e1 f7       	brne	.-8      	; 0xaa <.do_clear_bss_loop>

000000b2 <__do_global_ctors>:
      b2:	10 e0       	ldi	r17, 0x00	; 0
      b4:	cf e3       	ldi	r28, 0x3F	; 63
      b6:	d0 e0       	ldi	r29, 0x00	; 0
      b8:	04 c0       	rjmp	.+8      	; 0xc2 <__do_global_ctors+0x10>
      ba:	21 97       	sbiw	r28, 0x01	; 1
      bc:	fe 01       	movw	r30, r28
      be:	0e 94 0d 10 	call	0x201a	; 0x201a <__tablejump2__>
      c2:	ce 33       	cpi	r28, 0x3E	; 62
      c4:	d1 07       	cpc	r29, r17
      c6:	c9 f7       	brne	.-14     	; 0xba <__do_global_ctors+0x8>
      c8:	0e 94 c3 0d 	call	0x1b86	; 0x1b86 <main>
      cc:	0c 94 47 11 	jmp	0x228e	; 0x228e <__do_global_dtors>

000000d0 <__bad_interrupt>:
      d0:	0c 94 00 00 	jmp	0	; 0x0 <__vectors>

000000d4 <_ZN6SerialC1EP8shiftregP14portcontrollerccc>:
}
void Serial::recive(char* buff, int length)
{
	int a = 0;
	char n =0;
	for (a = 0;a<length; a++)
      d4:	ef 92       	push	r14
      d6:	0f 93       	push	r16
      d8:	fc 01       	movw	r30, r24
      da:	73 83       	std	Z+3, r23	; 0x03
      dc:	62 83       	std	Z+2, r22	; 0x02
      de:	51 83       	std	Z+1, r21	; 0x01
      e0:	40 83       	st	Z, r20
      e2:	25 83       	std	Z+5, r18	; 0x05
      e4:	06 83       	std	Z+6, r16	; 0x06
      e6:	e7 82       	std	Z+7, r14	; 0x07
      e8:	0f 91       	pop	r16
      ea:	ef 90       	pop	r14
      ec:	08 95       	ret

000000ee <_ZN6SerialD1Ev>:
		}
	}	
}

// default destructor
Serial::~Serial()
      ee:	08 95       	ret

000000f0 <_ZN11interpreterC1Ev>:
void interpreter::clf(char flags)
{
	flag.clear();
}
void interpreter::ret()
{
      f0:	cf 93       	push	r28
      f2:	df 93       	push	r29
      f4:	ec 01       	movw	r28, r24
      f6:	c5 5f       	subi	r28, 0xF5	; 245
      f8:	de 4f       	sbci	r29, 0xFE	; 254
      fa:	2f ef       	ldi	r18, 0xFF	; 255
      fc:	3f e1       	ldi	r19, 0x1F	; 31
      fe:	39 83       	std	Y+1, r19	; 0x01
     100:	28 83       	st	Y, r18
     102:	dc 01       	movw	r26, r24
     104:	a5 5e       	subi	r26, 0xE5	; 229
     106:	be 4f       	sbci	r27, 0xFE	; 254
     108:	bc 01       	movw	r22, r24
     10a:	61 5f       	subi	r22, 0xF1	; 241
     10c:	7e 4f       	sbci	r23, 0xFE	; 254
     10e:	11 96       	adiw	r26, 0x01	; 1
     110:	7c 93       	st	X, r23
     112:	6e 93       	st	-X, r22
     114:	9c 01       	movw	r18, r24
     116:	23 5e       	subi	r18, 0xE3	; 227
     118:	3e 4f       	sbci	r19, 0xFE	; 254
     11a:	18 97       	sbiw	r26, 0x08	; 8
     11c:	f9 01       	movw	r30, r18
     11e:	b1 83       	std	Z+1, r27	; 0x01
     120:	a0 83       	st	Z, r26
     122:	ac 01       	movw	r20, r24
     124:	41 5e       	subi	r20, 0xE1	; 225
     126:	5e 4f       	sbci	r21, 0xFE	; 254
     128:	26 50       	subi	r18, 0x06	; 6
     12a:	31 09       	sbc	r19, r1
     12c:	fa 01       	movw	r30, r20
     12e:	31 83       	std	Z+1, r19	; 0x01
     130:	20 83       	st	Z, r18
     132:	4e 5f       	subi	r20, 0xFE	; 254
     134:	5f 4f       	sbci	r21, 0xFF	; 255
     136:	fa 01       	movw	r30, r20
     138:	10 82       	st	Z, r1
     13a:	47 51       	subi	r20, 0x17	; 23
     13c:	51 09       	sbc	r21, r1
     13e:	f9 01       	movw	r30, r18
     140:	51 83       	std	Z+1, r21	; 0x01
     142:	40 83       	st	Z, r20
     144:	2e 5f       	subi	r18, 0xFE	; 254
     146:	3f 4f       	sbci	r19, 0xFF	; 255
     148:	f9 01       	movw	r30, r18
     14a:	d1 83       	std	Z+1, r29	; 0x01
     14c:	c0 83       	st	Z, r28
     14e:	21 51       	subi	r18, 0x11	; 17
     150:	31 09       	sbc	r19, r1
     152:	11 96       	adiw	r26, 0x01	; 1
     154:	3c 93       	st	X, r19
     156:	2e 93       	st	-X, r18
     158:	12 96       	adiw	r26, 0x02	; 2
     15a:	2f 5f       	subi	r18, 0xFF	; 255
     15c:	3f 4f       	sbci	r19, 0xFF	; 255
     15e:	2d 93       	st	X+, r18
     160:	3c 93       	st	X, r19
     162:	23 50       	subi	r18, 0x03	; 3
     164:	31 09       	sbc	r19, r1
     166:	fb 01       	movw	r30, r22
     168:	31 83       	std	Z+1, r19	; 0x01
     16a:	20 83       	st	Z, r18
     16c:	32 96       	adiw	r30, 0x02	; 2
     16e:	89 5f       	subi	r24, 0xF9	; 249
     170:	9e 4f       	sbci	r25, 0xFE	; 254
     172:	91 83       	std	Z+1, r25	; 0x01
     174:	80 83       	st	Z, r24
     176:	df 91       	pop	r29
     178:	cf 91       	pop	r28
     17a:	08 95       	ret

0000017c <_ZN11interpreter3incEj>:
     17c:	0f 93       	push	r16
     17e:	1f 93       	push	r17
     180:	cf 93       	push	r28
     182:	df 93       	push	r29
     184:	ec 01       	movw	r28, r24
     186:	8b 01       	movw	r16, r22
     188:	8a 81       	ldd	r24, Y+2	; 0x02
     18a:	9b 81       	ldd	r25, Y+3	; 0x03
     18c:	0e 94 5e 0d 	call	0x1abc	; 0x1abc <_ZN3ram4readEi>
     190:	41 e0       	ldi	r20, 0x01	; 1
     192:	48 0f       	add	r20, r24
     194:	b8 01       	movw	r22, r16
     196:	8a 81       	ldd	r24, Y+2	; 0x02
     198:	9b 81       	ldd	r25, Y+3	; 0x03
     19a:	0e 94 6c 0d 	call	0x1ad8	; 0x1ad8 <_ZN3ram5writeEjc>
     19e:	df 91       	pop	r29
     1a0:	cf 91       	pop	r28
     1a2:	1f 91       	pop	r17
     1a4:	0f 91       	pop	r16
     1a6:	08 95       	ret

000001a8 <_ZN11interpreter3decEj>:
     1a8:	0f 93       	push	r16
     1aa:	1f 93       	push	r17
     1ac:	cf 93       	push	r28
     1ae:	df 93       	push	r29
     1b0:	ec 01       	movw	r28, r24
     1b2:	8b 01       	movw	r16, r22
     1b4:	8a 81       	ldd	r24, Y+2	; 0x02
     1b6:	9b 81       	ldd	r25, Y+3	; 0x03
     1b8:	0e 94 5e 0d 	call	0x1abc	; 0x1abc <_ZN3ram4readEi>
     1bc:	4f ef       	ldi	r20, 0xFF	; 255
     1be:	48 0f       	add	r20, r24
     1c0:	b8 01       	movw	r22, r16
     1c2:	8a 81       	ldd	r24, Y+2	; 0x02
     1c4:	9b 81       	ldd	r25, Y+3	; 0x03
     1c6:	0e 94 6c 0d 	call	0x1ad8	; 0x1ad8 <_ZN3ram5writeEjc>
     1ca:	df 91       	pop	r29
     1cc:	cf 91       	pop	r28
     1ce:	1f 91       	pop	r17
     1d0:	0f 91       	pop	r16
     1d2:	08 95       	ret

000001d4 <_ZN11interpreter2ldEcj>:
     1d4:	1f 93       	push	r17
     1d6:	cf 93       	push	r28
     1d8:	df 93       	push	r29
     1da:	ec 01       	movw	r28, r24
     1dc:	16 2f       	mov	r17, r22
     1de:	ba 01       	movw	r22, r20
     1e0:	8a 81       	ldd	r24, Y+2	; 0x02
     1e2:	9b 81       	ldd	r25, Y+3	; 0x03
     1e4:	0e 94 5e 0d 	call	0x1abc	; 0x1abc <_ZN3ram4readEi>
     1e8:	c1 0f       	add	r28, r17
     1ea:	d1 1d       	adc	r29, r1
     1ec:	8c 87       	std	Y+12, r24	; 0x0c
     1ee:	df 91       	pop	r29
     1f0:	cf 91       	pop	r28
     1f2:	1f 91       	pop	r17
     1f4:	08 95       	ret

000001f6 <_ZN11interpreter3ldxEc>:
     1f6:	fc 01       	movw	r30, r24
     1f8:	e1 5f       	subi	r30, 0xF1	; 241
     1fa:	fe 4f       	sbci	r31, 0xFE	; 254
     1fc:	a2 81       	ldd	r26, Z+2	; 0x02
     1fe:	b3 81       	ldd	r27, Z+3	; 0x03
     200:	4c 91       	ld	r20, X
     202:	50 e0       	ldi	r21, 0x00	; 0
     204:	54 2f       	mov	r21, r20
     206:	44 27       	eor	r20, r20
     208:	01 90       	ld	r0, Z+
     20a:	f0 81       	ld	r31, Z
     20c:	e0 2d       	mov	r30, r0
     20e:	20 81       	ld	r18, Z
     210:	42 2b       	or	r20, r18
     212:	0e 94 ea 00 	call	0x1d4	; 0x1d4 <_ZN11interpreter2ldEcj>
     216:	08 95       	ret

00000218 <_ZN11interpreter3ldyEc>:
     218:	fc 01       	movw	r30, r24
     21a:	ed 5e       	subi	r30, 0xED	; 237
     21c:	fe 4f       	sbci	r31, 0xFE	; 254
     21e:	a2 81       	ldd	r26, Z+2	; 0x02
     220:	b3 81       	ldd	r27, Z+3	; 0x03
     222:	4c 91       	ld	r20, X
     224:	50 e0       	ldi	r21, 0x00	; 0
     226:	54 2f       	mov	r21, r20
     228:	44 27       	eor	r20, r20
     22a:	01 90       	ld	r0, Z+
     22c:	f0 81       	ld	r31, Z
     22e:	e0 2d       	mov	r30, r0
     230:	20 81       	ld	r18, Z
     232:	42 2b       	or	r20, r18
     234:	0e 94 ea 00 	call	0x1d4	; 0x1d4 <_ZN11interpreter2ldEcj>
     238:	08 95       	ret

0000023a <_ZN11interpreter3ldzEc>:
     23a:	fc 01       	movw	r30, r24
     23c:	e9 5e       	subi	r30, 0xE9	; 233
     23e:	fe 4f       	sbci	r31, 0xFE	; 254
     240:	a2 81       	ldd	r26, Z+2	; 0x02
     242:	b3 81       	ldd	r27, Z+3	; 0x03
     244:	4c 91       	ld	r20, X
     246:	50 e0       	ldi	r21, 0x00	; 0
     248:	54 2f       	mov	r21, r20
     24a:	44 27       	eor	r20, r20
     24c:	01 90       	ld	r0, Z+
     24e:	f0 81       	ld	r31, Z
     250:	e0 2d       	mov	r30, r0
     252:	20 81       	ld	r18, Z
     254:	42 2b       	or	r20, r18
     256:	0e 94 ea 00 	call	0x1d4	; 0x1d4 <_ZN11interpreter2ldEcj>
     25a:	08 95       	ret

0000025c <_ZN11interpreter3stxEc>:
     25c:	fc 01       	movw	r30, r24
     25e:	e6 0f       	add	r30, r22
     260:	f1 1d       	adc	r31, r1
     262:	dc 01       	movw	r26, r24
     264:	af 5e       	subi	r26, 0xEF	; 239
     266:	be 4f       	sbci	r27, 0xFE	; 254
     268:	0d 90       	ld	r0, X+
     26a:	bc 91       	ld	r27, X
     26c:	a0 2d       	mov	r26, r0
     26e:	6c 91       	ld	r22, X
     270:	70 e0       	ldi	r23, 0x00	; 0
     272:	76 2f       	mov	r23, r22
     274:	66 27       	eor	r22, r22
     276:	dc 01       	movw	r26, r24
     278:	a1 5f       	subi	r26, 0xF1	; 241
     27a:	be 4f       	sbci	r27, 0xFE	; 254
     27c:	0d 90       	ld	r0, X+
     27e:	bc 91       	ld	r27, X
     280:	a0 2d       	mov	r26, r0
     282:	2c 91       	ld	r18, X
     284:	62 2b       	or	r22, r18
     286:	44 85       	ldd	r20, Z+12	; 0x0c
     288:	fc 01       	movw	r30, r24
     28a:	82 81       	ldd	r24, Z+2	; 0x02
     28c:	93 81       	ldd	r25, Z+3	; 0x03
     28e:	0e 94 6c 0d 	call	0x1ad8	; 0x1ad8 <_ZN3ram5writeEjc>
     292:	08 95       	ret

00000294 <_ZN11interpreter3styEc>:
     294:	fc 01       	movw	r30, r24
     296:	e6 0f       	add	r30, r22
     298:	f1 1d       	adc	r31, r1
     29a:	dc 01       	movw	r26, r24
     29c:	ab 5e       	subi	r26, 0xEB	; 235
     29e:	be 4f       	sbci	r27, 0xFE	; 254
     2a0:	0d 90       	ld	r0, X+
     2a2:	bc 91       	ld	r27, X
     2a4:	a0 2d       	mov	r26, r0
     2a6:	6c 91       	ld	r22, X
     2a8:	70 e0       	ldi	r23, 0x00	; 0
     2aa:	76 2f       	mov	r23, r22
     2ac:	66 27       	eor	r22, r22
     2ae:	dc 01       	movw	r26, r24
     2b0:	ad 5e       	subi	r26, 0xED	; 237
     2b2:	be 4f       	sbci	r27, 0xFE	; 254
     2b4:	0d 90       	ld	r0, X+
     2b6:	bc 91       	ld	r27, X
     2b8:	a0 2d       	mov	r26, r0
     2ba:	2c 91       	ld	r18, X
     2bc:	62 2b       	or	r22, r18
     2be:	44 85       	ldd	r20, Z+12	; 0x0c
     2c0:	fc 01       	movw	r30, r24
     2c2:	82 81       	ldd	r24, Z+2	; 0x02
     2c4:	93 81       	ldd	r25, Z+3	; 0x03
     2c6:	0e 94 6c 0d 	call	0x1ad8	; 0x1ad8 <_ZN3ram5writeEjc>
     2ca:	08 95       	ret

000002cc <_ZN11interpreter3stzEc>:
     2cc:	fc 01       	movw	r30, r24
     2ce:	e6 0f       	add	r30, r22
     2d0:	f1 1d       	adc	r31, r1
     2d2:	dc 01       	movw	r26, r24
     2d4:	a7 5e       	subi	r26, 0xE7	; 231
     2d6:	be 4f       	sbci	r27, 0xFE	; 254
     2d8:	0d 90       	ld	r0, X+
     2da:	bc 91       	ld	r27, X
     2dc:	a0 2d       	mov	r26, r0
     2de:	6c 91       	ld	r22, X
     2e0:	70 e0       	ldi	r23, 0x00	; 0
     2e2:	76 2f       	mov	r23, r22
     2e4:	66 27       	eor	r22, r22
     2e6:	dc 01       	movw	r26, r24
     2e8:	a9 5e       	subi	r26, 0xE9	; 233
     2ea:	be 4f       	sbci	r27, 0xFE	; 254
     2ec:	0d 90       	ld	r0, X+
     2ee:	bc 91       	ld	r27, X
     2f0:	a0 2d       	mov	r26, r0
     2f2:	2c 91       	ld	r18, X
     2f4:	62 2b       	or	r22, r18
     2f6:	44 85       	ldd	r20, Z+12	; 0x0c
     2f8:	fc 01       	movw	r30, r24
     2fa:	82 81       	ldd	r24, Z+2	; 0x02
     2fc:	93 81       	ldd	r25, Z+3	; 0x03
     2fe:	0e 94 6c 0d 	call	0x1ad8	; 0x1ad8 <_ZN3ram5writeEjc>
     302:	08 95       	ret

00000304 <_ZN11interpreter3stdEjc>:
     304:	fc 01       	movw	r30, r24
     306:	82 81       	ldd	r24, Z+2	; 0x02
     308:	93 81       	ldd	r25, Z+3	; 0x03
     30a:	0e 94 6c 0d 	call	0x1ad8	; 0x1ad8 <_ZN3ram5writeEjc>
     30e:	08 95       	ret

00000310 <_ZN11interpreter3svdEjc>:
     310:	fc 01       	movw	r30, r24
     312:	86 81       	ldd	r24, Z+6	; 0x06
     314:	97 81       	ldd	r25, Z+7	; 0x07
     316:	0e 94 6c 0d 	call	0x1ad8	; 0x1ad8 <_ZN3ram5writeEjc>
     31a:	08 95       	ret

0000031c <_ZN11interpreter3svxEc>:
     31c:	46 2f       	mov	r20, r22
     31e:	fc 01       	movw	r30, r24
     320:	e1 5f       	subi	r30, 0xF1	; 241
     322:	fe 4f       	sbci	r31, 0xFE	; 254
     324:	a2 81       	ldd	r26, Z+2	; 0x02
     326:	b3 81       	ldd	r27, Z+3	; 0x03
     328:	2c 91       	ld	r18, X
     32a:	30 e0       	ldi	r19, 0x00	; 0
     32c:	32 2f       	mov	r19, r18
     32e:	22 27       	eor	r18, r18
     330:	01 90       	ld	r0, Z+
     332:	f0 81       	ld	r31, Z
     334:	e0 2d       	mov	r30, r0
     336:	50 81       	ld	r21, Z
     338:	b9 01       	movw	r22, r18
     33a:	65 2b       	or	r22, r21
     33c:	fc 01       	movw	r30, r24
     33e:	86 81       	ldd	r24, Z+6	; 0x06
     340:	97 81       	ldd	r25, Z+7	; 0x07
     342:	0e 94 6c 0d 	call	0x1ad8	; 0x1ad8 <_ZN3ram5writeEjc>
     346:	08 95       	ret

00000348 <_ZN11interpreter3svyEc>:
     348:	46 2f       	mov	r20, r22
     34a:	fc 01       	movw	r30, r24
     34c:	ed 5e       	subi	r30, 0xED	; 237
     34e:	fe 4f       	sbci	r31, 0xFE	; 254
     350:	a2 81       	ldd	r26, Z+2	; 0x02
     352:	b3 81       	ldd	r27, Z+3	; 0x03
     354:	2c 91       	ld	r18, X
     356:	30 e0       	ldi	r19, 0x00	; 0
     358:	32 2f       	mov	r19, r18
     35a:	22 27       	eor	r18, r18
     35c:	01 90       	ld	r0, Z+
     35e:	f0 81       	ld	r31, Z
     360:	e0 2d       	mov	r30, r0
     362:	50 81       	ld	r21, Z
     364:	b9 01       	movw	r22, r18
     366:	65 2b       	or	r22, r21
     368:	fc 01       	movw	r30, r24
     36a:	86 81       	ldd	r24, Z+6	; 0x06
     36c:	97 81       	ldd	r25, Z+7	; 0x07
     36e:	0e 94 6c 0d 	call	0x1ad8	; 0x1ad8 <_ZN3ram5writeEjc>
     372:	08 95       	ret

00000374 <_ZN11interpreter3svzEc>:
     374:	46 2f       	mov	r20, r22
     376:	fc 01       	movw	r30, r24
     378:	e9 5e       	subi	r30, 0xE9	; 233
     37a:	fe 4f       	sbci	r31, 0xFE	; 254
     37c:	a2 81       	ldd	r26, Z+2	; 0x02
     37e:	b3 81       	ldd	r27, Z+3	; 0x03
     380:	2c 91       	ld	r18, X
     382:	30 e0       	ldi	r19, 0x00	; 0
     384:	32 2f       	mov	r19, r18
     386:	22 27       	eor	r18, r18
     388:	01 90       	ld	r0, Z+
     38a:	f0 81       	ld	r31, Z
     38c:	e0 2d       	mov	r30, r0
     38e:	50 81       	ld	r21, Z
     390:	b9 01       	movw	r22, r18
     392:	65 2b       	or	r22, r21
     394:	fc 01       	movw	r30, r24
     396:	86 81       	ldd	r24, Z+6	; 0x06
     398:	97 81       	ldd	r25, Z+7	; 0x07
     39a:	0e 94 6c 0d 	call	0x1ad8	; 0x1ad8 <_ZN3ram5writeEjc>
     39e:	08 95       	ret

000003a0 <_ZN11interpreter3txsEv>:
     3a0:	cf 93       	push	r28
     3a2:	df 93       	push	r29
     3a4:	dc 01       	movw	r26, r24
     3a6:	a5 5f       	subi	r26, 0xF5	; 245
     3a8:	be 4f       	sbci	r27, 0xFE	; 254
     3aa:	fc 01       	movw	r30, r24
     3ac:	e1 5f       	subi	r30, 0xF1	; 241
     3ae:	fe 4f       	sbci	r31, 0xFE	; 254
     3b0:	c2 81       	ldd	r28, Z+2	; 0x02
     3b2:	d3 81       	ldd	r29, Z+3	; 0x03
     3b4:	98 81       	ld	r25, Y
     3b6:	89 2f       	mov	r24, r25
     3b8:	90 e0       	ldi	r25, 0x00	; 0
     3ba:	98 2f       	mov	r25, r24
     3bc:	88 27       	eor	r24, r24
     3be:	01 90       	ld	r0, Z+
     3c0:	f0 81       	ld	r31, Z
     3c2:	e0 2d       	mov	r30, r0
     3c4:	20 81       	ld	r18, Z
     3c6:	82 2b       	or	r24, r18
     3c8:	8d 93       	st	X+, r24
     3ca:	9c 93       	st	X, r25
     3cc:	df 91       	pop	r29
     3ce:	cf 91       	pop	r28
     3d0:	08 95       	ret

000003d2 <_ZN11interpreter3txyEv>:
     3d2:	fc 01       	movw	r30, r24
     3d4:	e1 5f       	subi	r30, 0xF1	; 241
     3d6:	fe 4f       	sbci	r31, 0xFE	; 254
     3d8:	a2 81       	ldd	r26, Z+2	; 0x02
     3da:	b3 81       	ldd	r27, Z+3	; 0x03
     3dc:	2c 91       	ld	r18, X
     3de:	30 e0       	ldi	r19, 0x00	; 0
     3e0:	32 2f       	mov	r19, r18
     3e2:	22 27       	eor	r18, r18
     3e4:	01 90       	ld	r0, Z+
     3e6:	f0 81       	ld	r31, Z
     3e8:	e0 2d       	mov	r30, r0
     3ea:	40 81       	ld	r20, Z
     3ec:	24 2b       	or	r18, r20
     3ee:	fc 01       	movw	r30, r24
     3f0:	ed 5e       	subi	r30, 0xED	; 237
     3f2:	fe 4f       	sbci	r31, 0xFE	; 254
     3f4:	a2 81       	ldd	r26, Z+2	; 0x02
     3f6:	b3 81       	ldd	r27, Z+3	; 0x03
     3f8:	3c 93       	st	X, r19
     3fa:	01 90       	ld	r0, Z+
     3fc:	f0 81       	ld	r31, Z
     3fe:	e0 2d       	mov	r30, r0
     400:	20 83       	st	Z, r18
     402:	08 95       	ret

00000404 <_ZN11interpreter3txzEv>:
     404:	fc 01       	movw	r30, r24
     406:	e1 5f       	subi	r30, 0xF1	; 241
     408:	fe 4f       	sbci	r31, 0xFE	; 254
     40a:	a2 81       	ldd	r26, Z+2	; 0x02
     40c:	b3 81       	ldd	r27, Z+3	; 0x03
     40e:	2c 91       	ld	r18, X
     410:	30 e0       	ldi	r19, 0x00	; 0
     412:	32 2f       	mov	r19, r18
     414:	22 27       	eor	r18, r18
     416:	01 90       	ld	r0, Z+
     418:	f0 81       	ld	r31, Z
     41a:	e0 2d       	mov	r30, r0
     41c:	40 81       	ld	r20, Z
     41e:	24 2b       	or	r18, r20
     420:	fc 01       	movw	r30, r24
     422:	e9 5e       	subi	r30, 0xE9	; 233
     424:	fe 4f       	sbci	r31, 0xFE	; 254
     426:	a2 81       	ldd	r26, Z+2	; 0x02
     428:	b3 81       	ldd	r27, Z+3	; 0x03
     42a:	3c 93       	st	X, r19
     42c:	01 90       	ld	r0, Z+
     42e:	f0 81       	ld	r31, Z
     430:	e0 2d       	mov	r30, r0
     432:	20 83       	st	Z, r18
     434:	08 95       	ret

00000436 <_ZN11interpreter3tysEv>:
     436:	cf 93       	push	r28
     438:	df 93       	push	r29
     43a:	dc 01       	movw	r26, r24
     43c:	a5 5f       	subi	r26, 0xF5	; 245
     43e:	be 4f       	sbci	r27, 0xFE	; 254
     440:	fc 01       	movw	r30, r24
     442:	ed 5e       	subi	r30, 0xED	; 237
     444:	fe 4f       	sbci	r31, 0xFE	; 254
     446:	c2 81       	ldd	r28, Z+2	; 0x02
     448:	d3 81       	ldd	r29, Z+3	; 0x03
     44a:	98 81       	ld	r25, Y
     44c:	89 2f       	mov	r24, r25
     44e:	90 e0       	ldi	r25, 0x00	; 0
     450:	98 2f       	mov	r25, r24
     452:	88 27       	eor	r24, r24
     454:	01 90       	ld	r0, Z+
     456:	f0 81       	ld	r31, Z
     458:	e0 2d       	mov	r30, r0
     45a:	20 81       	ld	r18, Z
     45c:	82 2b       	or	r24, r18
     45e:	8d 93       	st	X+, r24
     460:	9c 93       	st	X, r25
     462:	df 91       	pop	r29
     464:	cf 91       	pop	r28
     466:	08 95       	ret

00000468 <_ZN11interpreter3tyxEv>:
     468:	fc 01       	movw	r30, r24
     46a:	ed 5e       	subi	r30, 0xED	; 237
     46c:	fe 4f       	sbci	r31, 0xFE	; 254
     46e:	a2 81       	ldd	r26, Z+2	; 0x02
     470:	b3 81       	ldd	r27, Z+3	; 0x03
     472:	2c 91       	ld	r18, X
     474:	30 e0       	ldi	r19, 0x00	; 0
     476:	32 2f       	mov	r19, r18
     478:	22 27       	eor	r18, r18
     47a:	01 90       	ld	r0, Z+
     47c:	f0 81       	ld	r31, Z
     47e:	e0 2d       	mov	r30, r0
     480:	40 81       	ld	r20, Z
     482:	24 2b       	or	r18, r20
     484:	fc 01       	movw	r30, r24
     486:	e1 5f       	subi	r30, 0xF1	; 241
     488:	fe 4f       	sbci	r31, 0xFE	; 254
     48a:	a2 81       	ldd	r26, Z+2	; 0x02
     48c:	b3 81       	ldd	r27, Z+3	; 0x03
     48e:	3c 93       	st	X, r19
     490:	01 90       	ld	r0, Z+
     492:	f0 81       	ld	r31, Z
     494:	e0 2d       	mov	r30, r0
     496:	20 83       	st	Z, r18
     498:	08 95       	ret

0000049a <_ZN11interpreter3tyzEv>:
     49a:	fc 01       	movw	r30, r24
     49c:	ed 5e       	subi	r30, 0xED	; 237
     49e:	fe 4f       	sbci	r31, 0xFE	; 254
     4a0:	a2 81       	ldd	r26, Z+2	; 0x02
     4a2:	b3 81       	ldd	r27, Z+3	; 0x03
     4a4:	2c 91       	ld	r18, X
     4a6:	30 e0       	ldi	r19, 0x00	; 0
     4a8:	32 2f       	mov	r19, r18
     4aa:	22 27       	eor	r18, r18
     4ac:	01 90       	ld	r0, Z+
     4ae:	f0 81       	ld	r31, Z
     4b0:	e0 2d       	mov	r30, r0
     4b2:	40 81       	ld	r20, Z
     4b4:	24 2b       	or	r18, r20
     4b6:	fc 01       	movw	r30, r24
     4b8:	e9 5e       	subi	r30, 0xE9	; 233
     4ba:	fe 4f       	sbci	r31, 0xFE	; 254
     4bc:	a2 81       	ldd	r26, Z+2	; 0x02
     4be:	b3 81       	ldd	r27, Z+3	; 0x03
     4c0:	3c 93       	st	X, r19
     4c2:	01 90       	ld	r0, Z+
     4c4:	f0 81       	ld	r31, Z
     4c6:	e0 2d       	mov	r30, r0
     4c8:	20 83       	st	Z, r18
     4ca:	08 95       	ret

000004cc <_ZN11interpreter3tzsEv>:
     4cc:	cf 93       	push	r28
     4ce:	df 93       	push	r29
     4d0:	dc 01       	movw	r26, r24
     4d2:	a5 5f       	subi	r26, 0xF5	; 245
     4d4:	be 4f       	sbci	r27, 0xFE	; 254
     4d6:	fc 01       	movw	r30, r24
     4d8:	e9 5e       	subi	r30, 0xE9	; 233
     4da:	fe 4f       	sbci	r31, 0xFE	; 254
     4dc:	c2 81       	ldd	r28, Z+2	; 0x02
     4de:	d3 81       	ldd	r29, Z+3	; 0x03
     4e0:	98 81       	ld	r25, Y
     4e2:	89 2f       	mov	r24, r25
     4e4:	90 e0       	ldi	r25, 0x00	; 0
     4e6:	98 2f       	mov	r25, r24
     4e8:	88 27       	eor	r24, r24
     4ea:	01 90       	ld	r0, Z+
     4ec:	f0 81       	ld	r31, Z
     4ee:	e0 2d       	mov	r30, r0
     4f0:	20 81       	ld	r18, Z
     4f2:	82 2b       	or	r24, r18
     4f4:	8d 93       	st	X+, r24
     4f6:	9c 93       	st	X, r25
     4f8:	df 91       	pop	r29
     4fa:	cf 91       	pop	r28
     4fc:	08 95       	ret

000004fe <_ZN11interpreter3tzxEv>:
     4fe:	fc 01       	movw	r30, r24
     500:	e9 5e       	subi	r30, 0xE9	; 233
     502:	fe 4f       	sbci	r31, 0xFE	; 254
     504:	a2 81       	ldd	r26, Z+2	; 0x02
     506:	b3 81       	ldd	r27, Z+3	; 0x03
     508:	2c 91       	ld	r18, X
     50a:	30 e0       	ldi	r19, 0x00	; 0
     50c:	32 2f       	mov	r19, r18
     50e:	22 27       	eor	r18, r18
     510:	01 90       	ld	r0, Z+
     512:	f0 81       	ld	r31, Z
     514:	e0 2d       	mov	r30, r0
     516:	40 81       	ld	r20, Z
     518:	24 2b       	or	r18, r20
     51a:	fc 01       	movw	r30, r24
     51c:	e1 5f       	subi	r30, 0xF1	; 241
     51e:	fe 4f       	sbci	r31, 0xFE	; 254
     520:	a2 81       	ldd	r26, Z+2	; 0x02
     522:	b3 81       	ldd	r27, Z+3	; 0x03
     524:	3c 93       	st	X, r19
     526:	01 90       	ld	r0, Z+
     528:	f0 81       	ld	r31, Z
     52a:	e0 2d       	mov	r30, r0
     52c:	20 83       	st	Z, r18
     52e:	08 95       	ret

00000530 <_ZN11interpreter3tzyEv>:
     530:	fc 01       	movw	r30, r24
     532:	e9 5e       	subi	r30, 0xE9	; 233
     534:	fe 4f       	sbci	r31, 0xFE	; 254
     536:	a2 81       	ldd	r26, Z+2	; 0x02
     538:	b3 81       	ldd	r27, Z+3	; 0x03
     53a:	2c 91       	ld	r18, X
     53c:	30 e0       	ldi	r19, 0x00	; 0
     53e:	32 2f       	mov	r19, r18
     540:	22 27       	eor	r18, r18
     542:	01 90       	ld	r0, Z+
     544:	f0 81       	ld	r31, Z
     546:	e0 2d       	mov	r30, r0
     548:	40 81       	ld	r20, Z
     54a:	24 2b       	or	r18, r20
     54c:	fc 01       	movw	r30, r24
     54e:	ed 5e       	subi	r30, 0xED	; 237
     550:	fe 4f       	sbci	r31, 0xFE	; 254
     552:	a2 81       	ldd	r26, Z+2	; 0x02
     554:	b3 81       	ldd	r27, Z+3	; 0x03
     556:	3c 93       	st	X, r19
     558:	01 90       	ld	r0, Z+
     55a:	f0 81       	ld	r31, Z
     55c:	e0 2d       	mov	r30, r0
     55e:	20 83       	st	Z, r18
     560:	08 95       	ret

00000562 <_ZN11interpreter3tsxEv>:
     562:	fc 01       	movw	r30, r24
     564:	e5 5f       	subi	r30, 0xF5	; 245
     566:	fe 4f       	sbci	r31, 0xFE	; 254
     568:	20 81       	ld	r18, Z
     56a:	31 81       	ldd	r19, Z+1	; 0x01
     56c:	34 96       	adiw	r30, 0x04	; 4
     56e:	a2 81       	ldd	r26, Z+2	; 0x02
     570:	b3 81       	ldd	r27, Z+3	; 0x03
     572:	3c 93       	st	X, r19
     574:	01 90       	ld	r0, Z+
     576:	f0 81       	ld	r31, Z
     578:	e0 2d       	mov	r30, r0
     57a:	20 83       	st	Z, r18
     57c:	08 95       	ret

0000057e <_ZN11interpreter3tsyEv>:
     57e:	fc 01       	movw	r30, r24
     580:	e5 5f       	subi	r30, 0xF5	; 245
     582:	fe 4f       	sbci	r31, 0xFE	; 254
     584:	20 81       	ld	r18, Z
     586:	31 81       	ldd	r19, Z+1	; 0x01
     588:	38 96       	adiw	r30, 0x08	; 8
     58a:	a2 81       	ldd	r26, Z+2	; 0x02
     58c:	b3 81       	ldd	r27, Z+3	; 0x03
     58e:	3c 93       	st	X, r19
     590:	01 90       	ld	r0, Z+
     592:	f0 81       	ld	r31, Z
     594:	e0 2d       	mov	r30, r0
     596:	20 83       	st	Z, r18
     598:	08 95       	ret

0000059a <_ZN11interpreter3tszEv>:
     59a:	fc 01       	movw	r30, r24
     59c:	e5 5f       	subi	r30, 0xF5	; 245
     59e:	fe 4f       	sbci	r31, 0xFE	; 254
     5a0:	20 81       	ld	r18, Z
     5a2:	31 81       	ldd	r19, Z+1	; 0x01
     5a4:	3c 96       	adiw	r30, 0x0c	; 12
     5a6:	a2 81       	ldd	r26, Z+2	; 0x02
     5a8:	b3 81       	ldd	r27, Z+3	; 0x03
     5aa:	3c 93       	st	X, r19
     5ac:	01 90       	ld	r0, Z+
     5ae:	f0 81       	ld	r31, Z
     5b0:	e0 2d       	mov	r30, r0
     5b2:	20 83       	st	Z, r18
     5b4:	08 95       	ret

000005b6 <_ZN11interpreter3cmpEcc>:
     5b6:	64 13       	cpse	r22, r20
     5b8:	07 c0       	rjmp	.+14     	; 0x5c8 <_ZN11interpreter3cmpEcc+0x12>
     5ba:	fc 01       	movw	r30, r24
     5bc:	ef 5d       	subi	r30, 0xDF	; 223
     5be:	fe 4f       	sbci	r31, 0xFE	; 254
     5c0:	80 81       	ld	r24, Z
     5c2:	88 61       	ori	r24, 0x18	; 24
     5c4:	80 83       	st	Z, r24
     5c6:	08 95       	ret
     5c8:	46 17       	cp	r20, r22
     5ca:	30 f4       	brcc	.+12     	; 0x5d8 <_ZN11interpreter3cmpEcc+0x22>
     5cc:	fc 01       	movw	r30, r24
     5ce:	ef 5d       	subi	r30, 0xDF	; 223
     5d0:	fe 4f       	sbci	r31, 0xFE	; 254
     5d2:	20 81       	ld	r18, Z
     5d4:	22 60       	ori	r18, 0x02	; 2
     5d6:	20 83       	st	Z, r18
     5d8:	64 17       	cp	r22, r20
     5da:	30 f4       	brcc	.+12     	; 0x5e8 <_ZN11interpreter3cmpEcc+0x32>
     5dc:	fc 01       	movw	r30, r24
     5de:	ef 5d       	subi	r30, 0xDF	; 223
     5e0:	fe 4f       	sbci	r31, 0xFE	; 254
     5e2:	80 81       	ld	r24, Z
     5e4:	84 60       	ori	r24, 0x04	; 4
     5e6:	80 83       	st	Z, r24
     5e8:	08 95       	ret

000005ea <_ZN11interpreter3cpiEcc>:
     5ea:	64 13       	cpse	r22, r20
     5ec:	07 c0       	rjmp	.+14     	; 0x5fc <_ZN11interpreter3cpiEcc+0x12>
     5ee:	fc 01       	movw	r30, r24
     5f0:	ef 5d       	subi	r30, 0xDF	; 223
     5f2:	fe 4f       	sbci	r31, 0xFE	; 254
     5f4:	80 81       	ld	r24, Z
     5f6:	88 61       	ori	r24, 0x18	; 24
     5f8:	80 83       	st	Z, r24
     5fa:	08 95       	ret
     5fc:	46 17       	cp	r20, r22
     5fe:	30 f4       	brcc	.+12     	; 0x60c <_ZN11interpreter3cpiEcc+0x22>
     600:	fc 01       	movw	r30, r24
     602:	ef 5d       	subi	r30, 0xDF	; 223
     604:	fe 4f       	sbci	r31, 0xFE	; 254
     606:	20 81       	ld	r18, Z
     608:	22 60       	ori	r18, 0x02	; 2
     60a:	20 83       	st	Z, r18
     60c:	64 17       	cp	r22, r20
     60e:	30 f4       	brcc	.+12     	; 0x61c <_ZN11interpreter3cpiEcc+0x32>
     610:	fc 01       	movw	r30, r24
     612:	ef 5d       	subi	r30, 0xDF	; 223
     614:	fe 4f       	sbci	r31, 0xFE	; 254
     616:	80 81       	ld	r24, Z
     618:	84 60       	ori	r24, 0x04	; 4
     61a:	80 83       	st	Z, r24
     61c:	08 95       	ret

0000061e <_ZN11interpreter4breqEj>:
     61e:	fc 01       	movw	r30, r24
     620:	ef 5d       	subi	r30, 0xDF	; 223
     622:	fe 4f       	sbci	r31, 0xFE	; 254
     624:	20 81       	ld	r18, Z
     626:	23 ff       	sbrs	r18, 3
     628:	03 c0       	rjmp	.+6      	; 0x630 <_ZN11interpreter4breqEj+0x12>
     62a:	74 97       	sbiw	r30, 0x14	; 20
     62c:	71 83       	std	Z+1, r23	; 0x01
     62e:	60 83       	st	Z, r22
     630:	08 95       	ret

00000632 <_ZN11interpreter7breqpcfEj>:
     632:	fc 01       	movw	r30, r24
     634:	ef 5d       	subi	r30, 0xDF	; 223
     636:	fe 4f       	sbci	r31, 0xFE	; 254
     638:	20 81       	ld	r18, Z
     63a:	23 ff       	sbrs	r18, 3
     63c:	07 c0       	rjmp	.+14     	; 0x64c <_ZN11interpreter7breqpcfEj+0x1a>
     63e:	74 97       	sbiw	r30, 0x14	; 20
     640:	80 81       	ld	r24, Z
     642:	91 81       	ldd	r25, Z+1	; 0x01
     644:	68 0f       	add	r22, r24
     646:	79 1f       	adc	r23, r25
     648:	71 83       	std	Z+1, r23	; 0x01
     64a:	60 83       	st	Z, r22
     64c:	08 95       	ret

0000064e <_ZN11interpreter7breqpcbEj>:
     64e:	fc 01       	movw	r30, r24
     650:	ef 5d       	subi	r30, 0xDF	; 223
     652:	fe 4f       	sbci	r31, 0xFE	; 254
     654:	20 81       	ld	r18, Z
     656:	23 ff       	sbrs	r18, 3
     658:	07 c0       	rjmp	.+14     	; 0x668 <_ZN11interpreter7breqpcbEj+0x1a>
     65a:	74 97       	sbiw	r30, 0x14	; 20
     65c:	80 81       	ld	r24, Z
     65e:	91 81       	ldd	r25, Z+1	; 0x01
     660:	86 1b       	sub	r24, r22
     662:	97 0b       	sbc	r25, r23
     664:	91 83       	std	Z+1, r25	; 0x01
     666:	80 83       	st	Z, r24
     668:	08 95       	ret

0000066a <_ZN11interpreter4brneEj>:
     66a:	fc 01       	movw	r30, r24
     66c:	ef 5d       	subi	r30, 0xDF	; 223
     66e:	fe 4f       	sbci	r31, 0xFE	; 254
     670:	20 81       	ld	r18, Z
     672:	30 e0       	ldi	r19, 0x00	; 0
     674:	a9 01       	movw	r20, r18
     676:	55 95       	asr	r21
     678:	47 95       	ror	r20
     67a:	55 95       	asr	r21
     67c:	47 95       	ror	r20
     67e:	55 95       	asr	r21
     680:	47 95       	ror	r20
     682:	40 fd       	sbrc	r20, 0
     684:	10 c0       	rjmp	.+32     	; 0x6a6 <_ZN11interpreter4brneEj+0x3c>
     686:	a9 01       	movw	r20, r18
     688:	55 95       	asr	r21
     68a:	47 95       	ror	r20
     68c:	40 fd       	sbrc	r20, 0
     68e:	06 c0       	rjmp	.+12     	; 0x69c <_ZN11interpreter4brneEj+0x32>
     690:	35 95       	asr	r19
     692:	27 95       	ror	r18
     694:	35 95       	asr	r19
     696:	27 95       	ror	r18
     698:	20 ff       	sbrs	r18, 0
     69a:	05 c0       	rjmp	.+10     	; 0x6a6 <_ZN11interpreter4brneEj+0x3c>
     69c:	fc 01       	movw	r30, r24
     69e:	e3 5f       	subi	r30, 0xF3	; 243
     6a0:	fe 4f       	sbci	r31, 0xFE	; 254
     6a2:	71 83       	std	Z+1, r23	; 0x01
     6a4:	60 83       	st	Z, r22
     6a6:	08 95       	ret

000006a8 <_ZN11interpreter7brnepcfEj>:
     6a8:	fc 01       	movw	r30, r24
     6aa:	ef 5d       	subi	r30, 0xDF	; 223
     6ac:	fe 4f       	sbci	r31, 0xFE	; 254
     6ae:	20 81       	ld	r18, Z
     6b0:	30 e0       	ldi	r19, 0x00	; 0
     6b2:	a9 01       	movw	r20, r18
     6b4:	55 95       	asr	r21
     6b6:	47 95       	ror	r20
     6b8:	55 95       	asr	r21
     6ba:	47 95       	ror	r20
     6bc:	55 95       	asr	r21
     6be:	47 95       	ror	r20
     6c0:	40 fd       	sbrc	r20, 0
     6c2:	14 c0       	rjmp	.+40     	; 0x6ec <_ZN11interpreter7brnepcfEj+0x44>
     6c4:	a9 01       	movw	r20, r18
     6c6:	55 95       	asr	r21
     6c8:	47 95       	ror	r20
     6ca:	40 fd       	sbrc	r20, 0
     6cc:	06 c0       	rjmp	.+12     	; 0x6da <_ZN11interpreter7brnepcfEj+0x32>
     6ce:	35 95       	asr	r19
     6d0:	27 95       	ror	r18
     6d2:	35 95       	asr	r19
     6d4:	27 95       	ror	r18
     6d6:	20 ff       	sbrs	r18, 0
     6d8:	09 c0       	rjmp	.+18     	; 0x6ec <_ZN11interpreter7brnepcfEj+0x44>
     6da:	fc 01       	movw	r30, r24
     6dc:	e3 5f       	subi	r30, 0xF3	; 243
     6de:	fe 4f       	sbci	r31, 0xFE	; 254
     6e0:	80 81       	ld	r24, Z
     6e2:	91 81       	ldd	r25, Z+1	; 0x01
     6e4:	68 0f       	add	r22, r24
     6e6:	79 1f       	adc	r23, r25
     6e8:	71 83       	std	Z+1, r23	; 0x01
     6ea:	60 83       	st	Z, r22
     6ec:	08 95       	ret

000006ee <_ZN11interpreter7brnepcbEj>:
     6ee:	fc 01       	movw	r30, r24
     6f0:	ef 5d       	subi	r30, 0xDF	; 223
     6f2:	fe 4f       	sbci	r31, 0xFE	; 254
     6f4:	20 81       	ld	r18, Z
     6f6:	30 e0       	ldi	r19, 0x00	; 0
     6f8:	a9 01       	movw	r20, r18
     6fa:	55 95       	asr	r21
     6fc:	47 95       	ror	r20
     6fe:	55 95       	asr	r21
     700:	47 95       	ror	r20
     702:	55 95       	asr	r21
     704:	47 95       	ror	r20
     706:	40 fd       	sbrc	r20, 0
     708:	14 c0       	rjmp	.+40     	; 0x732 <_ZN11interpreter7brnepcbEj+0x44>
     70a:	a9 01       	movw	r20, r18
     70c:	55 95       	asr	r21
     70e:	47 95       	ror	r20
     710:	40 fd       	sbrc	r20, 0
     712:	06 c0       	rjmp	.+12     	; 0x720 <_ZN11interpreter7brnepcbEj+0x32>
     714:	35 95       	asr	r19
     716:	27 95       	ror	r18
     718:	35 95       	asr	r19
     71a:	27 95       	ror	r18
     71c:	20 ff       	sbrs	r18, 0
     71e:	09 c0       	rjmp	.+18     	; 0x732 <_ZN11interpreter7brnepcbEj+0x44>
     720:	fc 01       	movw	r30, r24
     722:	e3 5f       	subi	r30, 0xF3	; 243
     724:	fe 4f       	sbci	r31, 0xFE	; 254
     726:	80 81       	ld	r24, Z
     728:	91 81       	ldd	r25, Z+1	; 0x01
     72a:	86 1b       	sub	r24, r22
     72c:	97 0b       	sbc	r25, r23
     72e:	91 83       	std	Z+1, r25	; 0x01
     730:	80 83       	st	Z, r24
     732:	08 95       	ret

00000734 <_ZN11interpreter4brgeEj>:
     734:	fc 01       	movw	r30, r24
     736:	ef 5d       	subi	r30, 0xDF	; 223
     738:	fe 4f       	sbci	r31, 0xFE	; 254
     73a:	20 81       	ld	r18, Z
     73c:	30 e0       	ldi	r19, 0x00	; 0
     73e:	a9 01       	movw	r20, r18
     740:	55 95       	asr	r21
     742:	47 95       	ror	r20
     744:	55 95       	asr	r21
     746:	47 95       	ror	r20
     748:	55 95       	asr	r21
     74a:	47 95       	ror	r20
     74c:	35 95       	asr	r19
     74e:	27 95       	ror	r18
     750:	24 2b       	or	r18, r20
     752:	35 2b       	or	r19, r21
     754:	20 ff       	sbrs	r18, 0
     756:	03 c0       	rjmp	.+6      	; 0x75e <_ZN11interpreter4brgeEj+0x2a>
     758:	74 97       	sbiw	r30, 0x14	; 20
     75a:	71 83       	std	Z+1, r23	; 0x01
     75c:	60 83       	st	Z, r22
     75e:	08 95       	ret

00000760 <_ZN11interpreter7brgepcfEj>:
     760:	fc 01       	movw	r30, r24
     762:	ef 5d       	subi	r30, 0xDF	; 223
     764:	fe 4f       	sbci	r31, 0xFE	; 254
     766:	20 81       	ld	r18, Z
     768:	30 e0       	ldi	r19, 0x00	; 0
     76a:	a9 01       	movw	r20, r18
     76c:	55 95       	asr	r21
     76e:	47 95       	ror	r20
     770:	55 95       	asr	r21
     772:	47 95       	ror	r20
     774:	55 95       	asr	r21
     776:	47 95       	ror	r20
     778:	35 95       	asr	r19
     77a:	27 95       	ror	r18
     77c:	24 2b       	or	r18, r20
     77e:	35 2b       	or	r19, r21
     780:	20 ff       	sbrs	r18, 0
     782:	07 c0       	rjmp	.+14     	; 0x792 <_ZN11interpreter7brgepcfEj+0x32>
     784:	74 97       	sbiw	r30, 0x14	; 20
     786:	80 81       	ld	r24, Z
     788:	91 81       	ldd	r25, Z+1	; 0x01
     78a:	68 0f       	add	r22, r24
     78c:	79 1f       	adc	r23, r25
     78e:	71 83       	std	Z+1, r23	; 0x01
     790:	60 83       	st	Z, r22
     792:	08 95       	ret

00000794 <_ZN11interpreter7brgepcbEj>:
     794:	fc 01       	movw	r30, r24
     796:	ef 5d       	subi	r30, 0xDF	; 223
     798:	fe 4f       	sbci	r31, 0xFE	; 254
     79a:	20 81       	ld	r18, Z
     79c:	30 e0       	ldi	r19, 0x00	; 0
     79e:	a9 01       	movw	r20, r18
     7a0:	55 95       	asr	r21
     7a2:	47 95       	ror	r20
     7a4:	55 95       	asr	r21
     7a6:	47 95       	ror	r20
     7a8:	55 95       	asr	r21
     7aa:	47 95       	ror	r20
     7ac:	35 95       	asr	r19
     7ae:	27 95       	ror	r18
     7b0:	24 2b       	or	r18, r20
     7b2:	35 2b       	or	r19, r21
     7b4:	20 ff       	sbrs	r18, 0
     7b6:	07 c0       	rjmp	.+14     	; 0x7c6 <_ZN11interpreter7brgepcbEj+0x32>
     7b8:	74 97       	sbiw	r30, 0x14	; 20
     7ba:	80 81       	ld	r24, Z
     7bc:	91 81       	ldd	r25, Z+1	; 0x01
     7be:	86 1b       	sub	r24, r22
     7c0:	97 0b       	sbc	r25, r23
     7c2:	91 83       	std	Z+1, r25	; 0x01
     7c4:	80 83       	st	Z, r24
     7c6:	08 95       	ret

000007c8 <_ZN11interpreter4brleEj>:
     7c8:	fc 01       	movw	r30, r24
     7ca:	ef 5d       	subi	r30, 0xDF	; 223
     7cc:	fe 4f       	sbci	r31, 0xFE	; 254
     7ce:	20 81       	ld	r18, Z
     7d0:	30 e0       	ldi	r19, 0x00	; 0
     7d2:	a9 01       	movw	r20, r18
     7d4:	55 95       	asr	r21
     7d6:	47 95       	ror	r20
     7d8:	55 95       	asr	r21
     7da:	47 95       	ror	r20
     7dc:	55 95       	asr	r21
     7de:	47 95       	ror	r20
     7e0:	35 95       	asr	r19
     7e2:	27 95       	ror	r18
     7e4:	35 95       	asr	r19
     7e6:	27 95       	ror	r18
     7e8:	24 2b       	or	r18, r20
     7ea:	35 2b       	or	r19, r21
     7ec:	20 ff       	sbrs	r18, 0
     7ee:	03 c0       	rjmp	.+6      	; 0x7f6 <_ZN11interpreter4brleEj+0x2e>
     7f0:	74 97       	sbiw	r30, 0x14	; 20
     7f2:	71 83       	std	Z+1, r23	; 0x01
     7f4:	60 83       	st	Z, r22
     7f6:	08 95       	ret

000007f8 <_ZN11interpreter7brlepcfEj>:
     7f8:	fc 01       	movw	r30, r24
     7fa:	ef 5d       	subi	r30, 0xDF	; 223
     7fc:	fe 4f       	sbci	r31, 0xFE	; 254
     7fe:	20 81       	ld	r18, Z
     800:	30 e0       	ldi	r19, 0x00	; 0
     802:	a9 01       	movw	r20, r18
     804:	55 95       	asr	r21
     806:	47 95       	ror	r20
     808:	55 95       	asr	r21
     80a:	47 95       	ror	r20
     80c:	55 95       	asr	r21
     80e:	47 95       	ror	r20
     810:	35 95       	asr	r19
     812:	27 95       	ror	r18
     814:	35 95       	asr	r19
     816:	27 95       	ror	r18
     818:	24 2b       	or	r18, r20
     81a:	35 2b       	or	r19, r21
     81c:	20 ff       	sbrs	r18, 0
     81e:	07 c0       	rjmp	.+14     	; 0x82e <_ZN11interpreter7brlepcfEj+0x36>
     820:	74 97       	sbiw	r30, 0x14	; 20
     822:	80 81       	ld	r24, Z
     824:	91 81       	ldd	r25, Z+1	; 0x01
     826:	68 0f       	add	r22, r24
     828:	79 1f       	adc	r23, r25
     82a:	71 83       	std	Z+1, r23	; 0x01
     82c:	60 83       	st	Z, r22
     82e:	08 95       	ret

00000830 <_ZN11interpreter7brlepcbEj>:
     830:	fc 01       	movw	r30, r24
     832:	ef 5d       	subi	r30, 0xDF	; 223
     834:	fe 4f       	sbci	r31, 0xFE	; 254
     836:	20 81       	ld	r18, Z
     838:	30 e0       	ldi	r19, 0x00	; 0
     83a:	a9 01       	movw	r20, r18
     83c:	55 95       	asr	r21
     83e:	47 95       	ror	r20
     840:	55 95       	asr	r21
     842:	47 95       	ror	r20
     844:	55 95       	asr	r21
     846:	47 95       	ror	r20
     848:	35 95       	asr	r19
     84a:	27 95       	ror	r18
     84c:	35 95       	asr	r19
     84e:	27 95       	ror	r18
     850:	24 2b       	or	r18, r20
     852:	35 2b       	or	r19, r21
     854:	20 ff       	sbrs	r18, 0
     856:	07 c0       	rjmp	.+14     	; 0x866 <_ZN11interpreter7brlepcbEj+0x36>
     858:	74 97       	sbiw	r30, 0x14	; 20
     85a:	80 81       	ld	r24, Z
     85c:	91 81       	ldd	r25, Z+1	; 0x01
     85e:	86 1b       	sub	r24, r22
     860:	97 0b       	sbc	r25, r23
     862:	91 83       	std	Z+1, r25	; 0x01
     864:	80 83       	st	Z, r24
     866:	08 95       	ret

00000868 <_ZN11interpreter3brgEj>:
     868:	fc 01       	movw	r30, r24
     86a:	ef 5d       	subi	r30, 0xDF	; 223
     86c:	fe 4f       	sbci	r31, 0xFE	; 254
     86e:	20 81       	ld	r18, Z
     870:	30 e0       	ldi	r19, 0x00	; 0
     872:	a9 01       	movw	r20, r18
     874:	55 95       	asr	r21
     876:	47 95       	ror	r20
     878:	55 95       	asr	r21
     87a:	47 95       	ror	r20
     87c:	55 95       	asr	r21
     87e:	47 95       	ror	r20
     880:	40 fd       	sbrc	r20, 0
     882:	07 c0       	rjmp	.+14     	; 0x892 <_ZN11interpreter3brgEj+0x2a>
     884:	35 95       	asr	r19
     886:	27 95       	ror	r18
     888:	20 ff       	sbrs	r18, 0
     88a:	03 c0       	rjmp	.+6      	; 0x892 <_ZN11interpreter3brgEj+0x2a>
     88c:	74 97       	sbiw	r30, 0x14	; 20
     88e:	71 83       	std	Z+1, r23	; 0x01
     890:	60 83       	st	Z, r22
     892:	08 95       	ret

00000894 <_ZN11interpreter6brgpcfEj>:
     894:	fc 01       	movw	r30, r24
     896:	ef 5d       	subi	r30, 0xDF	; 223
     898:	fe 4f       	sbci	r31, 0xFE	; 254
     89a:	20 81       	ld	r18, Z
     89c:	30 e0       	ldi	r19, 0x00	; 0
     89e:	a9 01       	movw	r20, r18
     8a0:	55 95       	asr	r21
     8a2:	47 95       	ror	r20
     8a4:	55 95       	asr	r21
     8a6:	47 95       	ror	r20
     8a8:	55 95       	asr	r21
     8aa:	47 95       	ror	r20
     8ac:	40 fd       	sbrc	r20, 0
     8ae:	0b c0       	rjmp	.+22     	; 0x8c6 <_ZN11interpreter6brgpcfEj+0x32>
     8b0:	35 95       	asr	r19
     8b2:	27 95       	ror	r18
     8b4:	20 ff       	sbrs	r18, 0
     8b6:	07 c0       	rjmp	.+14     	; 0x8c6 <_ZN11interpreter6brgpcfEj+0x32>
     8b8:	74 97       	sbiw	r30, 0x14	; 20
     8ba:	80 81       	ld	r24, Z
     8bc:	91 81       	ldd	r25, Z+1	; 0x01
     8be:	68 0f       	add	r22, r24
     8c0:	79 1f       	adc	r23, r25
     8c2:	71 83       	std	Z+1, r23	; 0x01
     8c4:	60 83       	st	Z, r22
     8c6:	08 95       	ret

000008c8 <_ZN11interpreter6brgpcbEj>:
     8c8:	fc 01       	movw	r30, r24
     8ca:	ef 5d       	subi	r30, 0xDF	; 223
     8cc:	fe 4f       	sbci	r31, 0xFE	; 254
     8ce:	20 81       	ld	r18, Z
     8d0:	30 e0       	ldi	r19, 0x00	; 0
     8d2:	a9 01       	movw	r20, r18
     8d4:	55 95       	asr	r21
     8d6:	47 95       	ror	r20
     8d8:	55 95       	asr	r21
     8da:	47 95       	ror	r20
     8dc:	55 95       	asr	r21
     8de:	47 95       	ror	r20
     8e0:	40 fd       	sbrc	r20, 0
     8e2:	0b c0       	rjmp	.+22     	; 0x8fa <_ZN11interpreter6brgpcbEj+0x32>
     8e4:	35 95       	asr	r19
     8e6:	27 95       	ror	r18
     8e8:	20 ff       	sbrs	r18, 0
     8ea:	07 c0       	rjmp	.+14     	; 0x8fa <_ZN11interpreter6brgpcbEj+0x32>
     8ec:	74 97       	sbiw	r30, 0x14	; 20
     8ee:	80 81       	ld	r24, Z
     8f0:	91 81       	ldd	r25, Z+1	; 0x01
     8f2:	86 1b       	sub	r24, r22
     8f4:	97 0b       	sbc	r25, r23
     8f6:	91 83       	std	Z+1, r25	; 0x01
     8f8:	80 83       	st	Z, r24
     8fa:	08 95       	ret

000008fc <_ZN11interpreter3brlEj>:
     8fc:	fc 01       	movw	r30, r24
     8fe:	ef 5d       	subi	r30, 0xDF	; 223
     900:	fe 4f       	sbci	r31, 0xFE	; 254
     902:	20 81       	ld	r18, Z
     904:	30 e0       	ldi	r19, 0x00	; 0
     906:	a9 01       	movw	r20, r18
     908:	55 95       	asr	r21
     90a:	47 95       	ror	r20
     90c:	55 95       	asr	r21
     90e:	47 95       	ror	r20
     910:	55 95       	asr	r21
     912:	47 95       	ror	r20
     914:	40 fd       	sbrc	r20, 0
     916:	09 c0       	rjmp	.+18     	; 0x92a <_ZN11interpreter3brlEj+0x2e>
     918:	35 95       	asr	r19
     91a:	27 95       	ror	r18
     91c:	35 95       	asr	r19
     91e:	27 95       	ror	r18
     920:	20 ff       	sbrs	r18, 0
     922:	03 c0       	rjmp	.+6      	; 0x92a <_ZN11interpreter3brlEj+0x2e>
     924:	74 97       	sbiw	r30, 0x14	; 20
     926:	71 83       	std	Z+1, r23	; 0x01
     928:	60 83       	st	Z, r22
     92a:	08 95       	ret

0000092c <_ZN11interpreter6brlpcfEj>:
     92c:	fc 01       	movw	r30, r24
     92e:	ef 5d       	subi	r30, 0xDF	; 223
     930:	fe 4f       	sbci	r31, 0xFE	; 254
     932:	20 81       	ld	r18, Z
     934:	30 e0       	ldi	r19, 0x00	; 0
     936:	a9 01       	movw	r20, r18
     938:	55 95       	asr	r21
     93a:	47 95       	ror	r20
     93c:	55 95       	asr	r21
     93e:	47 95       	ror	r20
     940:	55 95       	asr	r21
     942:	47 95       	ror	r20
     944:	40 fd       	sbrc	r20, 0
     946:	0d c0       	rjmp	.+26     	; 0x962 <_ZN11interpreter6brlpcfEj+0x36>
     948:	35 95       	asr	r19
     94a:	27 95       	ror	r18
     94c:	35 95       	asr	r19
     94e:	27 95       	ror	r18
     950:	20 ff       	sbrs	r18, 0
     952:	07 c0       	rjmp	.+14     	; 0x962 <_ZN11interpreter6brlpcfEj+0x36>
     954:	74 97       	sbiw	r30, 0x14	; 20
     956:	80 81       	ld	r24, Z
     958:	91 81       	ldd	r25, Z+1	; 0x01
     95a:	68 0f       	add	r22, r24
     95c:	79 1f       	adc	r23, r25
     95e:	71 83       	std	Z+1, r23	; 0x01
     960:	60 83       	st	Z, r22
     962:	08 95       	ret

00000964 <_ZN11interpreter6brlpcbEj>:
     964:	fc 01       	movw	r30, r24
     966:	ef 5d       	subi	r30, 0xDF	; 223
     968:	fe 4f       	sbci	r31, 0xFE	; 254
     96a:	20 81       	ld	r18, Z
     96c:	30 e0       	ldi	r19, 0x00	; 0
     96e:	a9 01       	movw	r20, r18
     970:	55 95       	asr	r21
     972:	47 95       	ror	r20
     974:	55 95       	asr	r21
     976:	47 95       	ror	r20
     978:	55 95       	asr	r21
     97a:	47 95       	ror	r20
     97c:	40 fd       	sbrc	r20, 0
     97e:	0d c0       	rjmp	.+26     	; 0x99a <_ZN11interpreter6brlpcbEj+0x36>
     980:	35 95       	asr	r19
     982:	27 95       	ror	r18
     984:	35 95       	asr	r19
     986:	27 95       	ror	r18
     988:	20 ff       	sbrs	r18, 0
     98a:	07 c0       	rjmp	.+14     	; 0x99a <_ZN11interpreter6brlpcbEj+0x36>
     98c:	74 97       	sbiw	r30, 0x14	; 20
     98e:	80 81       	ld	r24, Z
     990:	91 81       	ldd	r25, Z+1	; 0x01
     992:	86 1b       	sub	r24, r22
     994:	97 0b       	sbc	r25, r23
     996:	91 83       	std	Z+1, r25	; 0x01
     998:	80 83       	st	Z, r24
     99a:	08 95       	ret

0000099c <_ZN11interpreter4pushEc>:
     99c:	cf 93       	push	r28
     99e:	df 93       	push	r29
     9a0:	fc 01       	movw	r30, r24
     9a2:	e6 0f       	add	r30, r22
     9a4:	f1 1d       	adc	r31, r1
     9a6:	ec 01       	movw	r28, r24
     9a8:	c5 5f       	subi	r28, 0xF5	; 245
     9aa:	de 4f       	sbci	r29, 0xFE	; 254
     9ac:	68 81       	ld	r22, Y
     9ae:	79 81       	ldd	r23, Y+1	; 0x01
     9b0:	44 85       	ldd	r20, Z+12	; 0x0c
     9b2:	fc 01       	movw	r30, r24
     9b4:	84 81       	ldd	r24, Z+4	; 0x04
     9b6:	95 81       	ldd	r25, Z+5	; 0x05
     9b8:	0e 94 6c 0d 	call	0x1ad8	; 0x1ad8 <_ZN3ram5writeEjc>
     9bc:	88 81       	ld	r24, Y
     9be:	99 81       	ldd	r25, Y+1	; 0x01
     9c0:	01 97       	sbiw	r24, 0x01	; 1
     9c2:	99 83       	std	Y+1, r25	; 0x01
     9c4:	88 83       	st	Y, r24
     9c6:	df 91       	pop	r29
     9c8:	cf 91       	pop	r28
     9ca:	08 95       	ret

000009cc <_ZN11interpreter5pushiEh>:
     9cc:	cf 93       	push	r28
     9ce:	df 93       	push	r29
     9d0:	46 2f       	mov	r20, r22
     9d2:	ec 01       	movw	r28, r24
     9d4:	c5 5f       	subi	r28, 0xF5	; 245
     9d6:	de 4f       	sbci	r29, 0xFE	; 254
     9d8:	68 81       	ld	r22, Y
     9da:	79 81       	ldd	r23, Y+1	; 0x01
     9dc:	fc 01       	movw	r30, r24
     9de:	84 81       	ldd	r24, Z+4	; 0x04
     9e0:	95 81       	ldd	r25, Z+5	; 0x05
     9e2:	0e 94 6c 0d 	call	0x1ad8	; 0x1ad8 <_ZN3ram5writeEjc>
     9e6:	88 81       	ld	r24, Y
     9e8:	99 81       	ldd	r25, Y+1	; 0x01
     9ea:	01 97       	sbiw	r24, 0x01	; 1
     9ec:	99 83       	std	Y+1, r25	; 0x01
     9ee:	88 83       	st	Y, r24
     9f0:	df 91       	pop	r29
     9f2:	cf 91       	pop	r28
     9f4:	08 95       	ret

000009f6 <_ZN11interpreter3popEv>:
     9f6:	cf 93       	push	r28
     9f8:	df 93       	push	r29
     9fa:	ec 01       	movw	r28, r24
     9fc:	c5 5f       	subi	r28, 0xF5	; 245
     9fe:	de 4f       	sbci	r29, 0xFE	; 254
     a00:	68 81       	ld	r22, Y
     a02:	79 81       	ldd	r23, Y+1	; 0x01
     a04:	fc 01       	movw	r30, r24
     a06:	84 81       	ldd	r24, Z+4	; 0x04
     a08:	95 81       	ldd	r25, Z+5	; 0x05
     a0a:	0e 94 5e 0d 	call	0x1abc	; 0x1abc <_ZN3ram4readEi>
     a0e:	28 81       	ld	r18, Y
     a10:	39 81       	ldd	r19, Y+1	; 0x01
     a12:	2f 5f       	subi	r18, 0xFF	; 255
     a14:	3f 4f       	sbci	r19, 0xFF	; 255
     a16:	39 83       	std	Y+1, r19	; 0x01
     a18:	28 83       	st	Y, r18
     a1a:	df 91       	pop	r29
     a1c:	cf 91       	pop	r28
     a1e:	08 95       	ret

00000a20 <_ZN11interpreter4callEj>:
     a20:	ef 92       	push	r14
     a22:	ff 92       	push	r15
     a24:	0f 93       	push	r16
     a26:	1f 93       	push	r17
     a28:	cf 93       	push	r28
     a2a:	df 93       	push	r29
     a2c:	8c 01       	movw	r16, r24
     a2e:	eb 01       	movw	r28, r22
     a30:	fc 01       	movw	r30, r24
     a32:	e5 5f       	subi	r30, 0xF5	; 245
     a34:	fe 4f       	sbci	r31, 0xFE	; 254
     a36:	60 81       	ld	r22, Z
     a38:	0e 94 ce 04 	call	0x99c	; 0x99c <_ZN11interpreter4pushEc>
     a3c:	78 01       	movw	r14, r16
     a3e:	83 ef       	ldi	r24, 0xF3	; 243
     a40:	e8 1a       	sub	r14, r24
     a42:	8e ef       	ldi	r24, 0xFE	; 254
     a44:	f8 0a       	sbc	r15, r24
     a46:	f7 01       	movw	r30, r14
     a48:	d1 83       	std	Z+1, r29	; 0x01
     a4a:	c0 83       	st	Z, r28
     a4c:	c8 01       	movw	r24, r16
     a4e:	0e 94 fb 04 	call	0x9f6	; 0x9f6 <_ZN11interpreter3popEv>
     a52:	c8 2f       	mov	r28, r24
     a54:	c8 01       	movw	r24, r16
     a56:	0e 94 fb 04 	call	0x9f6	; 0x9f6 <_ZN11interpreter3popEv>
     a5a:	2c 2f       	mov	r18, r28
     a5c:	30 e0       	ldi	r19, 0x00	; 0
     a5e:	32 2f       	mov	r19, r18
     a60:	22 27       	eor	r18, r18
     a62:	28 2b       	or	r18, r24
     a64:	f7 01       	movw	r30, r14
     a66:	31 83       	std	Z+1, r19	; 0x01
     a68:	20 83       	st	Z, r18
     a6a:	df 91       	pop	r29
     a6c:	cf 91       	pop	r28
     a6e:	1f 91       	pop	r17
     a70:	0f 91       	pop	r16
     a72:	ff 90       	pop	r15
     a74:	ef 90       	pop	r14
     a76:	08 95       	ret

00000a78 <_ZN11interpreter3popEc>:
     a78:	ff 92       	push	r15
     a7a:	0f 93       	push	r16
     a7c:	1f 93       	push	r17
     a7e:	cf 93       	push	r28
     a80:	df 93       	push	r29
     a82:	ec 01       	movw	r28, r24
     a84:	f6 2e       	mov	r15, r22
     a86:	8c 01       	movw	r16, r24
     a88:	05 5f       	subi	r16, 0xF5	; 245
     a8a:	1e 4f       	sbci	r17, 0xFE	; 254
     a8c:	f8 01       	movw	r30, r16
     a8e:	60 81       	ld	r22, Z
     a90:	71 81       	ldd	r23, Z+1	; 0x01
     a92:	8c 81       	ldd	r24, Y+4	; 0x04
     a94:	9d 81       	ldd	r25, Y+5	; 0x05
     a96:	0e 94 5e 0d 	call	0x1abc	; 0x1abc <_ZN3ram4readEi>
     a9a:	cf 0d       	add	r28, r15
     a9c:	d1 1d       	adc	r29, r1
     a9e:	8c 87       	std	Y+12, r24	; 0x0c
     aa0:	f8 01       	movw	r30, r16
     aa2:	80 81       	ld	r24, Z
     aa4:	91 81       	ldd	r25, Z+1	; 0x01
     aa6:	01 96       	adiw	r24, 0x01	; 1
     aa8:	91 83       	std	Z+1, r25	; 0x01
     aaa:	80 83       	st	Z, r24
     aac:	df 91       	pop	r29
     aae:	cf 91       	pop	r28
     ab0:	1f 91       	pop	r17
     ab2:	0f 91       	pop	r16
     ab4:	ff 90       	pop	r15
     ab6:	08 95       	ret

00000ab8 <_ZN11interpreter4swapEc>:
     ab8:	fc 01       	movw	r30, r24
     aba:	e6 0f       	add	r30, r22
     abc:	f1 1d       	adc	r31, r1
     abe:	94 85       	ldd	r25, Z+12	; 0x0c
     ac0:	92 95       	swap	r25
     ac2:	94 87       	std	Z+12, r25	; 0x0c
     ac4:	08 95       	ret

00000ac6 <_ZN11interpreter7syscallEv>:
     ac6:	fc 01       	movw	r30, r24
     ac8:	64 85       	ldd	r22, Z+12	; 0x0c
     aca:	61 11       	cpse	r22, r1
     acc:	0d c0       	rjmp	.+26     	; 0xae8 <_ZN11interpreter7syscallEv+0x22>
     ace:	85 85       	ldd	r24, Z+13	; 0x0d
     ad0:	90 e0       	ldi	r25, 0x00	; 0
     ad2:	e9 ef       	ldi	r30, 0xF9	; 249
     ad4:	f0 e0       	ldi	r31, 0x00	; 0
     ad6:	31 97       	sbiw	r30, 0x01	; 1
     ad8:	f1 f7       	brne	.-4      	; 0xad6 <_ZN11interpreter7syscallEv+0x10>
     ada:	00 c0       	rjmp	.+0      	; 0xadc <_ZN11interpreter7syscallEv+0x16>
     adc:	00 00       	nop
     ade:	01 97       	sbiw	r24, 0x01	; 1
     ae0:	18 16       	cp	r1, r24
     ae2:	19 06       	cpc	r1, r25
     ae4:	b4 f3       	brlt	.-20     	; 0xad2 <_ZN11interpreter7syscallEv+0xc>
     ae6:	27 c0       	rjmp	.+78     	; 0xb36 <_ZN11interpreter7syscallEv+0x70>
     ae8:	61 30       	cpi	r22, 0x01	; 1
     aea:	81 f4       	brne	.+32     	; 0xb0c <_ZN11interpreter7syscallEv+0x46>
     aec:	85 85       	ldd	r24, Z+13	; 0x0d
     aee:	88 23       	and	r24, r24
     af0:	19 f0       	breq	.+6      	; 0xaf8 <_ZN11interpreter7syscallEv+0x32>
     af2:	96 85       	ldd	r25, Z+14	; 0x0e
     af4:	91 11       	cpse	r25, r1
     af6:	04 c0       	rjmp	.+8      	; 0xb00 <_ZN11interpreter7syscallEv+0x3a>
     af8:	81 e0       	ldi	r24, 0x01	; 1
     afa:	87 87       	std	Z+15, r24	; 0x0f
     afc:	60 e0       	ldi	r22, 0x00	; 0
     afe:	1b c0       	rjmp	.+54     	; 0xb36 <_ZN11interpreter7syscallEv+0x70>
     b00:	89 9f       	mul	r24, r25
     b02:	80 2d       	mov	r24, r0
     b04:	11 24       	eor	r1, r1
     b06:	87 87       	std	Z+15, r24	; 0x0f
     b08:	60 e0       	ldi	r22, 0x00	; 0
     b0a:	15 c0       	rjmp	.+42     	; 0xb36 <_ZN11interpreter7syscallEv+0x70>
     b0c:	62 30       	cpi	r22, 0x02	; 2
     b0e:	71 f4       	brne	.+28     	; 0xb2c <_ZN11interpreter7syscallEv+0x66>
     b10:	66 85       	ldd	r22, Z+14	; 0x0e
     b12:	61 11       	cpse	r22, r1
     b14:	04 c0       	rjmp	.+8      	; 0xb1e <_ZN11interpreter7syscallEv+0x58>
     b16:	17 86       	std	Z+15, r1	; 0x0f
     b18:	81 e0       	ldi	r24, 0x01	; 1
     b1a:	80 8b       	std	Z+16, r24	; 0x10
     b1c:	0c c0       	rjmp	.+24     	; 0xb36 <_ZN11interpreter7syscallEv+0x70>
     b1e:	85 85       	ldd	r24, Z+13	; 0x0d
     b20:	0e 94 01 10 	call	0x2002	; 0x2002 <__udivmodqi4>
     b24:	87 87       	std	Z+15, r24	; 0x0f
     b26:	10 8a       	std	Z+16, r1	; 0x10
     b28:	60 e0       	ldi	r22, 0x00	; 0
     b2a:	05 c0       	rjmp	.+10     	; 0xb36 <_ZN11interpreter7syscallEv+0x70>
     b2c:	63 30       	cpi	r22, 0x03	; 3
     b2e:	11 f0       	breq	.+4      	; 0xb34 <_ZN11interpreter7syscallEv+0x6e>
     b30:	60 e0       	ldi	r22, 0x00	; 0
     b32:	01 c0       	rjmp	.+2      	; 0xb36 <_ZN11interpreter7syscallEv+0x70>
     b34:	62 e6       	ldi	r22, 0x62	; 98
     b36:	86 2f       	mov	r24, r22
     b38:	08 95       	ret

00000b3a <_ZN11interpreter3runEv>:
     b3a:	cf 92       	push	r12
     b3c:	df 92       	push	r13
     b3e:	ef 92       	push	r14
     b40:	ff 92       	push	r15
     b42:	0f 93       	push	r16
     b44:	1f 93       	push	r17
     b46:	cf 93       	push	r28
     b48:	df 93       	push	r29
     b4a:	8c 01       	movw	r16, r24
     b4c:	fc 01       	movw	r30, r24
     b4e:	e3 5f       	subi	r30, 0xF3	; 243
     b50:	fe 4f       	sbci	r31, 0xFE	; 254
     b52:	11 82       	std	Z+1, r1	; 0x01
     b54:	10 82       	st	Z, r1
     b56:	ef 01       	movw	r28, r30
     b58:	7c 01       	movw	r14, r24
     b5a:	4f ed       	ldi	r20, 0xDF	; 223
     b5c:	e4 1a       	sub	r14, r20
     b5e:	4e ef       	ldi	r20, 0xFE	; 254
     b60:	f4 0a       	sbc	r15, r20
     b62:	68 81       	ld	r22, Y
     b64:	79 81       	ldd	r23, Y+1	; 0x01
     b66:	f8 01       	movw	r30, r16
     b68:	80 81       	ld	r24, Z
     b6a:	91 81       	ldd	r25, Z+1	; 0x01
     b6c:	0e 94 5e 0d 	call	0x1abc	; 0x1abc <_ZN3ram4readEi>
     b70:	81 11       	cpse	r24, r1
     b72:	07 c0       	rjmp	.+14     	; 0xb82 <_ZN11interpreter3runEv+0x48>
     b74:	c8 01       	movw	r24, r16
     b76:	0e 94 63 05 	call	0xac6	; 0xac6 <_ZN11interpreter7syscallEv>
     b7a:	82 36       	cpi	r24, 0x62	; 98
     b7c:	09 f0       	breq	.+2      	; 0xb80 <_ZN11interpreter3runEv+0x46>
     b7e:	f7 c5       	rjmp	.+3054   	; 0x176e <__stack+0x66f>
     b80:	fc c5       	rjmp	.+3064   	; 0x177a <__stack+0x67b>
     b82:	81 30       	cpi	r24, 0x01	; 1
     b84:	91 f4       	brne	.+36     	; 0xbaa <_ZN11interpreter3runEv+0x70>
     b86:	68 81       	ld	r22, Y
     b88:	79 81       	ldd	r23, Y+1	; 0x01
     b8a:	6f 5f       	subi	r22, 0xFF	; 255
     b8c:	7f 4f       	sbci	r23, 0xFF	; 255
     b8e:	79 83       	std	Y+1, r23	; 0x01
     b90:	68 83       	st	Y, r22
     b92:	f8 01       	movw	r30, r16
     b94:	80 81       	ld	r24, Z
     b96:	91 81       	ldd	r25, Z+1	; 0x01
     b98:	0e 94 5e 0d 	call	0x1abc	; 0x1abc <_ZN3ram4readEi>
     b9c:	f8 01       	movw	r30, r16
     b9e:	e8 0f       	add	r30, r24
     ba0:	f1 1d       	adc	r31, r1
     ba2:	84 85       	ldd	r24, Z+12	; 0x0c
     ba4:	8f 5f       	subi	r24, 0xFF	; 255
     ba6:	84 87       	std	Z+12, r24	; 0x0c
     ba8:	e2 c5       	rjmp	.+3012   	; 0x176e <__stack+0x66f>
     baa:	82 30       	cpi	r24, 0x02	; 2
     bac:	09 f5       	brne	.+66     	; 0xbf0 <_ZN11interpreter3runEv+0xb6>
     bae:	68 81       	ld	r22, Y
     bb0:	79 81       	ldd	r23, Y+1	; 0x01
     bb2:	6f 5f       	subi	r22, 0xFF	; 255
     bb4:	7f 4f       	sbci	r23, 0xFF	; 255
     bb6:	f8 01       	movw	r30, r16
     bb8:	80 81       	ld	r24, Z
     bba:	91 81       	ldd	r25, Z+1	; 0x01
     bbc:	0e 94 5e 0d 	call	0x1abc	; 0x1abc <_ZN3ram4readEi>
     bc0:	d8 2e       	mov	r13, r24
     bc2:	68 81       	ld	r22, Y
     bc4:	79 81       	ldd	r23, Y+1	; 0x01
     bc6:	6e 5f       	subi	r22, 0xFE	; 254
     bc8:	7f 4f       	sbci	r23, 0xFF	; 255
     bca:	f8 01       	movw	r30, r16
     bcc:	80 81       	ld	r24, Z
     bce:	91 81       	ldd	r25, Z+1	; 0x01
     bd0:	0e 94 5e 0d 	call	0x1abc	; 0x1abc <_ZN3ram4readEi>
     bd4:	6d 2d       	mov	r22, r13
     bd6:	70 e0       	ldi	r23, 0x00	; 0
     bd8:	76 2f       	mov	r23, r22
     bda:	66 27       	eor	r22, r22
     bdc:	68 2b       	or	r22, r24
     bde:	c8 01       	movw	r24, r16
     be0:	0e 94 be 00 	call	0x17c	; 0x17c <_ZN11interpreter3incEj>
     be4:	88 81       	ld	r24, Y
     be6:	99 81       	ldd	r25, Y+1	; 0x01
     be8:	02 96       	adiw	r24, 0x02	; 2
     bea:	99 83       	std	Y+1, r25	; 0x01
     bec:	88 83       	st	Y, r24
     bee:	bf c5       	rjmp	.+2942   	; 0x176e <__stack+0x66f>
     bf0:	83 30       	cpi	r24, 0x03	; 3
     bf2:	a9 f4       	brne	.+42     	; 0xc1e <_ZN11interpreter3runEv+0xe4>
     bf4:	68 81       	ld	r22, Y
     bf6:	79 81       	ldd	r23, Y+1	; 0x01
     bf8:	6f 5f       	subi	r22, 0xFF	; 255
     bfa:	7f 4f       	sbci	r23, 0xFF	; 255
     bfc:	f8 01       	movw	r30, r16
     bfe:	80 81       	ld	r24, Z
     c00:	91 81       	ldd	r25, Z+1	; 0x01
     c02:	0e 94 5e 0d 	call	0x1abc	; 0x1abc <_ZN3ram4readEi>
     c06:	f8 01       	movw	r30, r16
     c08:	e8 0f       	add	r30, r24
     c0a:	f1 1d       	adc	r31, r1
     c0c:	84 85       	ldd	r24, Z+12	; 0x0c
     c0e:	81 50       	subi	r24, 0x01	; 1
     c10:	84 87       	std	Z+12, r24	; 0x0c
     c12:	88 81       	ld	r24, Y
     c14:	99 81       	ldd	r25, Y+1	; 0x01
     c16:	01 96       	adiw	r24, 0x01	; 1
     c18:	99 83       	std	Y+1, r25	; 0x01
     c1a:	88 83       	st	Y, r24
     c1c:	a8 c5       	rjmp	.+2896   	; 0x176e <__stack+0x66f>
     c1e:	84 30       	cpi	r24, 0x04	; 4
     c20:	09 f5       	brne	.+66     	; 0xc64 <_ZN11interpreter3runEv+0x12a>
     c22:	68 81       	ld	r22, Y
     c24:	79 81       	ldd	r23, Y+1	; 0x01
     c26:	6f 5f       	subi	r22, 0xFF	; 255
     c28:	7f 4f       	sbci	r23, 0xFF	; 255
     c2a:	f8 01       	movw	r30, r16
     c2c:	80 81       	ld	r24, Z
     c2e:	91 81       	ldd	r25, Z+1	; 0x01
     c30:	0e 94 5e 0d 	call	0x1abc	; 0x1abc <_ZN3ram4readEi>
     c34:	d8 2e       	mov	r13, r24
     c36:	68 81       	ld	r22, Y
     c38:	79 81       	ldd	r23, Y+1	; 0x01
     c3a:	6e 5f       	subi	r22, 0xFE	; 254
     c3c:	7f 4f       	sbci	r23, 0xFF	; 255
     c3e:	f8 01       	movw	r30, r16
     c40:	80 81       	ld	r24, Z
     c42:	91 81       	ldd	r25, Z+1	; 0x01
     c44:	0e 94 5e 0d 	call	0x1abc	; 0x1abc <_ZN3ram4readEi>
     c48:	6d 2d       	mov	r22, r13
     c4a:	70 e0       	ldi	r23, 0x00	; 0
     c4c:	76 2f       	mov	r23, r22
     c4e:	66 27       	eor	r22, r22
     c50:	68 2b       	or	r22, r24
     c52:	c8 01       	movw	r24, r16
     c54:	0e 94 d4 00 	call	0x1a8	; 0x1a8 <_ZN11interpreter3decEj>
     c58:	88 81       	ld	r24, Y
     c5a:	99 81       	ldd	r25, Y+1	; 0x01
     c5c:	02 96       	adiw	r24, 0x02	; 2
     c5e:	99 83       	std	Y+1, r25	; 0x01
     c60:	88 83       	st	Y, r24
     c62:	85 c5       	rjmp	.+2826   	; 0x176e <__stack+0x66f>
     c64:	85 30       	cpi	r24, 0x05	; 5
     c66:	09 f5       	brne	.+66     	; 0xcaa <_ZN11interpreter3runEv+0x170>
     c68:	68 81       	ld	r22, Y
     c6a:	79 81       	ldd	r23, Y+1	; 0x01
     c6c:	6f 5f       	subi	r22, 0xFF	; 255
     c6e:	7f 4f       	sbci	r23, 0xFF	; 255
     c70:	f8 01       	movw	r30, r16
     c72:	80 81       	ld	r24, Z
     c74:	91 81       	ldd	r25, Z+1	; 0x01
     c76:	0e 94 5e 0d 	call	0x1abc	; 0x1abc <_ZN3ram4readEi>
     c7a:	d8 2e       	mov	r13, r24
     c7c:	68 81       	ld	r22, Y
     c7e:	79 81       	ldd	r23, Y+1	; 0x01
     c80:	6e 5f       	subi	r22, 0xFE	; 254
     c82:	7f 4f       	sbci	r23, 0xFF	; 255
     c84:	f8 01       	movw	r30, r16
     c86:	80 81       	ld	r24, Z
     c88:	91 81       	ldd	r25, Z+1	; 0x01
     c8a:	0e 94 5e 0d 	call	0x1abc	; 0x1abc <_ZN3ram4readEi>
     c8e:	f8 01       	movw	r30, r16
     c90:	e8 0f       	add	r30, r24
     c92:	f1 1d       	adc	r31, r1
     c94:	84 85       	ldd	r24, Z+12	; 0x0c
     c96:	f8 01       	movw	r30, r16
     c98:	ed 0d       	add	r30, r13
     c9a:	f1 1d       	adc	r31, r1
     c9c:	84 87       	std	Z+12, r24	; 0x0c
     c9e:	88 81       	ld	r24, Y
     ca0:	99 81       	ldd	r25, Y+1	; 0x01
     ca2:	02 96       	adiw	r24, 0x02	; 2
     ca4:	99 83       	std	Y+1, r25	; 0x01
     ca6:	88 83       	st	Y, r24
     ca8:	62 c5       	rjmp	.+2756   	; 0x176e <__stack+0x66f>
     caa:	86 30       	cpi	r24, 0x06	; 6
     cac:	61 f5       	brne	.+88     	; 0xd06 <_ZN11interpreter3runEv+0x1cc>
     cae:	68 81       	ld	r22, Y
     cb0:	79 81       	ldd	r23, Y+1	; 0x01
     cb2:	6f 5f       	subi	r22, 0xFF	; 255
     cb4:	7f 4f       	sbci	r23, 0xFF	; 255
     cb6:	f8 01       	movw	r30, r16
     cb8:	80 81       	ld	r24, Z
     cba:	91 81       	ldd	r25, Z+1	; 0x01
     cbc:	0e 94 5e 0d 	call	0x1abc	; 0x1abc <_ZN3ram4readEi>
     cc0:	c8 2e       	mov	r12, r24
     cc2:	68 81       	ld	r22, Y
     cc4:	79 81       	ldd	r23, Y+1	; 0x01
     cc6:	6e 5f       	subi	r22, 0xFE	; 254
     cc8:	7f 4f       	sbci	r23, 0xFF	; 255
     cca:	f8 01       	movw	r30, r16
     ccc:	80 81       	ld	r24, Z
     cce:	91 81       	ldd	r25, Z+1	; 0x01
     cd0:	0e 94 5e 0d 	call	0x1abc	; 0x1abc <_ZN3ram4readEi>
     cd4:	d8 2e       	mov	r13, r24
     cd6:	68 81       	ld	r22, Y
     cd8:	79 81       	ldd	r23, Y+1	; 0x01
     cda:	6d 5f       	subi	r22, 0xFD	; 253
     cdc:	7f 4f       	sbci	r23, 0xFF	; 255
     cde:	f8 01       	movw	r30, r16
     ce0:	80 81       	ld	r24, Z
     ce2:	91 81       	ldd	r25, Z+1	; 0x01
     ce4:	0e 94 5e 0d 	call	0x1abc	; 0x1abc <_ZN3ram4readEi>
     ce8:	4d 2d       	mov	r20, r13
     cea:	50 e0       	ldi	r21, 0x00	; 0
     cec:	54 2f       	mov	r21, r20
     cee:	44 27       	eor	r20, r20
     cf0:	48 2b       	or	r20, r24
     cf2:	6c 2d       	mov	r22, r12
     cf4:	c8 01       	movw	r24, r16
     cf6:	0e 94 ea 00 	call	0x1d4	; 0x1d4 <_ZN11interpreter2ldEcj>
     cfa:	88 81       	ld	r24, Y
     cfc:	99 81       	ldd	r25, Y+1	; 0x01
     cfe:	03 96       	adiw	r24, 0x03	; 3
     d00:	99 83       	std	Y+1, r25	; 0x01
     d02:	88 83       	st	Y, r24
     d04:	34 c5       	rjmp	.+2664   	; 0x176e <__stack+0x66f>
     d06:	87 30       	cpi	r24, 0x07	; 7
     d08:	e9 f4       	brne	.+58     	; 0xd44 <_ZN11interpreter3runEv+0x20a>
     d0a:	68 81       	ld	r22, Y
     d0c:	79 81       	ldd	r23, Y+1	; 0x01
     d0e:	6f 5f       	subi	r22, 0xFF	; 255
     d10:	7f 4f       	sbci	r23, 0xFF	; 255
     d12:	f8 01       	movw	r30, r16
     d14:	80 81       	ld	r24, Z
     d16:	91 81       	ldd	r25, Z+1	; 0x01
     d18:	0e 94 5e 0d 	call	0x1abc	; 0x1abc <_ZN3ram4readEi>
     d1c:	d8 2e       	mov	r13, r24
     d1e:	68 81       	ld	r22, Y
     d20:	79 81       	ldd	r23, Y+1	; 0x01
     d22:	6e 5f       	subi	r22, 0xFE	; 254
     d24:	7f 4f       	sbci	r23, 0xFF	; 255
     d26:	f8 01       	movw	r30, r16
     d28:	80 81       	ld	r24, Z
     d2a:	91 81       	ldd	r25, Z+1	; 0x01
     d2c:	0e 94 5e 0d 	call	0x1abc	; 0x1abc <_ZN3ram4readEi>
     d30:	f8 01       	movw	r30, r16
     d32:	ed 0d       	add	r30, r13
     d34:	f1 1d       	adc	r31, r1
     d36:	84 87       	std	Z+12, r24	; 0x0c
     d38:	88 81       	ld	r24, Y
     d3a:	99 81       	ldd	r25, Y+1	; 0x01
     d3c:	02 96       	adiw	r24, 0x02	; 2
     d3e:	99 83       	std	Y+1, r25	; 0x01
     d40:	88 83       	st	Y, r24
     d42:	15 c5       	rjmp	.+2602   	; 0x176e <__stack+0x66f>
     d44:	88 30       	cpi	r24, 0x08	; 8
     d46:	99 f4       	brne	.+38     	; 0xd6e <_ZN11interpreter3runEv+0x234>
     d48:	68 81       	ld	r22, Y
     d4a:	79 81       	ldd	r23, Y+1	; 0x01
     d4c:	6f 5f       	subi	r22, 0xFF	; 255
     d4e:	7f 4f       	sbci	r23, 0xFF	; 255
     d50:	f8 01       	movw	r30, r16
     d52:	80 81       	ld	r24, Z
     d54:	91 81       	ldd	r25, Z+1	; 0x01
     d56:	0e 94 5e 0d 	call	0x1abc	; 0x1abc <_ZN3ram4readEi>
     d5a:	68 2f       	mov	r22, r24
     d5c:	c8 01       	movw	r24, r16
     d5e:	0e 94 2e 01 	call	0x25c	; 0x25c <_ZN11interpreter3stxEc>
     d62:	88 81       	ld	r24, Y
     d64:	99 81       	ldd	r25, Y+1	; 0x01
     d66:	01 96       	adiw	r24, 0x01	; 1
     d68:	99 83       	std	Y+1, r25	; 0x01
     d6a:	88 83       	st	Y, r24
     d6c:	00 c5       	rjmp	.+2560   	; 0x176e <__stack+0x66f>
     d6e:	89 30       	cpi	r24, 0x09	; 9
     d70:	99 f4       	brne	.+38     	; 0xd98 <_ZN11interpreter3runEv+0x25e>
     d72:	68 81       	ld	r22, Y
     d74:	79 81       	ldd	r23, Y+1	; 0x01
     d76:	6f 5f       	subi	r22, 0xFF	; 255
     d78:	7f 4f       	sbci	r23, 0xFF	; 255
     d7a:	f8 01       	movw	r30, r16
     d7c:	80 81       	ld	r24, Z
     d7e:	91 81       	ldd	r25, Z+1	; 0x01
     d80:	0e 94 5e 0d 	call	0x1abc	; 0x1abc <_ZN3ram4readEi>
     d84:	68 2f       	mov	r22, r24
     d86:	c8 01       	movw	r24, r16
     d88:	0e 94 4a 01 	call	0x294	; 0x294 <_ZN11interpreter3styEc>
     d8c:	88 81       	ld	r24, Y
     d8e:	99 81       	ldd	r25, Y+1	; 0x01
     d90:	01 96       	adiw	r24, 0x01	; 1
     d92:	99 83       	std	Y+1, r25	; 0x01
     d94:	88 83       	st	Y, r24
     d96:	eb c4       	rjmp	.+2518   	; 0x176e <__stack+0x66f>
     d98:	8a 30       	cpi	r24, 0x0A	; 10
     d9a:	99 f4       	brne	.+38     	; 0xdc2 <_ZN11interpreter3runEv+0x288>
     d9c:	68 81       	ld	r22, Y
     d9e:	79 81       	ldd	r23, Y+1	; 0x01
     da0:	6f 5f       	subi	r22, 0xFF	; 255
     da2:	7f 4f       	sbci	r23, 0xFF	; 255
     da4:	f8 01       	movw	r30, r16
     da6:	80 81       	ld	r24, Z
     da8:	91 81       	ldd	r25, Z+1	; 0x01
     daa:	0e 94 5e 0d 	call	0x1abc	; 0x1abc <_ZN3ram4readEi>
     dae:	68 2f       	mov	r22, r24
     db0:	c8 01       	movw	r24, r16
     db2:	0e 94 66 01 	call	0x2cc	; 0x2cc <_ZN11interpreter3stzEc>
     db6:	88 81       	ld	r24, Y
     db8:	99 81       	ldd	r25, Y+1	; 0x01
     dba:	01 96       	adiw	r24, 0x01	; 1
     dbc:	99 83       	std	Y+1, r25	; 0x01
     dbe:	88 83       	st	Y, r24
     dc0:	d6 c4       	rjmp	.+2476   	; 0x176e <__stack+0x66f>
     dc2:	8b 30       	cpi	r24, 0x0B	; 11
     dc4:	51 f5       	brne	.+84     	; 0xe1a <_ZN11interpreter3runEv+0x2e0>
     dc6:	68 81       	ld	r22, Y
     dc8:	79 81       	ldd	r23, Y+1	; 0x01
     dca:	6e 5f       	subi	r22, 0xFE	; 254
     dcc:	7f 4f       	sbci	r23, 0xFF	; 255
     dce:	f8 01       	movw	r30, r16
     dd0:	80 81       	ld	r24, Z
     dd2:	91 81       	ldd	r25, Z+1	; 0x01
     dd4:	0e 94 5e 0d 	call	0x1abc	; 0x1abc <_ZN3ram4readEi>
     dd8:	c8 2e       	mov	r12, r24
     dda:	68 81       	ld	r22, Y
     ddc:	79 81       	ldd	r23, Y+1	; 0x01
     dde:	6d 5f       	subi	r22, 0xFD	; 253
     de0:	7f 4f       	sbci	r23, 0xFF	; 255
     de2:	f8 01       	movw	r30, r16
     de4:	80 81       	ld	r24, Z
     de6:	91 81       	ldd	r25, Z+1	; 0x01
     de8:	0e 94 5e 0d 	call	0x1abc	; 0x1abc <_ZN3ram4readEi>
     dec:	d8 2e       	mov	r13, r24
     dee:	68 81       	ld	r22, Y
     df0:	79 81       	ldd	r23, Y+1	; 0x01
     df2:	6f 5f       	subi	r22, 0xFF	; 255
     df4:	7f 4f       	sbci	r23, 0xFF	; 255
     df6:	f8 01       	movw	r30, r16
     df8:	80 81       	ld	r24, Z
     dfa:	91 81       	ldd	r25, Z+1	; 0x01
     dfc:	0e 94 5e 0d 	call	0x1abc	; 0x1abc <_ZN3ram4readEi>
     e00:	6d 2d       	mov	r22, r13
     e02:	70 e0       	ldi	r23, 0x00	; 0
     e04:	7c 29       	or	r23, r12
     e06:	48 2f       	mov	r20, r24
     e08:	c8 01       	movw	r24, r16
     e0a:	0e 94 82 01 	call	0x304	; 0x304 <_ZN11interpreter3stdEjc>
     e0e:	88 81       	ld	r24, Y
     e10:	99 81       	ldd	r25, Y+1	; 0x01
     e12:	03 96       	adiw	r24, 0x03	; 3
     e14:	99 83       	std	Y+1, r25	; 0x01
     e16:	88 83       	st	Y, r24
     e18:	aa c4       	rjmp	.+2388   	; 0x176e <__stack+0x66f>
     e1a:	8c 30       	cpi	r24, 0x0C	; 12
     e1c:	51 f5       	brne	.+84     	; 0xe72 <_ZN11interpreter3runEv+0x338>
     e1e:	68 81       	ld	r22, Y
     e20:	79 81       	ldd	r23, Y+1	; 0x01
     e22:	6e 5f       	subi	r22, 0xFE	; 254
     e24:	7f 4f       	sbci	r23, 0xFF	; 255
     e26:	f8 01       	movw	r30, r16
     e28:	80 81       	ld	r24, Z
     e2a:	91 81       	ldd	r25, Z+1	; 0x01
     e2c:	0e 94 5e 0d 	call	0x1abc	; 0x1abc <_ZN3ram4readEi>
     e30:	c8 2e       	mov	r12, r24
     e32:	68 81       	ld	r22, Y
     e34:	79 81       	ldd	r23, Y+1	; 0x01
     e36:	6d 5f       	subi	r22, 0xFD	; 253
     e38:	7f 4f       	sbci	r23, 0xFF	; 255
     e3a:	f8 01       	movw	r30, r16
     e3c:	80 81       	ld	r24, Z
     e3e:	91 81       	ldd	r25, Z+1	; 0x01
     e40:	0e 94 5e 0d 	call	0x1abc	; 0x1abc <_ZN3ram4readEi>
     e44:	d8 2e       	mov	r13, r24
     e46:	68 81       	ld	r22, Y
     e48:	79 81       	ldd	r23, Y+1	; 0x01
     e4a:	6f 5f       	subi	r22, 0xFF	; 255
     e4c:	7f 4f       	sbci	r23, 0xFF	; 255
     e4e:	f8 01       	movw	r30, r16
     e50:	80 81       	ld	r24, Z
     e52:	91 81       	ldd	r25, Z+1	; 0x01
     e54:	0e 94 5e 0d 	call	0x1abc	; 0x1abc <_ZN3ram4readEi>
     e58:	6d 2d       	mov	r22, r13
     e5a:	70 e0       	ldi	r23, 0x00	; 0
     e5c:	7c 29       	or	r23, r12
     e5e:	48 2f       	mov	r20, r24
     e60:	c8 01       	movw	r24, r16
     e62:	0e 94 88 01 	call	0x310	; 0x310 <_ZN11interpreter3svdEjc>
     e66:	88 81       	ld	r24, Y
     e68:	99 81       	ldd	r25, Y+1	; 0x01
     e6a:	03 96       	adiw	r24, 0x03	; 3
     e6c:	99 83       	std	Y+1, r25	; 0x01
     e6e:	88 83       	st	Y, r24
     e70:	7e c4       	rjmp	.+2300   	; 0x176e <__stack+0x66f>
     e72:	8d 30       	cpi	r24, 0x0D	; 13
     e74:	99 f4       	brne	.+38     	; 0xe9c <_ZN11interpreter3runEv+0x362>
     e76:	68 81       	ld	r22, Y
     e78:	79 81       	ldd	r23, Y+1	; 0x01
     e7a:	6f 5f       	subi	r22, 0xFF	; 255
     e7c:	7f 4f       	sbci	r23, 0xFF	; 255
     e7e:	f8 01       	movw	r30, r16
     e80:	80 81       	ld	r24, Z
     e82:	91 81       	ldd	r25, Z+1	; 0x01
     e84:	0e 94 5e 0d 	call	0x1abc	; 0x1abc <_ZN3ram4readEi>
     e88:	68 2f       	mov	r22, r24
     e8a:	c8 01       	movw	r24, r16
     e8c:	0e 94 8e 01 	call	0x31c	; 0x31c <_ZN11interpreter3svxEc>
     e90:	88 81       	ld	r24, Y
     e92:	99 81       	ldd	r25, Y+1	; 0x01
     e94:	01 96       	adiw	r24, 0x01	; 1
     e96:	99 83       	std	Y+1, r25	; 0x01
     e98:	88 83       	st	Y, r24
     e9a:	69 c4       	rjmp	.+2258   	; 0x176e <__stack+0x66f>
     e9c:	8e 30       	cpi	r24, 0x0E	; 14
     e9e:	99 f4       	brne	.+38     	; 0xec6 <_ZN11interpreter3runEv+0x38c>
     ea0:	68 81       	ld	r22, Y
     ea2:	79 81       	ldd	r23, Y+1	; 0x01
     ea4:	6f 5f       	subi	r22, 0xFF	; 255
     ea6:	7f 4f       	sbci	r23, 0xFF	; 255
     ea8:	f8 01       	movw	r30, r16
     eaa:	80 81       	ld	r24, Z
     eac:	91 81       	ldd	r25, Z+1	; 0x01
     eae:	0e 94 5e 0d 	call	0x1abc	; 0x1abc <_ZN3ram4readEi>
     eb2:	68 2f       	mov	r22, r24
     eb4:	c8 01       	movw	r24, r16
     eb6:	0e 94 a4 01 	call	0x348	; 0x348 <_ZN11interpreter3svyEc>
     eba:	88 81       	ld	r24, Y
     ebc:	99 81       	ldd	r25, Y+1	; 0x01
     ebe:	01 96       	adiw	r24, 0x01	; 1
     ec0:	99 83       	std	Y+1, r25	; 0x01
     ec2:	88 83       	st	Y, r24
     ec4:	54 c4       	rjmp	.+2216   	; 0x176e <__stack+0x66f>
     ec6:	8f 30       	cpi	r24, 0x0F	; 15
     ec8:	99 f4       	brne	.+38     	; 0xef0 <_ZN11interpreter3runEv+0x3b6>
     eca:	68 81       	ld	r22, Y
     ecc:	79 81       	ldd	r23, Y+1	; 0x01
     ece:	6f 5f       	subi	r22, 0xFF	; 255
     ed0:	7f 4f       	sbci	r23, 0xFF	; 255
     ed2:	f8 01       	movw	r30, r16
     ed4:	80 81       	ld	r24, Z
     ed6:	91 81       	ldd	r25, Z+1	; 0x01
     ed8:	0e 94 5e 0d 	call	0x1abc	; 0x1abc <_ZN3ram4readEi>
     edc:	68 2f       	mov	r22, r24
     ede:	c8 01       	movw	r24, r16
     ee0:	0e 94 ba 01 	call	0x374	; 0x374 <_ZN11interpreter3svzEc>
     ee4:	88 81       	ld	r24, Y
     ee6:	99 81       	ldd	r25, Y+1	; 0x01
     ee8:	01 96       	adiw	r24, 0x01	; 1
     eea:	99 83       	std	Y+1, r25	; 0x01
     eec:	88 83       	st	Y, r24
     eee:	3f c4       	rjmp	.+2174   	; 0x176e <__stack+0x66f>
     ef0:	80 31       	cpi	r24, 0x10	; 16
     ef2:	21 f4       	brne	.+8      	; 0xefc <_ZN11interpreter3runEv+0x3c2>
     ef4:	c8 01       	movw	r24, r16
     ef6:	0e 94 d0 01 	call	0x3a0	; 0x3a0 <_ZN11interpreter3txsEv>
     efa:	39 c4       	rjmp	.+2162   	; 0x176e <__stack+0x66f>
     efc:	81 31       	cpi	r24, 0x11	; 17
     efe:	21 f4       	brne	.+8      	; 0xf08 <_ZN11interpreter3runEv+0x3ce>
     f00:	c8 01       	movw	r24, r16
     f02:	0e 94 e9 01 	call	0x3d2	; 0x3d2 <_ZN11interpreter3txyEv>
     f06:	33 c4       	rjmp	.+2150   	; 0x176e <__stack+0x66f>
     f08:	82 31       	cpi	r24, 0x12	; 18
     f0a:	21 f4       	brne	.+8      	; 0xf14 <_ZN11interpreter3runEv+0x3da>
     f0c:	c8 01       	movw	r24, r16
     f0e:	0e 94 02 02 	call	0x404	; 0x404 <_ZN11interpreter3txzEv>
     f12:	2d c4       	rjmp	.+2138   	; 0x176e <__stack+0x66f>
     f14:	83 31       	cpi	r24, 0x13	; 19
     f16:	21 f4       	brne	.+8      	; 0xf20 <_ZN11interpreter3runEv+0x3e6>
     f18:	c8 01       	movw	r24, r16
     f1a:	0e 94 1b 02 	call	0x436	; 0x436 <_ZN11interpreter3tysEv>
     f1e:	27 c4       	rjmp	.+2126   	; 0x176e <__stack+0x66f>
     f20:	84 31       	cpi	r24, 0x14	; 20
     f22:	21 f4       	brne	.+8      	; 0xf2c <_ZN11interpreter3runEv+0x3f2>
     f24:	c8 01       	movw	r24, r16
     f26:	0e 94 34 02 	call	0x468	; 0x468 <_ZN11interpreter3tyxEv>
     f2a:	21 c4       	rjmp	.+2114   	; 0x176e <__stack+0x66f>
     f2c:	85 31       	cpi	r24, 0x15	; 21
     f2e:	21 f4       	brne	.+8      	; 0xf38 <_ZN11interpreter3runEv+0x3fe>
     f30:	c8 01       	movw	r24, r16
     f32:	0e 94 4d 02 	call	0x49a	; 0x49a <_ZN11interpreter3tyzEv>
     f36:	1b c4       	rjmp	.+2102   	; 0x176e <__stack+0x66f>
     f38:	86 31       	cpi	r24, 0x16	; 22
     f3a:	21 f4       	brne	.+8      	; 0xf44 <_ZN11interpreter3runEv+0x40a>
     f3c:	c8 01       	movw	r24, r16
     f3e:	0e 94 66 02 	call	0x4cc	; 0x4cc <_ZN11interpreter3tzsEv>
     f42:	15 c4       	rjmp	.+2090   	; 0x176e <__stack+0x66f>
     f44:	87 31       	cpi	r24, 0x17	; 23
     f46:	21 f4       	brne	.+8      	; 0xf50 <_ZN11interpreter3runEv+0x416>
     f48:	c8 01       	movw	r24, r16
     f4a:	0e 94 7f 02 	call	0x4fe	; 0x4fe <_ZN11interpreter3tzxEv>
     f4e:	0f c4       	rjmp	.+2078   	; 0x176e <__stack+0x66f>
     f50:	88 31       	cpi	r24, 0x18	; 24
     f52:	21 f4       	brne	.+8      	; 0xf5c <_ZN11interpreter3runEv+0x422>
     f54:	c8 01       	movw	r24, r16
     f56:	0e 94 98 02 	call	0x530	; 0x530 <_ZN11interpreter3tzyEv>
     f5a:	09 c4       	rjmp	.+2066   	; 0x176e <__stack+0x66f>
     f5c:	89 31       	cpi	r24, 0x19	; 25
     f5e:	21 f4       	brne	.+8      	; 0xf68 <_ZN11interpreter3runEv+0x42e>
     f60:	c8 01       	movw	r24, r16
     f62:	0e 94 b1 02 	call	0x562	; 0x562 <_ZN11interpreter3tsxEv>
     f66:	03 c4       	rjmp	.+2054   	; 0x176e <__stack+0x66f>
     f68:	8a 31       	cpi	r24, 0x1A	; 26
     f6a:	21 f4       	brne	.+8      	; 0xf74 <_ZN11interpreter3runEv+0x43a>
     f6c:	c8 01       	movw	r24, r16
     f6e:	0e 94 bf 02 	call	0x57e	; 0x57e <_ZN11interpreter3tsyEv>
     f72:	fd c3       	rjmp	.+2042   	; 0x176e <__stack+0x66f>
     f74:	8b 31       	cpi	r24, 0x1B	; 27
     f76:	21 f4       	brne	.+8      	; 0xf80 <_ZN11interpreter3runEv+0x446>
     f78:	c8 01       	movw	r24, r16
     f7a:	0e 94 cd 02 	call	0x59a	; 0x59a <_ZN11interpreter3tszEv>
     f7e:	f7 c3       	rjmp	.+2030   	; 0x176e <__stack+0x66f>
     f80:	8c 31       	cpi	r24, 0x1C	; 28
     f82:	f1 f4       	brne	.+60     	; 0xfc0 <_ZN11interpreter3runEv+0x486>
     f84:	68 81       	ld	r22, Y
     f86:	79 81       	ldd	r23, Y+1	; 0x01
     f88:	6f 5f       	subi	r22, 0xFF	; 255
     f8a:	7f 4f       	sbci	r23, 0xFF	; 255
     f8c:	f8 01       	movw	r30, r16
     f8e:	80 81       	ld	r24, Z
     f90:	91 81       	ldd	r25, Z+1	; 0x01
     f92:	0e 94 5e 0d 	call	0x1abc	; 0x1abc <_ZN3ram4readEi>
     f96:	d8 2e       	mov	r13, r24
     f98:	68 81       	ld	r22, Y
     f9a:	79 81       	ldd	r23, Y+1	; 0x01
     f9c:	6e 5f       	subi	r22, 0xFE	; 254
     f9e:	7f 4f       	sbci	r23, 0xFF	; 255
     fa0:	f8 01       	movw	r30, r16
     fa2:	80 81       	ld	r24, Z
     fa4:	91 81       	ldd	r25, Z+1	; 0x01
     fa6:	0e 94 5e 0d 	call	0x1abc	; 0x1abc <_ZN3ram4readEi>
     faa:	48 2f       	mov	r20, r24
     fac:	6d 2d       	mov	r22, r13
     fae:	c8 01       	movw	r24, r16
     fb0:	0e 94 db 02 	call	0x5b6	; 0x5b6 <_ZN11interpreter3cmpEcc>
     fb4:	88 81       	ld	r24, Y
     fb6:	99 81       	ldd	r25, Y+1	; 0x01
     fb8:	02 96       	adiw	r24, 0x02	; 2
     fba:	99 83       	std	Y+1, r25	; 0x01
     fbc:	88 83       	st	Y, r24
     fbe:	d7 c3       	rjmp	.+1966   	; 0x176e <__stack+0x66f>
     fc0:	8d 31       	cpi	r24, 0x1D	; 29
     fc2:	f1 f4       	brne	.+60     	; 0x1000 <_ZN11interpreter3runEv+0x4c6>
     fc4:	68 81       	ld	r22, Y
     fc6:	79 81       	ldd	r23, Y+1	; 0x01
     fc8:	6f 5f       	subi	r22, 0xFF	; 255
     fca:	7f 4f       	sbci	r23, 0xFF	; 255
     fcc:	f8 01       	movw	r30, r16
     fce:	80 81       	ld	r24, Z
     fd0:	91 81       	ldd	r25, Z+1	; 0x01
     fd2:	0e 94 5e 0d 	call	0x1abc	; 0x1abc <_ZN3ram4readEi>
     fd6:	d8 2e       	mov	r13, r24
     fd8:	68 81       	ld	r22, Y
     fda:	79 81       	ldd	r23, Y+1	; 0x01
     fdc:	6e 5f       	subi	r22, 0xFE	; 254
     fde:	7f 4f       	sbci	r23, 0xFF	; 255
     fe0:	f8 01       	movw	r30, r16
     fe2:	80 81       	ld	r24, Z
     fe4:	91 81       	ldd	r25, Z+1	; 0x01
     fe6:	0e 94 5e 0d 	call	0x1abc	; 0x1abc <_ZN3ram4readEi>
     fea:	48 2f       	mov	r20, r24
     fec:	6d 2d       	mov	r22, r13
     fee:	c8 01       	movw	r24, r16
     ff0:	0e 94 f5 02 	call	0x5ea	; 0x5ea <_ZN11interpreter3cpiEcc>
     ff4:	88 81       	ld	r24, Y
     ff6:	99 81       	ldd	r25, Y+1	; 0x01
     ff8:	02 96       	adiw	r24, 0x02	; 2
     ffa:	99 83       	std	Y+1, r25	; 0x01
     ffc:	88 83       	st	Y, r24
     ffe:	b7 c3       	rjmp	.+1902   	; 0x176e <__stack+0x66f>
    1000:	8e 31       	cpi	r24, 0x1E	; 30
    1002:	b9 f4       	brne	.+46     	; 0x1032 <_ZN11interpreter3runEv+0x4f8>
    1004:	68 81       	ld	r22, Y
    1006:	79 81       	ldd	r23, Y+1	; 0x01
    1008:	6f 5f       	subi	r22, 0xFF	; 255
    100a:	7f 4f       	sbci	r23, 0xFF	; 255
    100c:	f8 01       	movw	r30, r16
    100e:	80 81       	ld	r24, Z
    1010:	91 81       	ldd	r25, Z+1	; 0x01
    1012:	0e 94 5e 0d 	call	0x1abc	; 0x1abc <_ZN3ram4readEi>
    1016:	f8 01       	movw	r30, r16
    1018:	e8 0f       	add	r30, r24
    101a:	f1 1d       	adc	r31, r1
    101c:	84 85       	ldd	r24, Z+12	; 0x0c
    101e:	90 e0       	ldi	r25, 0x00	; 0
    1020:	95 95       	asr	r25
    1022:	87 95       	ror	r24
    1024:	84 87       	std	Z+12, r24	; 0x0c
    1026:	88 81       	ld	r24, Y
    1028:	99 81       	ldd	r25, Y+1	; 0x01
    102a:	01 96       	adiw	r24, 0x01	; 1
    102c:	99 83       	std	Y+1, r25	; 0x01
    102e:	88 83       	st	Y, r24
    1030:	9e c3       	rjmp	.+1852   	; 0x176e <__stack+0x66f>
    1032:	8f 31       	cpi	r24, 0x1F	; 31
    1034:	a9 f4       	brne	.+42     	; 0x1060 <_ZN11interpreter3runEv+0x526>
    1036:	68 81       	ld	r22, Y
    1038:	79 81       	ldd	r23, Y+1	; 0x01
    103a:	6f 5f       	subi	r22, 0xFF	; 255
    103c:	7f 4f       	sbci	r23, 0xFF	; 255
    103e:	f8 01       	movw	r30, r16
    1040:	80 81       	ld	r24, Z
    1042:	91 81       	ldd	r25, Z+1	; 0x01
    1044:	0e 94 5e 0d 	call	0x1abc	; 0x1abc <_ZN3ram4readEi>
    1048:	f8 01       	movw	r30, r16
    104a:	e8 0f       	add	r30, r24
    104c:	f1 1d       	adc	r31, r1
    104e:	84 85       	ldd	r24, Z+12	; 0x0c
    1050:	88 0f       	add	r24, r24
    1052:	84 87       	std	Z+12, r24	; 0x0c
    1054:	88 81       	ld	r24, Y
    1056:	99 81       	ldd	r25, Y+1	; 0x01
    1058:	01 96       	adiw	r24, 0x01	; 1
    105a:	99 83       	std	Y+1, r25	; 0x01
    105c:	88 83       	st	Y, r24
    105e:	87 c3       	rjmp	.+1806   	; 0x176e <__stack+0x66f>
    1060:	80 32       	cpi	r24, 0x20	; 32
    1062:	e9 f4       	brne	.+58     	; 0x109e <_ZN11interpreter3runEv+0x564>
    1064:	68 81       	ld	r22, Y
    1066:	79 81       	ldd	r23, Y+1	; 0x01
    1068:	6f 5f       	subi	r22, 0xFF	; 255
    106a:	7f 4f       	sbci	r23, 0xFF	; 255
    106c:	f8 01       	movw	r30, r16
    106e:	80 81       	ld	r24, Z
    1070:	91 81       	ldd	r25, Z+1	; 0x01
    1072:	0e 94 5e 0d 	call	0x1abc	; 0x1abc <_ZN3ram4readEi>
    1076:	d8 2e       	mov	r13, r24
    1078:	68 81       	ld	r22, Y
    107a:	79 81       	ldd	r23, Y+1	; 0x01
    107c:	6e 5f       	subi	r22, 0xFE	; 254
    107e:	7f 4f       	sbci	r23, 0xFF	; 255
    1080:	f8 01       	movw	r30, r16
    1082:	80 81       	ld	r24, Z
    1084:	91 81       	ldd	r25, Z+1	; 0x01
    1086:	0e 94 5e 0d 	call	0x1abc	; 0x1abc <_ZN3ram4readEi>
    108a:	2d 2d       	mov	r18, r13
    108c:	30 e0       	ldi	r19, 0x00	; 0
    108e:	32 2f       	mov	r19, r18
    1090:	22 27       	eor	r18, r18
    1092:	b9 01       	movw	r22, r18
    1094:	68 2b       	or	r22, r24
    1096:	c8 01       	movw	r24, r16
    1098:	0e 94 0f 03 	call	0x61e	; 0x61e <_ZN11interpreter4breqEj>
    109c:	68 c3       	rjmp	.+1744   	; 0x176e <__stack+0x66f>
    109e:	81 32       	cpi	r24, 0x21	; 33
    10a0:	09 f5       	brne	.+66     	; 0x10e4 <_ZN11interpreter3runEv+0x5aa>
    10a2:	68 81       	ld	r22, Y
    10a4:	79 81       	ldd	r23, Y+1	; 0x01
    10a6:	6f 5f       	subi	r22, 0xFF	; 255
    10a8:	7f 4f       	sbci	r23, 0xFF	; 255
    10aa:	f8 01       	movw	r30, r16
    10ac:	80 81       	ld	r24, Z
    10ae:	91 81       	ldd	r25, Z+1	; 0x01
    10b0:	0e 94 5e 0d 	call	0x1abc	; 0x1abc <_ZN3ram4readEi>
    10b4:	d8 2e       	mov	r13, r24
    10b6:	68 81       	ld	r22, Y
    10b8:	79 81       	ldd	r23, Y+1	; 0x01
    10ba:	6e 5f       	subi	r22, 0xFE	; 254
    10bc:	7f 4f       	sbci	r23, 0xFF	; 255
    10be:	f8 01       	movw	r30, r16
    10c0:	80 81       	ld	r24, Z
    10c2:	91 81       	ldd	r25, Z+1	; 0x01
    10c4:	0e 94 5e 0d 	call	0x1abc	; 0x1abc <_ZN3ram4readEi>
    10c8:	2d 2d       	mov	r18, r13
    10ca:	30 e0       	ldi	r19, 0x00	; 0
    10cc:	32 2f       	mov	r19, r18
    10ce:	22 27       	eor	r18, r18
    10d0:	28 2b       	or	r18, r24
    10d2:	88 81       	ld	r24, Y
    10d4:	99 81       	ldd	r25, Y+1	; 0x01
    10d6:	b9 01       	movw	r22, r18
    10d8:	68 0f       	add	r22, r24
    10da:	79 1f       	adc	r23, r25
    10dc:	c8 01       	movw	r24, r16
    10de:	0e 94 19 03 	call	0x632	; 0x632 <_ZN11interpreter7breqpcfEj>
    10e2:	45 c3       	rjmp	.+1674   	; 0x176e <__stack+0x66f>
    10e4:	82 32       	cpi	r24, 0x22	; 34
    10e6:	01 f5       	brne	.+64     	; 0x1128 <__stack+0x29>
    10e8:	68 81       	ld	r22, Y
    10ea:	79 81       	ldd	r23, Y+1	; 0x01
    10ec:	6f 5f       	subi	r22, 0xFF	; 255
    10ee:	7f 4f       	sbci	r23, 0xFF	; 255
    10f0:	f8 01       	movw	r30, r16
    10f2:	80 81       	ld	r24, Z
    10f4:	91 81       	ldd	r25, Z+1	; 0x01
    10f6:	0e 94 5e 0d 	call	0x1abc	; 0x1abc <_ZN3ram4readEi>
    10fa:	d8 2e       	mov	r13, r24
    10fc:	68 81       	ld	r22, Y
    10fe:	79 81       	ldd	r23, Y+1	; 0x01
    1100:	6e 5f       	subi	r22, 0xFE	; 254
    1102:	7f 4f       	sbci	r23, 0xFF	; 255
    1104:	f8 01       	movw	r30, r16
    1106:	80 81       	ld	r24, Z
    1108:	91 81       	ldd	r25, Z+1	; 0x01
    110a:	0e 94 5e 0d 	call	0x1abc	; 0x1abc <_ZN3ram4readEi>
    110e:	2d 2d       	mov	r18, r13
    1110:	30 e0       	ldi	r19, 0x00	; 0
    1112:	32 2f       	mov	r19, r18
    1114:	22 27       	eor	r18, r18
    1116:	28 2b       	or	r18, r24
    1118:	68 81       	ld	r22, Y
    111a:	79 81       	ldd	r23, Y+1	; 0x01
    111c:	62 1b       	sub	r22, r18
    111e:	73 0b       	sbc	r23, r19
    1120:	c8 01       	movw	r24, r16
    1122:	0e 94 27 03 	call	0x64e	; 0x64e <_ZN11interpreter7breqpcbEj>
    1126:	23 c3       	rjmp	.+1606   	; 0x176e <__stack+0x66f>
    1128:	83 32       	cpi	r24, 0x23	; 35
    112a:	e9 f4       	brne	.+58     	; 0x1166 <__stack+0x67>
    112c:	68 81       	ld	r22, Y
    112e:	79 81       	ldd	r23, Y+1	; 0x01
    1130:	6f 5f       	subi	r22, 0xFF	; 255
    1132:	7f 4f       	sbci	r23, 0xFF	; 255
    1134:	f8 01       	movw	r30, r16
    1136:	80 81       	ld	r24, Z
    1138:	91 81       	ldd	r25, Z+1	; 0x01
    113a:	0e 94 5e 0d 	call	0x1abc	; 0x1abc <_ZN3ram4readEi>
    113e:	d8 2e       	mov	r13, r24
    1140:	68 81       	ld	r22, Y
    1142:	79 81       	ldd	r23, Y+1	; 0x01
    1144:	6e 5f       	subi	r22, 0xFE	; 254
    1146:	7f 4f       	sbci	r23, 0xFF	; 255
    1148:	f8 01       	movw	r30, r16
    114a:	80 81       	ld	r24, Z
    114c:	91 81       	ldd	r25, Z+1	; 0x01
    114e:	0e 94 5e 0d 	call	0x1abc	; 0x1abc <_ZN3ram4readEi>
    1152:	2d 2d       	mov	r18, r13
    1154:	30 e0       	ldi	r19, 0x00	; 0
    1156:	32 2f       	mov	r19, r18
    1158:	22 27       	eor	r18, r18
    115a:	b9 01       	movw	r22, r18
    115c:	68 2b       	or	r22, r24
    115e:	c8 01       	movw	r24, r16
    1160:	0e 94 35 03 	call	0x66a	; 0x66a <_ZN11interpreter4brneEj>
    1164:	04 c3       	rjmp	.+1544   	; 0x176e <__stack+0x66f>
    1166:	84 32       	cpi	r24, 0x24	; 36
    1168:	09 f5       	brne	.+66     	; 0x11ac <__stack+0xad>
    116a:	68 81       	ld	r22, Y
    116c:	79 81       	ldd	r23, Y+1	; 0x01
    116e:	6f 5f       	subi	r22, 0xFF	; 255
    1170:	7f 4f       	sbci	r23, 0xFF	; 255
    1172:	f8 01       	movw	r30, r16
    1174:	80 81       	ld	r24, Z
    1176:	91 81       	ldd	r25, Z+1	; 0x01
    1178:	0e 94 5e 0d 	call	0x1abc	; 0x1abc <_ZN3ram4readEi>
    117c:	d8 2e       	mov	r13, r24
    117e:	68 81       	ld	r22, Y
    1180:	79 81       	ldd	r23, Y+1	; 0x01
    1182:	6e 5f       	subi	r22, 0xFE	; 254
    1184:	7f 4f       	sbci	r23, 0xFF	; 255
    1186:	f8 01       	movw	r30, r16
    1188:	80 81       	ld	r24, Z
    118a:	91 81       	ldd	r25, Z+1	; 0x01
    118c:	0e 94 5e 0d 	call	0x1abc	; 0x1abc <_ZN3ram4readEi>
    1190:	2d 2d       	mov	r18, r13
    1192:	30 e0       	ldi	r19, 0x00	; 0
    1194:	32 2f       	mov	r19, r18
    1196:	22 27       	eor	r18, r18
    1198:	28 2b       	or	r18, r24
    119a:	88 81       	ld	r24, Y
    119c:	99 81       	ldd	r25, Y+1	; 0x01
    119e:	b9 01       	movw	r22, r18
    11a0:	68 0f       	add	r22, r24
    11a2:	79 1f       	adc	r23, r25
    11a4:	c8 01       	movw	r24, r16
    11a6:	0e 94 54 03 	call	0x6a8	; 0x6a8 <_ZN11interpreter7brnepcfEj>
    11aa:	e1 c2       	rjmp	.+1474   	; 0x176e <__stack+0x66f>
    11ac:	85 32       	cpi	r24, 0x25	; 37
    11ae:	01 f5       	brne	.+64     	; 0x11f0 <__stack+0xf1>
    11b0:	68 81       	ld	r22, Y
    11b2:	79 81       	ldd	r23, Y+1	; 0x01
    11b4:	6f 5f       	subi	r22, 0xFF	; 255
    11b6:	7f 4f       	sbci	r23, 0xFF	; 255
    11b8:	f8 01       	movw	r30, r16
    11ba:	80 81       	ld	r24, Z
    11bc:	91 81       	ldd	r25, Z+1	; 0x01
    11be:	0e 94 5e 0d 	call	0x1abc	; 0x1abc <_ZN3ram4readEi>
    11c2:	d8 2e       	mov	r13, r24
    11c4:	68 81       	ld	r22, Y
    11c6:	79 81       	ldd	r23, Y+1	; 0x01
    11c8:	6e 5f       	subi	r22, 0xFE	; 254
    11ca:	7f 4f       	sbci	r23, 0xFF	; 255
    11cc:	f8 01       	movw	r30, r16
    11ce:	80 81       	ld	r24, Z
    11d0:	91 81       	ldd	r25, Z+1	; 0x01
    11d2:	0e 94 5e 0d 	call	0x1abc	; 0x1abc <_ZN3ram4readEi>
    11d6:	2d 2d       	mov	r18, r13
    11d8:	30 e0       	ldi	r19, 0x00	; 0
    11da:	32 2f       	mov	r19, r18
    11dc:	22 27       	eor	r18, r18
    11de:	28 2b       	or	r18, r24
    11e0:	68 81       	ld	r22, Y
    11e2:	79 81       	ldd	r23, Y+1	; 0x01
    11e4:	62 1b       	sub	r22, r18
    11e6:	73 0b       	sbc	r23, r19
    11e8:	c8 01       	movw	r24, r16
    11ea:	0e 94 77 03 	call	0x6ee	; 0x6ee <_ZN11interpreter7brnepcbEj>
    11ee:	bf c2       	rjmp	.+1406   	; 0x176e <__stack+0x66f>
    11f0:	86 32       	cpi	r24, 0x26	; 38
    11f2:	e9 f4       	brne	.+58     	; 0x122e <__stack+0x12f>
    11f4:	68 81       	ld	r22, Y
    11f6:	79 81       	ldd	r23, Y+1	; 0x01
    11f8:	6f 5f       	subi	r22, 0xFF	; 255
    11fa:	7f 4f       	sbci	r23, 0xFF	; 255
    11fc:	f8 01       	movw	r30, r16
    11fe:	80 81       	ld	r24, Z
    1200:	91 81       	ldd	r25, Z+1	; 0x01
    1202:	0e 94 5e 0d 	call	0x1abc	; 0x1abc <_ZN3ram4readEi>
    1206:	d8 2e       	mov	r13, r24
    1208:	68 81       	ld	r22, Y
    120a:	79 81       	ldd	r23, Y+1	; 0x01
    120c:	6e 5f       	subi	r22, 0xFE	; 254
    120e:	7f 4f       	sbci	r23, 0xFF	; 255
    1210:	f8 01       	movw	r30, r16
    1212:	80 81       	ld	r24, Z
    1214:	91 81       	ldd	r25, Z+1	; 0x01
    1216:	0e 94 5e 0d 	call	0x1abc	; 0x1abc <_ZN3ram4readEi>
    121a:	2d 2d       	mov	r18, r13
    121c:	30 e0       	ldi	r19, 0x00	; 0
    121e:	32 2f       	mov	r19, r18
    1220:	22 27       	eor	r18, r18
    1222:	b9 01       	movw	r22, r18
    1224:	68 2b       	or	r22, r24
    1226:	c8 01       	movw	r24, r16
    1228:	0e 94 9a 03 	call	0x734	; 0x734 <_ZN11interpreter4brgeEj>
    122c:	a0 c2       	rjmp	.+1344   	; 0x176e <__stack+0x66f>
    122e:	87 32       	cpi	r24, 0x27	; 39
    1230:	09 f5       	brne	.+66     	; 0x1274 <__stack+0x175>
    1232:	68 81       	ld	r22, Y
    1234:	79 81       	ldd	r23, Y+1	; 0x01
    1236:	6f 5f       	subi	r22, 0xFF	; 255
    1238:	7f 4f       	sbci	r23, 0xFF	; 255
    123a:	f8 01       	movw	r30, r16
    123c:	80 81       	ld	r24, Z
    123e:	91 81       	ldd	r25, Z+1	; 0x01
    1240:	0e 94 5e 0d 	call	0x1abc	; 0x1abc <_ZN3ram4readEi>
    1244:	d8 2e       	mov	r13, r24
    1246:	68 81       	ld	r22, Y
    1248:	79 81       	ldd	r23, Y+1	; 0x01
    124a:	6e 5f       	subi	r22, 0xFE	; 254
    124c:	7f 4f       	sbci	r23, 0xFF	; 255
    124e:	f8 01       	movw	r30, r16
    1250:	80 81       	ld	r24, Z
    1252:	91 81       	ldd	r25, Z+1	; 0x01
    1254:	0e 94 5e 0d 	call	0x1abc	; 0x1abc <_ZN3ram4readEi>
    1258:	2d 2d       	mov	r18, r13
    125a:	30 e0       	ldi	r19, 0x00	; 0
    125c:	32 2f       	mov	r19, r18
    125e:	22 27       	eor	r18, r18
    1260:	28 2b       	or	r18, r24
    1262:	88 81       	ld	r24, Y
    1264:	99 81       	ldd	r25, Y+1	; 0x01
    1266:	b9 01       	movw	r22, r18
    1268:	68 0f       	add	r22, r24
    126a:	79 1f       	adc	r23, r25
    126c:	c8 01       	movw	r24, r16
    126e:	0e 94 b0 03 	call	0x760	; 0x760 <_ZN11interpreter7brgepcfEj>
    1272:	7d c2       	rjmp	.+1274   	; 0x176e <__stack+0x66f>
    1274:	88 32       	cpi	r24, 0x28	; 40
    1276:	01 f5       	brne	.+64     	; 0x12b8 <__stack+0x1b9>
    1278:	68 81       	ld	r22, Y
    127a:	79 81       	ldd	r23, Y+1	; 0x01
    127c:	6f 5f       	subi	r22, 0xFF	; 255
    127e:	7f 4f       	sbci	r23, 0xFF	; 255
    1280:	f8 01       	movw	r30, r16
    1282:	80 81       	ld	r24, Z
    1284:	91 81       	ldd	r25, Z+1	; 0x01
    1286:	0e 94 5e 0d 	call	0x1abc	; 0x1abc <_ZN3ram4readEi>
    128a:	d8 2e       	mov	r13, r24
    128c:	68 81       	ld	r22, Y
    128e:	79 81       	ldd	r23, Y+1	; 0x01
    1290:	6e 5f       	subi	r22, 0xFE	; 254
    1292:	7f 4f       	sbci	r23, 0xFF	; 255
    1294:	f8 01       	movw	r30, r16
    1296:	80 81       	ld	r24, Z
    1298:	91 81       	ldd	r25, Z+1	; 0x01
    129a:	0e 94 5e 0d 	call	0x1abc	; 0x1abc <_ZN3ram4readEi>
    129e:	2d 2d       	mov	r18, r13
    12a0:	30 e0       	ldi	r19, 0x00	; 0
    12a2:	32 2f       	mov	r19, r18
    12a4:	22 27       	eor	r18, r18
    12a6:	28 2b       	or	r18, r24
    12a8:	68 81       	ld	r22, Y
    12aa:	79 81       	ldd	r23, Y+1	; 0x01
    12ac:	62 1b       	sub	r22, r18
    12ae:	73 0b       	sbc	r23, r19
    12b0:	c8 01       	movw	r24, r16
    12b2:	0e 94 ca 03 	call	0x794	; 0x794 <_ZN11interpreter7brgepcbEj>
    12b6:	5b c2       	rjmp	.+1206   	; 0x176e <__stack+0x66f>
    12b8:	89 32       	cpi	r24, 0x29	; 41
    12ba:	e9 f4       	brne	.+58     	; 0x12f6 <__stack+0x1f7>
    12bc:	68 81       	ld	r22, Y
    12be:	79 81       	ldd	r23, Y+1	; 0x01
    12c0:	6f 5f       	subi	r22, 0xFF	; 255
    12c2:	7f 4f       	sbci	r23, 0xFF	; 255
    12c4:	f8 01       	movw	r30, r16
    12c6:	80 81       	ld	r24, Z
    12c8:	91 81       	ldd	r25, Z+1	; 0x01
    12ca:	0e 94 5e 0d 	call	0x1abc	; 0x1abc <_ZN3ram4readEi>
    12ce:	d8 2e       	mov	r13, r24
    12d0:	68 81       	ld	r22, Y
    12d2:	79 81       	ldd	r23, Y+1	; 0x01
    12d4:	6e 5f       	subi	r22, 0xFE	; 254
    12d6:	7f 4f       	sbci	r23, 0xFF	; 255
    12d8:	f8 01       	movw	r30, r16
    12da:	80 81       	ld	r24, Z
    12dc:	91 81       	ldd	r25, Z+1	; 0x01
    12de:	0e 94 5e 0d 	call	0x1abc	; 0x1abc <_ZN3ram4readEi>
    12e2:	2d 2d       	mov	r18, r13
    12e4:	30 e0       	ldi	r19, 0x00	; 0
    12e6:	32 2f       	mov	r19, r18
    12e8:	22 27       	eor	r18, r18
    12ea:	b9 01       	movw	r22, r18
    12ec:	68 2b       	or	r22, r24
    12ee:	c8 01       	movw	r24, r16
    12f0:	0e 94 e4 03 	call	0x7c8	; 0x7c8 <_ZN11interpreter4brleEj>
    12f4:	3c c2       	rjmp	.+1144   	; 0x176e <__stack+0x66f>
    12f6:	8a 32       	cpi	r24, 0x2A	; 42
    12f8:	09 f5       	brne	.+66     	; 0x133c <__stack+0x23d>
    12fa:	68 81       	ld	r22, Y
    12fc:	79 81       	ldd	r23, Y+1	; 0x01
    12fe:	6f 5f       	subi	r22, 0xFF	; 255
    1300:	7f 4f       	sbci	r23, 0xFF	; 255
    1302:	f8 01       	movw	r30, r16
    1304:	80 81       	ld	r24, Z
    1306:	91 81       	ldd	r25, Z+1	; 0x01
    1308:	0e 94 5e 0d 	call	0x1abc	; 0x1abc <_ZN3ram4readEi>
    130c:	d8 2e       	mov	r13, r24
    130e:	68 81       	ld	r22, Y
    1310:	79 81       	ldd	r23, Y+1	; 0x01
    1312:	6e 5f       	subi	r22, 0xFE	; 254
    1314:	7f 4f       	sbci	r23, 0xFF	; 255
    1316:	f8 01       	movw	r30, r16
    1318:	80 81       	ld	r24, Z
    131a:	91 81       	ldd	r25, Z+1	; 0x01
    131c:	0e 94 5e 0d 	call	0x1abc	; 0x1abc <_ZN3ram4readEi>
    1320:	2d 2d       	mov	r18, r13
    1322:	30 e0       	ldi	r19, 0x00	; 0
    1324:	32 2f       	mov	r19, r18
    1326:	22 27       	eor	r18, r18
    1328:	28 2b       	or	r18, r24
    132a:	88 81       	ld	r24, Y
    132c:	99 81       	ldd	r25, Y+1	; 0x01
    132e:	b9 01       	movw	r22, r18
    1330:	68 0f       	add	r22, r24
    1332:	79 1f       	adc	r23, r25
    1334:	c8 01       	movw	r24, r16
    1336:	0e 94 fc 03 	call	0x7f8	; 0x7f8 <_ZN11interpreter7brlepcfEj>
    133a:	19 c2       	rjmp	.+1074   	; 0x176e <__stack+0x66f>
    133c:	8b 32       	cpi	r24, 0x2B	; 43
    133e:	01 f5       	brne	.+64     	; 0x1380 <__stack+0x281>
    1340:	68 81       	ld	r22, Y
    1342:	79 81       	ldd	r23, Y+1	; 0x01
    1344:	6f 5f       	subi	r22, 0xFF	; 255
    1346:	7f 4f       	sbci	r23, 0xFF	; 255
    1348:	f8 01       	movw	r30, r16
    134a:	80 81       	ld	r24, Z
    134c:	91 81       	ldd	r25, Z+1	; 0x01
    134e:	0e 94 5e 0d 	call	0x1abc	; 0x1abc <_ZN3ram4readEi>
    1352:	d8 2e       	mov	r13, r24
    1354:	68 81       	ld	r22, Y
    1356:	79 81       	ldd	r23, Y+1	; 0x01
    1358:	6e 5f       	subi	r22, 0xFE	; 254
    135a:	7f 4f       	sbci	r23, 0xFF	; 255
    135c:	f8 01       	movw	r30, r16
    135e:	80 81       	ld	r24, Z
    1360:	91 81       	ldd	r25, Z+1	; 0x01
    1362:	0e 94 5e 0d 	call	0x1abc	; 0x1abc <_ZN3ram4readEi>
    1366:	2d 2d       	mov	r18, r13
    1368:	30 e0       	ldi	r19, 0x00	; 0
    136a:	32 2f       	mov	r19, r18
    136c:	22 27       	eor	r18, r18
    136e:	28 2b       	or	r18, r24
    1370:	68 81       	ld	r22, Y
    1372:	79 81       	ldd	r23, Y+1	; 0x01
    1374:	62 1b       	sub	r22, r18
    1376:	73 0b       	sbc	r23, r19
    1378:	c8 01       	movw	r24, r16
    137a:	0e 94 18 04 	call	0x830	; 0x830 <_ZN11interpreter7brlepcbEj>
    137e:	f7 c1       	rjmp	.+1006   	; 0x176e <__stack+0x66f>
    1380:	8c 32       	cpi	r24, 0x2C	; 44
    1382:	e9 f4       	brne	.+58     	; 0x13be <__stack+0x2bf>
    1384:	68 81       	ld	r22, Y
    1386:	79 81       	ldd	r23, Y+1	; 0x01
    1388:	6f 5f       	subi	r22, 0xFF	; 255
    138a:	7f 4f       	sbci	r23, 0xFF	; 255
    138c:	f8 01       	movw	r30, r16
    138e:	80 81       	ld	r24, Z
    1390:	91 81       	ldd	r25, Z+1	; 0x01
    1392:	0e 94 5e 0d 	call	0x1abc	; 0x1abc <_ZN3ram4readEi>
    1396:	d8 2e       	mov	r13, r24
    1398:	68 81       	ld	r22, Y
    139a:	79 81       	ldd	r23, Y+1	; 0x01
    139c:	6e 5f       	subi	r22, 0xFE	; 254
    139e:	7f 4f       	sbci	r23, 0xFF	; 255
    13a0:	f8 01       	movw	r30, r16
    13a2:	80 81       	ld	r24, Z
    13a4:	91 81       	ldd	r25, Z+1	; 0x01
    13a6:	0e 94 5e 0d 	call	0x1abc	; 0x1abc <_ZN3ram4readEi>
    13aa:	2d 2d       	mov	r18, r13
    13ac:	30 e0       	ldi	r19, 0x00	; 0
    13ae:	32 2f       	mov	r19, r18
    13b0:	22 27       	eor	r18, r18
    13b2:	b9 01       	movw	r22, r18
    13b4:	68 2b       	or	r22, r24
    13b6:	c8 01       	movw	r24, r16
    13b8:	0e 94 34 04 	call	0x868	; 0x868 <_ZN11interpreter3brgEj>
    13bc:	d8 c1       	rjmp	.+944    	; 0x176e <__stack+0x66f>
    13be:	8d 32       	cpi	r24, 0x2D	; 45
    13c0:	09 f5       	brne	.+66     	; 0x1404 <__stack+0x305>
    13c2:	68 81       	ld	r22, Y
    13c4:	79 81       	ldd	r23, Y+1	; 0x01
    13c6:	6f 5f       	subi	r22, 0xFF	; 255
    13c8:	7f 4f       	sbci	r23, 0xFF	; 255
    13ca:	f8 01       	movw	r30, r16
    13cc:	80 81       	ld	r24, Z
    13ce:	91 81       	ldd	r25, Z+1	; 0x01
    13d0:	0e 94 5e 0d 	call	0x1abc	; 0x1abc <_ZN3ram4readEi>
    13d4:	d8 2e       	mov	r13, r24
    13d6:	68 81       	ld	r22, Y
    13d8:	79 81       	ldd	r23, Y+1	; 0x01
    13da:	6e 5f       	subi	r22, 0xFE	; 254
    13dc:	7f 4f       	sbci	r23, 0xFF	; 255
    13de:	f8 01       	movw	r30, r16
    13e0:	80 81       	ld	r24, Z
    13e2:	91 81       	ldd	r25, Z+1	; 0x01
    13e4:	0e 94 5e 0d 	call	0x1abc	; 0x1abc <_ZN3ram4readEi>
    13e8:	2d 2d       	mov	r18, r13
    13ea:	30 e0       	ldi	r19, 0x00	; 0
    13ec:	32 2f       	mov	r19, r18
    13ee:	22 27       	eor	r18, r18
    13f0:	28 2b       	or	r18, r24
    13f2:	88 81       	ld	r24, Y
    13f4:	99 81       	ldd	r25, Y+1	; 0x01
    13f6:	b9 01       	movw	r22, r18
    13f8:	68 0f       	add	r22, r24
    13fa:	79 1f       	adc	r23, r25
    13fc:	c8 01       	movw	r24, r16
    13fe:	0e 94 4a 04 	call	0x894	; 0x894 <_ZN11interpreter6brgpcfEj>
    1402:	b5 c1       	rjmp	.+874    	; 0x176e <__stack+0x66f>
    1404:	8e 32       	cpi	r24, 0x2E	; 46
    1406:	01 f5       	brne	.+64     	; 0x1448 <__stack+0x349>
    1408:	68 81       	ld	r22, Y
    140a:	79 81       	ldd	r23, Y+1	; 0x01
    140c:	6f 5f       	subi	r22, 0xFF	; 255
    140e:	7f 4f       	sbci	r23, 0xFF	; 255
    1410:	f8 01       	movw	r30, r16
    1412:	80 81       	ld	r24, Z
    1414:	91 81       	ldd	r25, Z+1	; 0x01
    1416:	0e 94 5e 0d 	call	0x1abc	; 0x1abc <_ZN3ram4readEi>
    141a:	d8 2e       	mov	r13, r24
    141c:	68 81       	ld	r22, Y
    141e:	79 81       	ldd	r23, Y+1	; 0x01
    1420:	6e 5f       	subi	r22, 0xFE	; 254
    1422:	7f 4f       	sbci	r23, 0xFF	; 255
    1424:	f8 01       	movw	r30, r16
    1426:	80 81       	ld	r24, Z
    1428:	91 81       	ldd	r25, Z+1	; 0x01
    142a:	0e 94 5e 0d 	call	0x1abc	; 0x1abc <_ZN3ram4readEi>
    142e:	2d 2d       	mov	r18, r13
    1430:	30 e0       	ldi	r19, 0x00	; 0
    1432:	32 2f       	mov	r19, r18
    1434:	22 27       	eor	r18, r18
    1436:	28 2b       	or	r18, r24
    1438:	68 81       	ld	r22, Y
    143a:	79 81       	ldd	r23, Y+1	; 0x01
    143c:	62 1b       	sub	r22, r18
    143e:	73 0b       	sbc	r23, r19
    1440:	c8 01       	movw	r24, r16
    1442:	0e 94 64 04 	call	0x8c8	; 0x8c8 <_ZN11interpreter6brgpcbEj>
    1446:	93 c1       	rjmp	.+806    	; 0x176e <__stack+0x66f>
    1448:	8f 32       	cpi	r24, 0x2F	; 47
    144a:	e9 f4       	brne	.+58     	; 0x1486 <__stack+0x387>
    144c:	68 81       	ld	r22, Y
    144e:	79 81       	ldd	r23, Y+1	; 0x01
    1450:	6f 5f       	subi	r22, 0xFF	; 255
    1452:	7f 4f       	sbci	r23, 0xFF	; 255
    1454:	f8 01       	movw	r30, r16
    1456:	80 81       	ld	r24, Z
    1458:	91 81       	ldd	r25, Z+1	; 0x01
    145a:	0e 94 5e 0d 	call	0x1abc	; 0x1abc <_ZN3ram4readEi>
    145e:	d8 2e       	mov	r13, r24
    1460:	68 81       	ld	r22, Y
    1462:	79 81       	ldd	r23, Y+1	; 0x01
    1464:	6e 5f       	subi	r22, 0xFE	; 254
    1466:	7f 4f       	sbci	r23, 0xFF	; 255
    1468:	f8 01       	movw	r30, r16
    146a:	80 81       	ld	r24, Z
    146c:	91 81       	ldd	r25, Z+1	; 0x01
    146e:	0e 94 5e 0d 	call	0x1abc	; 0x1abc <_ZN3ram4readEi>
    1472:	2d 2d       	mov	r18, r13
    1474:	30 e0       	ldi	r19, 0x00	; 0
    1476:	32 2f       	mov	r19, r18
    1478:	22 27       	eor	r18, r18
    147a:	b9 01       	movw	r22, r18
    147c:	68 2b       	or	r22, r24
    147e:	c8 01       	movw	r24, r16
    1480:	0e 94 7e 04 	call	0x8fc	; 0x8fc <_ZN11interpreter3brlEj>
    1484:	74 c1       	rjmp	.+744    	; 0x176e <__stack+0x66f>
    1486:	80 33       	cpi	r24, 0x30	; 48
    1488:	09 f5       	brne	.+66     	; 0x14cc <__stack+0x3cd>
    148a:	68 81       	ld	r22, Y
    148c:	79 81       	ldd	r23, Y+1	; 0x01
    148e:	6f 5f       	subi	r22, 0xFF	; 255
    1490:	7f 4f       	sbci	r23, 0xFF	; 255
    1492:	f8 01       	movw	r30, r16
    1494:	80 81       	ld	r24, Z
    1496:	91 81       	ldd	r25, Z+1	; 0x01
    1498:	0e 94 5e 0d 	call	0x1abc	; 0x1abc <_ZN3ram4readEi>
    149c:	d8 2e       	mov	r13, r24
    149e:	68 81       	ld	r22, Y
    14a0:	79 81       	ldd	r23, Y+1	; 0x01
    14a2:	6e 5f       	subi	r22, 0xFE	; 254
    14a4:	7f 4f       	sbci	r23, 0xFF	; 255
    14a6:	f8 01       	movw	r30, r16
    14a8:	80 81       	ld	r24, Z
    14aa:	91 81       	ldd	r25, Z+1	; 0x01
    14ac:	0e 94 5e 0d 	call	0x1abc	; 0x1abc <_ZN3ram4readEi>
    14b0:	2d 2d       	mov	r18, r13
    14b2:	30 e0       	ldi	r19, 0x00	; 0
    14b4:	32 2f       	mov	r19, r18
    14b6:	22 27       	eor	r18, r18
    14b8:	28 2b       	or	r18, r24
    14ba:	88 81       	ld	r24, Y
    14bc:	99 81       	ldd	r25, Y+1	; 0x01
    14be:	b9 01       	movw	r22, r18
    14c0:	68 0f       	add	r22, r24
    14c2:	79 1f       	adc	r23, r25
    14c4:	c8 01       	movw	r24, r16
    14c6:	0e 94 96 04 	call	0x92c	; 0x92c <_ZN11interpreter6brlpcfEj>
    14ca:	51 c1       	rjmp	.+674    	; 0x176e <__stack+0x66f>
    14cc:	81 33       	cpi	r24, 0x31	; 49
    14ce:	01 f5       	brne	.+64     	; 0x1510 <__stack+0x411>
    14d0:	68 81       	ld	r22, Y
    14d2:	79 81       	ldd	r23, Y+1	; 0x01
    14d4:	6f 5f       	subi	r22, 0xFF	; 255
    14d6:	7f 4f       	sbci	r23, 0xFF	; 255
    14d8:	f8 01       	movw	r30, r16
    14da:	80 81       	ld	r24, Z
    14dc:	91 81       	ldd	r25, Z+1	; 0x01
    14de:	0e 94 5e 0d 	call	0x1abc	; 0x1abc <_ZN3ram4readEi>
    14e2:	d8 2e       	mov	r13, r24
    14e4:	68 81       	ld	r22, Y
    14e6:	79 81       	ldd	r23, Y+1	; 0x01
    14e8:	6e 5f       	subi	r22, 0xFE	; 254
    14ea:	7f 4f       	sbci	r23, 0xFF	; 255
    14ec:	f8 01       	movw	r30, r16
    14ee:	80 81       	ld	r24, Z
    14f0:	91 81       	ldd	r25, Z+1	; 0x01
    14f2:	0e 94 5e 0d 	call	0x1abc	; 0x1abc <_ZN3ram4readEi>
    14f6:	2d 2d       	mov	r18, r13
    14f8:	30 e0       	ldi	r19, 0x00	; 0
    14fa:	32 2f       	mov	r19, r18
    14fc:	22 27       	eor	r18, r18
    14fe:	28 2b       	or	r18, r24
    1500:	68 81       	ld	r22, Y
    1502:	79 81       	ldd	r23, Y+1	; 0x01
    1504:	62 1b       	sub	r22, r18
    1506:	73 0b       	sbc	r23, r19
    1508:	c8 01       	movw	r24, r16
    150a:	0e 94 b2 04 	call	0x964	; 0x964 <_ZN11interpreter6brlpcbEj>
    150e:	2f c1       	rjmp	.+606    	; 0x176e <__stack+0x66f>
    1510:	82 33       	cpi	r24, 0x32	; 50
    1512:	99 f4       	brne	.+38     	; 0x153a <__stack+0x43b>
    1514:	68 81       	ld	r22, Y
    1516:	79 81       	ldd	r23, Y+1	; 0x01
    1518:	6f 5f       	subi	r22, 0xFF	; 255
    151a:	7f 4f       	sbci	r23, 0xFF	; 255
    151c:	f8 01       	movw	r30, r16
    151e:	80 81       	ld	r24, Z
    1520:	91 81       	ldd	r25, Z+1	; 0x01
    1522:	0e 94 5e 0d 	call	0x1abc	; 0x1abc <_ZN3ram4readEi>
    1526:	f8 01       	movw	r30, r16
    1528:	e8 0f       	add	r30, r24
    152a:	f1 1d       	adc	r31, r1
    152c:	14 86       	std	Z+12, r1	; 0x0c
    152e:	88 81       	ld	r24, Y
    1530:	99 81       	ldd	r25, Y+1	; 0x01
    1532:	01 96       	adiw	r24, 0x01	; 1
    1534:	99 83       	std	Y+1, r25	; 0x01
    1536:	88 83       	st	Y, r24
    1538:	1a c1       	rjmp	.+564    	; 0x176e <__stack+0x66f>
    153a:	83 33       	cpi	r24, 0x33	; 51
    153c:	89 f4       	brne	.+34     	; 0x1560 <__stack+0x461>
    153e:	68 81       	ld	r22, Y
    1540:	79 81       	ldd	r23, Y+1	; 0x01
    1542:	6f 5f       	subi	r22, 0xFF	; 255
    1544:	7f 4f       	sbci	r23, 0xFF	; 255
    1546:	f8 01       	movw	r30, r16
    1548:	80 81       	ld	r24, Z
    154a:	91 81       	ldd	r25, Z+1	; 0x01
    154c:	0e 94 5e 0d 	call	0x1abc	; 0x1abc <_ZN3ram4readEi>
    1550:	f7 01       	movw	r30, r14
    1552:	10 82       	st	Z, r1
    1554:	88 81       	ld	r24, Y
    1556:	99 81       	ldd	r25, Y+1	; 0x01
    1558:	01 96       	adiw	r24, 0x01	; 1
    155a:	99 83       	std	Y+1, r25	; 0x01
    155c:	88 83       	st	Y, r24
    155e:	07 c1       	rjmp	.+526    	; 0x176e <__stack+0x66f>
    1560:	84 33       	cpi	r24, 0x34	; 52
    1562:	99 f4       	brne	.+38     	; 0x158a <__stack+0x48b>
    1564:	68 81       	ld	r22, Y
    1566:	79 81       	ldd	r23, Y+1	; 0x01
    1568:	6f 5f       	subi	r22, 0xFF	; 255
    156a:	7f 4f       	sbci	r23, 0xFF	; 255
    156c:	f8 01       	movw	r30, r16
    156e:	80 81       	ld	r24, Z
    1570:	91 81       	ldd	r25, Z+1	; 0x01
    1572:	0e 94 5e 0d 	call	0x1abc	; 0x1abc <_ZN3ram4readEi>
    1576:	68 2f       	mov	r22, r24
    1578:	c8 01       	movw	r24, r16
    157a:	0e 94 5c 05 	call	0xab8	; 0xab8 <_ZN11interpreter4swapEc>
    157e:	88 81       	ld	r24, Y
    1580:	99 81       	ldd	r25, Y+1	; 0x01
    1582:	01 96       	adiw	r24, 0x01	; 1
    1584:	99 83       	std	Y+1, r25	; 0x01
    1586:	88 83       	st	Y, r24
    1588:	f2 c0       	rjmp	.+484    	; 0x176e <__stack+0x66f>
    158a:	85 33       	cpi	r24, 0x35	; 53
    158c:	99 f4       	brne	.+38     	; 0x15b4 <__stack+0x4b5>
    158e:	68 81       	ld	r22, Y
    1590:	79 81       	ldd	r23, Y+1	; 0x01
    1592:	6f 5f       	subi	r22, 0xFF	; 255
    1594:	7f 4f       	sbci	r23, 0xFF	; 255
    1596:	f8 01       	movw	r30, r16
    1598:	80 81       	ld	r24, Z
    159a:	91 81       	ldd	r25, Z+1	; 0x01
    159c:	0e 94 5e 0d 	call	0x1abc	; 0x1abc <_ZN3ram4readEi>
    15a0:	68 2f       	mov	r22, r24
    15a2:	c8 01       	movw	r24, r16
    15a4:	0e 94 3c 05 	call	0xa78	; 0xa78 <_ZN11interpreter3popEc>
    15a8:	88 81       	ld	r24, Y
    15aa:	99 81       	ldd	r25, Y+1	; 0x01
    15ac:	01 96       	adiw	r24, 0x01	; 1
    15ae:	99 83       	std	Y+1, r25	; 0x01
    15b0:	88 83       	st	Y, r24
    15b2:	dd c0       	rjmp	.+442    	; 0x176e <__stack+0x66f>
    15b4:	86 33       	cpi	r24, 0x36	; 54
    15b6:	99 f4       	brne	.+38     	; 0x15de <__stack+0x4df>
    15b8:	68 81       	ld	r22, Y
    15ba:	79 81       	ldd	r23, Y+1	; 0x01
    15bc:	6f 5f       	subi	r22, 0xFF	; 255
    15be:	7f 4f       	sbci	r23, 0xFF	; 255
    15c0:	f8 01       	movw	r30, r16
    15c2:	80 81       	ld	r24, Z
    15c4:	91 81       	ldd	r25, Z+1	; 0x01
    15c6:	0e 94 5e 0d 	call	0x1abc	; 0x1abc <_ZN3ram4readEi>
    15ca:	68 2f       	mov	r22, r24
    15cc:	c8 01       	movw	r24, r16
    15ce:	0e 94 ce 04 	call	0x99c	; 0x99c <_ZN11interpreter4pushEc>
    15d2:	88 81       	ld	r24, Y
    15d4:	99 81       	ldd	r25, Y+1	; 0x01
    15d6:	01 96       	adiw	r24, 0x01	; 1
    15d8:	99 83       	std	Y+1, r25	; 0x01
    15da:	88 83       	st	Y, r24
    15dc:	c8 c0       	rjmp	.+400    	; 0x176e <__stack+0x66f>
    15de:	87 33       	cpi	r24, 0x37	; 55
    15e0:	41 f5       	brne	.+80     	; 0x1632 <__stack+0x533>
    15e2:	68 81       	ld	r22, Y
    15e4:	79 81       	ldd	r23, Y+1	; 0x01
    15e6:	6f 5f       	subi	r22, 0xFF	; 255
    15e8:	7f 4f       	sbci	r23, 0xFF	; 255
    15ea:	f8 01       	movw	r30, r16
    15ec:	80 81       	ld	r24, Z
    15ee:	91 81       	ldd	r25, Z+1	; 0x01
    15f0:	0e 94 5e 0d 	call	0x1abc	; 0x1abc <_ZN3ram4readEi>
    15f4:	e8 2f       	mov	r30, r24
    15f6:	f0 e0       	ldi	r31, 0x00	; 0
    15f8:	ee 0f       	add	r30, r30
    15fa:	ff 1f       	adc	r31, r31
    15fc:	e0 0f       	add	r30, r16
    15fe:	f1 1f       	adc	r31, r17
    1600:	e5 5e       	subi	r30, 0xE5	; 229
    1602:	fe 4f       	sbci	r31, 0xFE	; 254
    1604:	01 90       	ld	r0, Z+
    1606:	f0 81       	ld	r31, Z
    1608:	e0 2d       	mov	r30, r0
    160a:	a2 81       	ldd	r26, Z+2	; 0x02
    160c:	b3 81       	ldd	r27, Z+3	; 0x03
    160e:	6c 91       	ld	r22, X
    1610:	70 e0       	ldi	r23, 0x00	; 0
    1612:	76 2f       	mov	r23, r22
    1614:	66 27       	eor	r22, r22
    1616:	01 90       	ld	r0, Z+
    1618:	f0 81       	ld	r31, Z
    161a:	e0 2d       	mov	r30, r0
    161c:	80 81       	ld	r24, Z
    161e:	68 2b       	or	r22, r24
    1620:	c8 01       	movw	r24, r16
    1622:	0e 94 ce 04 	call	0x99c	; 0x99c <_ZN11interpreter4pushEc>
    1626:	88 81       	ld	r24, Y
    1628:	99 81       	ldd	r25, Y+1	; 0x01
    162a:	01 96       	adiw	r24, 0x01	; 1
    162c:	99 83       	std	Y+1, r25	; 0x01
    162e:	88 83       	st	Y, r24
    1630:	9e c0       	rjmp	.+316    	; 0x176e <__stack+0x66f>
    1632:	88 33       	cpi	r24, 0x38	; 56
    1634:	99 f4       	brne	.+38     	; 0x165c <__stack+0x55d>
    1636:	68 81       	ld	r22, Y
    1638:	79 81       	ldd	r23, Y+1	; 0x01
    163a:	6f 5f       	subi	r22, 0xFF	; 255
    163c:	7f 4f       	sbci	r23, 0xFF	; 255
    163e:	f8 01       	movw	r30, r16
    1640:	80 81       	ld	r24, Z
    1642:	91 81       	ldd	r25, Z+1	; 0x01
    1644:	0e 94 5e 0d 	call	0x1abc	; 0x1abc <_ZN3ram4readEi>
    1648:	68 2f       	mov	r22, r24
    164a:	c8 01       	movw	r24, r16
    164c:	0e 94 e6 04 	call	0x9cc	; 0x9cc <_ZN11interpreter5pushiEh>
    1650:	88 81       	ld	r24, Y
    1652:	99 81       	ldd	r25, Y+1	; 0x01
    1654:	01 96       	adiw	r24, 0x01	; 1
    1656:	99 83       	std	Y+1, r25	; 0x01
    1658:	88 83       	st	Y, r24
    165a:	89 c0       	rjmp	.+274    	; 0x176e <__stack+0x66f>
    165c:	89 33       	cpi	r24, 0x39	; 57
    165e:	99 f4       	brne	.+38     	; 0x1686 <__stack+0x587>
    1660:	68 81       	ld	r22, Y
    1662:	79 81       	ldd	r23, Y+1	; 0x01
    1664:	6f 5f       	subi	r22, 0xFF	; 255
    1666:	7f 4f       	sbci	r23, 0xFF	; 255
    1668:	f8 01       	movw	r30, r16
    166a:	80 81       	ld	r24, Z
    166c:	91 81       	ldd	r25, Z+1	; 0x01
    166e:	0e 94 5e 0d 	call	0x1abc	; 0x1abc <_ZN3ram4readEi>
    1672:	68 2f       	mov	r22, r24
    1674:	c8 01       	movw	r24, r16
    1676:	0e 94 fb 00 	call	0x1f6	; 0x1f6 <_ZN11interpreter3ldxEc>
    167a:	88 81       	ld	r24, Y
    167c:	99 81       	ldd	r25, Y+1	; 0x01
    167e:	01 96       	adiw	r24, 0x01	; 1
    1680:	99 83       	std	Y+1, r25	; 0x01
    1682:	88 83       	st	Y, r24
    1684:	74 c0       	rjmp	.+232    	; 0x176e <__stack+0x66f>
    1686:	8a 33       	cpi	r24, 0x3A	; 58
    1688:	99 f4       	brne	.+38     	; 0x16b0 <__stack+0x5b1>
    168a:	68 81       	ld	r22, Y
    168c:	79 81       	ldd	r23, Y+1	; 0x01
    168e:	6f 5f       	subi	r22, 0xFF	; 255
    1690:	7f 4f       	sbci	r23, 0xFF	; 255
    1692:	f8 01       	movw	r30, r16
    1694:	80 81       	ld	r24, Z
    1696:	91 81       	ldd	r25, Z+1	; 0x01
    1698:	0e 94 5e 0d 	call	0x1abc	; 0x1abc <_ZN3ram4readEi>
    169c:	68 2f       	mov	r22, r24
    169e:	c8 01       	movw	r24, r16
    16a0:	0e 94 0c 01 	call	0x218	; 0x218 <_ZN11interpreter3ldyEc>
    16a4:	88 81       	ld	r24, Y
    16a6:	99 81       	ldd	r25, Y+1	; 0x01
    16a8:	01 96       	adiw	r24, 0x01	; 1
    16aa:	99 83       	std	Y+1, r25	; 0x01
    16ac:	88 83       	st	Y, r24
    16ae:	5f c0       	rjmp	.+190    	; 0x176e <__stack+0x66f>
    16b0:	8b 33       	cpi	r24, 0x3B	; 59
    16b2:	99 f4       	brne	.+38     	; 0x16da <__stack+0x5db>
    16b4:	68 81       	ld	r22, Y
    16b6:	79 81       	ldd	r23, Y+1	; 0x01
    16b8:	6f 5f       	subi	r22, 0xFF	; 255
    16ba:	7f 4f       	sbci	r23, 0xFF	; 255
    16bc:	f8 01       	movw	r30, r16
    16be:	80 81       	ld	r24, Z
    16c0:	91 81       	ldd	r25, Z+1	; 0x01
    16c2:	0e 94 5e 0d 	call	0x1abc	; 0x1abc <_ZN3ram4readEi>
    16c6:	68 2f       	mov	r22, r24
    16c8:	c8 01       	movw	r24, r16
    16ca:	0e 94 1d 01 	call	0x23a	; 0x23a <_ZN11interpreter3ldzEc>
    16ce:	88 81       	ld	r24, Y
    16d0:	99 81       	ldd	r25, Y+1	; 0x01
    16d2:	01 96       	adiw	r24, 0x01	; 1
    16d4:	99 83       	std	Y+1, r25	; 0x01
    16d6:	88 83       	st	Y, r24
    16d8:	4a c0       	rjmp	.+148    	; 0x176e <__stack+0x66f>
    16da:	8c 33       	cpi	r24, 0x3C	; 60
    16dc:	09 f4       	brne	.+2      	; 0x16e0 <__stack+0x5e1>
    16de:	47 c0       	rjmp	.+142    	; 0x176e <__stack+0x66f>
    16e0:	8d 33       	cpi	r24, 0x3D	; 61
    16e2:	f1 f4       	brne	.+60     	; 0x1720 <__stack+0x621>
    16e4:	68 81       	ld	r22, Y
    16e6:	79 81       	ldd	r23, Y+1	; 0x01
    16e8:	6f 5f       	subi	r22, 0xFF	; 255
    16ea:	7f 4f       	sbci	r23, 0xFF	; 255
    16ec:	f8 01       	movw	r30, r16
    16ee:	80 81       	ld	r24, Z
    16f0:	91 81       	ldd	r25, Z+1	; 0x01
    16f2:	0e 94 5e 0d 	call	0x1abc	; 0x1abc <_ZN3ram4readEi>
    16f6:	d8 2e       	mov	r13, r24
    16f8:	68 81       	ld	r22, Y
    16fa:	79 81       	ldd	r23, Y+1	; 0x01
    16fc:	6e 5f       	subi	r22, 0xFE	; 254
    16fe:	7f 4f       	sbci	r23, 0xFF	; 255
    1700:	f8 01       	movw	r30, r16
    1702:	80 81       	ld	r24, Z
    1704:	91 81       	ldd	r25, Z+1	; 0x01
    1706:	0e 94 5e 0d 	call	0x1abc	; 0x1abc <_ZN3ram4readEi>
    170a:	2d 2d       	mov	r18, r13
    170c:	30 e0       	ldi	r19, 0x00	; 0
    170e:	32 2f       	mov	r19, r18
    1710:	22 27       	eor	r18, r18
    1712:	a9 01       	movw	r20, r18
    1714:	48 2b       	or	r20, r24
    1716:	ca 01       	movw	r24, r20
    1718:	02 96       	adiw	r24, 0x02	; 2
    171a:	99 83       	std	Y+1, r25	; 0x01
    171c:	88 83       	st	Y, r24
    171e:	27 c0       	rjmp	.+78     	; 0x176e <__stack+0x66f>
    1720:	8e 33       	cpi	r24, 0x3E	; 62
    1722:	11 f5       	brne	.+68     	; 0x1768 <__stack+0x669>
    1724:	68 81       	ld	r22, Y
    1726:	79 81       	ldd	r23, Y+1	; 0x01
    1728:	6f 5f       	subi	r22, 0xFF	; 255
    172a:	7f 4f       	sbci	r23, 0xFF	; 255
    172c:	f8 01       	movw	r30, r16
    172e:	80 81       	ld	r24, Z
    1730:	91 81       	ldd	r25, Z+1	; 0x01
    1732:	0e 94 5e 0d 	call	0x1abc	; 0x1abc <_ZN3ram4readEi>
    1736:	d8 2e       	mov	r13, r24
    1738:	68 81       	ld	r22, Y
    173a:	79 81       	ldd	r23, Y+1	; 0x01
    173c:	6e 5f       	subi	r22, 0xFE	; 254
    173e:	7f 4f       	sbci	r23, 0xFF	; 255
    1740:	f8 01       	movw	r30, r16
    1742:	80 81       	ld	r24, Z
    1744:	91 81       	ldd	r25, Z+1	; 0x01
    1746:	0e 94 5e 0d 	call	0x1abc	; 0x1abc <_ZN3ram4readEi>
    174a:	2d 2d       	mov	r18, r13
    174c:	30 e0       	ldi	r19, 0x00	; 0
    174e:	32 2f       	mov	r19, r18
    1750:	22 27       	eor	r18, r18
    1752:	b9 01       	movw	r22, r18
    1754:	68 2b       	or	r22, r24
    1756:	c8 01       	movw	r24, r16
    1758:	0e 94 10 05 	call	0xa20	; 0xa20 <_ZN11interpreter4callEj>
    175c:	88 81       	ld	r24, Y
    175e:	99 81       	ldd	r25, Y+1	; 0x01
    1760:	02 96       	adiw	r24, 0x02	; 2
    1762:	99 83       	std	Y+1, r25	; 0x01
    1764:	88 83       	st	Y, r24
    1766:	03 c0       	rjmp	.+6      	; 0x176e <__stack+0x66f>
    1768:	8f 3f       	cpi	r24, 0xFF	; 255
    176a:	09 f4       	brne	.+2      	; 0x176e <__stack+0x66f>
    176c:	00 00       	nop
    176e:	88 81       	ld	r24, Y
    1770:	99 81       	ldd	r25, Y+1	; 0x01
    1772:	01 96       	adiw	r24, 0x01	; 1
    1774:	99 83       	std	Y+1, r25	; 0x01
    1776:	88 83       	st	Y, r24
    1778:	f4 c9       	rjmp	.-3096   	; 0xb62 <_ZN11interpreter3runEv+0x28>
    177a:	82 e6       	ldi	r24, 0x62	; 98
    177c:	df 91       	pop	r29
    177e:	cf 91       	pop	r28
    1780:	1f 91       	pop	r17
    1782:	0f 91       	pop	r16
    1784:	ff 90       	pop	r15
    1786:	ef 90       	pop	r14
    1788:	df 90       	pop	r13
    178a:	cf 90       	pop	r12
    178c:	08 95       	ret

0000178e <_ZN11interpreterD1Ev>:
	
}
// default destructor
interpreter::~interpreter()
    178e:	08 95       	ret

00001790 <_ZN10interruptsC1Ev>:
interrupts::interrupts()
{
} //interrupts

void interrupts::handleinterrupt()
{
    1790:	08 95       	ret

00001792 <_ZN10interruptsD1Ev>:
	{
	}
}

// default destructor
interrupts::~interrupts()
    1792:	08 95       	ret

00001794 <_ZN8keyboardC1Ev>:
#include <avr/pgmspace.h>

// default constructor
keyboard::keyboard()
{
	address = NULL;
    1794:	fc 01       	movw	r30, r24
    1796:	10 82       	st	Z, r1
    1798:	11 82       	std	Z+1, r1	; 0x01
    179a:	12 82       	std	Z+2, r1	; 0x02
    179c:	13 82       	std	Z+3, r1	; 0x03
    179e:	08 95       	ret

000017a0 <_ZN8keyboardD1Ev>:
} //keyboard
keyboard::keyboard(uint32_t addr)
{
    17a0:	08 95       	ret

000017a2 <_ZN14portcontrollerC1Ev>:
		{
			PORTD|=0b10000000;
		}
		else
		{
			PORTD&=0b01111111;
    17a2:	08 95       	ret

000017a4 <_ZN14portcontroller9readportdEv>:
    17a4:	89 b1       	in	r24, 0x09	; 9
    17a6:	08 95       	ret

000017a8 <_ZN14portcontroller10writeportcEc>:
    17a8:	68 b9       	out	0x08, r22	; 8
    17aa:	08 95       	ret

000017ac <_ZN14portcontroller9writeddraEc>:
    17ac:	61 b9       	out	0x01, r22	; 1
    17ae:	08 95       	ret

000017b0 <_ZN14portcontroller9writeddrbEc>:
    17b0:	64 b9       	out	0x04, r22	; 4
    17b2:	08 95       	ret

000017b4 <_ZN14portcontroller9writeddrcEc>:
    17b4:	67 b9       	out	0x07, r22	; 7
    17b6:	08 95       	ret

000017b8 <_ZN14portcontroller9writeddrdEc>:
    17b8:	6a b9       	out	0x0a, r22	; 10
    17ba:	08 95       	ret

000017bc <_ZN14portcontroller13digitalwriteaEhb>:
    17bc:	61 30       	cpi	r22, 0x01	; 1
    17be:	31 f4       	brne	.+12     	; 0x17cc <_ZN14portcontroller13digitalwriteaEhb+0x10>
    17c0:	44 23       	and	r20, r20
    17c2:	11 f0       	breq	.+4      	; 0x17c8 <_ZN14portcontroller13digitalwriteaEhb+0xc>
    17c4:	10 9a       	sbi	0x02, 0	; 2
    17c6:	08 95       	ret
    17c8:	10 98       	cbi	0x02, 0	; 2
    17ca:	08 95       	ret
    17cc:	62 30       	cpi	r22, 0x02	; 2
    17ce:	31 f4       	brne	.+12     	; 0x17dc <_ZN14portcontroller13digitalwriteaEhb+0x20>
    17d0:	44 23       	and	r20, r20
    17d2:	11 f0       	breq	.+4      	; 0x17d8 <_ZN14portcontroller13digitalwriteaEhb+0x1c>
    17d4:	11 9a       	sbi	0x02, 1	; 2
    17d6:	08 95       	ret
    17d8:	11 98       	cbi	0x02, 1	; 2
    17da:	08 95       	ret
    17dc:	63 30       	cpi	r22, 0x03	; 3
    17de:	31 f4       	brne	.+12     	; 0x17ec <_ZN14portcontroller13digitalwriteaEhb+0x30>
    17e0:	44 23       	and	r20, r20
    17e2:	11 f0       	breq	.+4      	; 0x17e8 <_ZN14portcontroller13digitalwriteaEhb+0x2c>
    17e4:	12 9a       	sbi	0x02, 2	; 2
    17e6:	08 95       	ret
    17e8:	12 98       	cbi	0x02, 2	; 2
    17ea:	08 95       	ret
    17ec:	64 30       	cpi	r22, 0x04	; 4
    17ee:	31 f4       	brne	.+12     	; 0x17fc <_ZN14portcontroller13digitalwriteaEhb+0x40>
    17f0:	44 23       	and	r20, r20
    17f2:	11 f0       	breq	.+4      	; 0x17f8 <_ZN14portcontroller13digitalwriteaEhb+0x3c>
    17f4:	13 9a       	sbi	0x02, 3	; 2
    17f6:	08 95       	ret
    17f8:	13 98       	cbi	0x02, 3	; 2
    17fa:	08 95       	ret
    17fc:	65 30       	cpi	r22, 0x05	; 5
    17fe:	31 f4       	brne	.+12     	; 0x180c <_ZN14portcontroller13digitalwriteaEhb+0x50>
    1800:	44 23       	and	r20, r20
    1802:	11 f0       	breq	.+4      	; 0x1808 <_ZN14portcontroller13digitalwriteaEhb+0x4c>
    1804:	14 9a       	sbi	0x02, 4	; 2
    1806:	08 95       	ret
    1808:	14 98       	cbi	0x02, 4	; 2
    180a:	08 95       	ret
    180c:	66 30       	cpi	r22, 0x06	; 6
    180e:	31 f4       	brne	.+12     	; 0x181c <_ZN14portcontroller13digitalwriteaEhb+0x60>
    1810:	44 23       	and	r20, r20
    1812:	11 f0       	breq	.+4      	; 0x1818 <_ZN14portcontroller13digitalwriteaEhb+0x5c>
    1814:	15 9a       	sbi	0x02, 5	; 2
    1816:	08 95       	ret
    1818:	15 98       	cbi	0x02, 5	; 2
    181a:	08 95       	ret
    181c:	67 30       	cpi	r22, 0x07	; 7
    181e:	31 f4       	brne	.+12     	; 0x182c <_ZN14portcontroller13digitalwriteaEhb+0x70>
    1820:	44 23       	and	r20, r20
    1822:	11 f0       	breq	.+4      	; 0x1828 <_ZN14portcontroller13digitalwriteaEhb+0x6c>
    1824:	16 9a       	sbi	0x02, 6	; 2
    1826:	08 95       	ret
    1828:	16 98       	cbi	0x02, 6	; 2
    182a:	08 95       	ret
    182c:	68 30       	cpi	r22, 0x08	; 8
    182e:	29 f4       	brne	.+10     	; 0x183a <_ZN14portcontroller13digitalwriteaEhb+0x7e>
    1830:	44 23       	and	r20, r20
    1832:	11 f0       	breq	.+4      	; 0x1838 <_ZN14portcontroller13digitalwriteaEhb+0x7c>
    1834:	17 9a       	sbi	0x02, 7	; 2
    1836:	08 95       	ret
    1838:	17 98       	cbi	0x02, 7	; 2
    183a:	08 95       	ret

0000183c <_ZN14portcontroller12digitalwriteEhb>:
    183c:	9c 01       	movw	r18, r24
    183e:	9f ef       	ldi	r25, 0xFF	; 255
    1840:	96 0f       	add	r25, r22
    1842:	98 30       	cpi	r25, 0x08	; 8
    1844:	28 f4       	brcc	.+10     	; 0x1850 <_ZN14portcontroller12digitalwriteEhb+0x14>
    1846:	69 2f       	mov	r22, r25
    1848:	c9 01       	movw	r24, r18
    184a:	0e 94 de 0b 	call	0x17bc	; 0x17bc <_ZN14portcontroller13digitalwriteaEhb>
    184e:	08 95       	ret
    1850:	82 ef       	ldi	r24, 0xF2	; 242
    1852:	86 0f       	add	r24, r22
    1854:	88 30       	cpi	r24, 0x08	; 8
    1856:	28 f4       	brcc	.+10     	; 0x1862 <_ZN14portcontroller12digitalwriteEhb+0x26>
    1858:	6d 50       	subi	r22, 0x0D	; 13
    185a:	c9 01       	movw	r24, r18
    185c:	0e 94 de 0b 	call	0x17bc	; 0x17bc <_ZN14portcontroller13digitalwriteaEhb>
    1860:	08 95       	ret
    1862:	8a ee       	ldi	r24, 0xEA	; 234
    1864:	86 0f       	add	r24, r22
    1866:	88 30       	cpi	r24, 0x08	; 8
    1868:	28 f4       	brcc	.+10     	; 0x1874 <_ZN14portcontroller12digitalwriteEhb+0x38>
    186a:	65 51       	subi	r22, 0x15	; 21
    186c:	c9 01       	movw	r24, r18
    186e:	0e 94 de 0b 	call	0x17bc	; 0x17bc <_ZN14portcontroller13digitalwriteaEhb>
    1872:	08 95       	ret
    1874:	8f ed       	ldi	r24, 0xDF	; 223
    1876:	86 0f       	add	r24, r22
    1878:	88 30       	cpi	r24, 0x08	; 8
    187a:	20 f4       	brcc	.+8      	; 0x1884 <_ZN14portcontroller12digitalwriteEhb+0x48>
    187c:	60 52       	subi	r22, 0x20	; 32
    187e:	c9 01       	movw	r24, r18
    1880:	0e 94 de 0b 	call	0x17bc	; 0x17bc <_ZN14portcontroller13digitalwriteaEhb>
    1884:	08 95       	ret

00001886 <_ZN14portcontrollerD1Ev>:
	}

}

// default destructor
portcontroller::~portcontroller()
    1886:	08 95       	ret

00001888 <_ZN8shiftregC1EhhhP14portcontroller>:
	}
	port->digitalwrite(latchclkpin,true);

	port->digitalwrite(latchclkpin,false);

}
    1888:	0f 93       	push	r16
    188a:	1f 93       	push	r17
    188c:	fc 01       	movw	r30, r24
    188e:	60 83       	st	Z, r22
    1890:	41 83       	std	Z+1, r20	; 0x01
    1892:	22 83       	std	Z+2, r18	; 0x02
    1894:	14 87       	std	Z+12, r17	; 0x0c
    1896:	03 87       	std	Z+11, r16	; 0x0b
    1898:	13 82       	std	Z+3, r1	; 0x03
    189a:	14 82       	std	Z+4, r1	; 0x04
    189c:	15 82       	std	Z+5, r1	; 0x05
    189e:	16 82       	std	Z+6, r1	; 0x06
    18a0:	17 82       	std	Z+7, r1	; 0x07
    18a2:	10 86       	std	Z+8, r1	; 0x08
    18a4:	11 86       	std	Z+9, r1	; 0x09
    18a6:	12 86       	std	Z+10, r1	; 0x0a
    18a8:	1f 91       	pop	r17
    18aa:	0f 91       	pop	r16
    18ac:	08 95       	ret

000018ae <_ZN8shiftreg9shiftout8Eh>:
    18ae:	ef 92       	push	r14
    18b0:	ff 92       	push	r15
    18b2:	0f 93       	push	r16
    18b4:	1f 93       	push	r17
    18b6:	cf 93       	push	r28
    18b8:	df 93       	push	r29
    18ba:	ec 01       	movw	r28, r24
    18bc:	07 e0       	ldi	r16, 0x07	; 7
    18be:	10 e0       	ldi	r17, 0x00	; 0
    18c0:	e6 2e       	mov	r14, r22
    18c2:	f1 2c       	mov	r15, r1
    18c4:	c7 01       	movw	r24, r14
    18c6:	00 2e       	mov	r0, r16
    18c8:	02 c0       	rjmp	.+4      	; 0x18ce <_ZN8shiftreg9shiftout8Eh+0x20>
    18ca:	95 95       	asr	r25
    18cc:	87 95       	ror	r24
    18ce:	0a 94       	dec	r0
    18d0:	e2 f7       	brpl	.-8      	; 0x18ca <_ZN8shiftreg9shiftout8Eh+0x1c>
    18d2:	01 97       	sbiw	r24, 0x01	; 1
    18d4:	39 f4       	brne	.+14     	; 0x18e4 <_ZN8shiftreg9shiftout8Eh+0x36>
    18d6:	41 e0       	ldi	r20, 0x01	; 1
    18d8:	68 81       	ld	r22, Y
    18da:	8b 85       	ldd	r24, Y+11	; 0x0b
    18dc:	9c 85       	ldd	r25, Y+12	; 0x0c
    18de:	0e 94 1e 0c 	call	0x183c	; 0x183c <_ZN14portcontroller12digitalwriteEhb>
    18e2:	06 c0       	rjmp	.+12     	; 0x18f0 <_ZN8shiftreg9shiftout8Eh+0x42>
    18e4:	40 e0       	ldi	r20, 0x00	; 0
    18e6:	68 81       	ld	r22, Y
    18e8:	8b 85       	ldd	r24, Y+11	; 0x0b
    18ea:	9c 85       	ldd	r25, Y+12	; 0x0c
    18ec:	0e 94 1e 0c 	call	0x183c	; 0x183c <_ZN14portcontroller12digitalwriteEhb>
    18f0:	41 e0       	ldi	r20, 0x01	; 1
    18f2:	69 81       	ldd	r22, Y+1	; 0x01
    18f4:	8b 85       	ldd	r24, Y+11	; 0x0b
    18f6:	9c 85       	ldd	r25, Y+12	; 0x0c
    18f8:	0e 94 1e 0c 	call	0x183c	; 0x183c <_ZN14portcontroller12digitalwriteEhb>
    18fc:	40 e0       	ldi	r20, 0x00	; 0
    18fe:	69 81       	ldd	r22, Y+1	; 0x01
    1900:	8b 85       	ldd	r24, Y+11	; 0x0b
    1902:	9c 85       	ldd	r25, Y+12	; 0x0c
    1904:	0e 94 1e 0c 	call	0x183c	; 0x183c <_ZN14portcontroller12digitalwriteEhb>
    1908:	01 50       	subi	r16, 0x01	; 1
    190a:	11 09       	sbc	r17, r1
    190c:	d8 f6       	brcc	.-74     	; 0x18c4 <_ZN8shiftreg9shiftout8Eh+0x16>
    190e:	41 e0       	ldi	r20, 0x01	; 1
    1910:	6a 81       	ldd	r22, Y+2	; 0x02
    1912:	8b 85       	ldd	r24, Y+11	; 0x0b
    1914:	9c 85       	ldd	r25, Y+12	; 0x0c
    1916:	0e 94 1e 0c 	call	0x183c	; 0x183c <_ZN14portcontroller12digitalwriteEhb>
    191a:	40 e0       	ldi	r20, 0x00	; 0
    191c:	6a 81       	ldd	r22, Y+2	; 0x02
    191e:	8b 85       	ldd	r24, Y+11	; 0x0b
    1920:	9c 85       	ldd	r25, Y+12	; 0x0c
    1922:	0e 94 1e 0c 	call	0x183c	; 0x183c <_ZN14portcontroller12digitalwriteEhb>
    1926:	df 91       	pop	r29
    1928:	cf 91       	pop	r28
    192a:	1f 91       	pop	r17
    192c:	0f 91       	pop	r16
    192e:	ff 90       	pop	r15
    1930:	ef 90       	pop	r14
    1932:	08 95       	ret

00001934 <_ZN8shiftreg10shiftout16Ej>:
    1934:	cf 92       	push	r12
    1936:	df 92       	push	r13
    1938:	ef 92       	push	r14
    193a:	ff 92       	push	r15
    193c:	0f 93       	push	r16
    193e:	1f 93       	push	r17
    1940:	cf 93       	push	r28
    1942:	df 93       	push	r29
    1944:	ec 01       	movw	r28, r24
    1946:	e7 2e       	mov	r14, r23
    1948:	ff 24       	eor	r15, r15
    194a:	0f e0       	ldi	r16, 0x0F	; 15
    194c:	10 e0       	ldi	r17, 0x00	; 0
    194e:	6b 01       	movw	r12, r22
    1950:	dd 24       	eor	r13, r13
    1952:	c6 01       	movw	r24, r12
    1954:	00 2e       	mov	r0, r16
    1956:	02 c0       	rjmp	.+4      	; 0x195c <_ZN8shiftreg10shiftout16Ej+0x28>
    1958:	95 95       	asr	r25
    195a:	87 95       	ror	r24
    195c:	0a 94       	dec	r0
    195e:	e2 f7       	brpl	.-8      	; 0x1958 <_ZN8shiftreg10shiftout16Ej+0x24>
    1960:	01 97       	sbiw	r24, 0x01	; 1
    1962:	39 f4       	brne	.+14     	; 0x1972 <_ZN8shiftreg10shiftout16Ej+0x3e>
    1964:	41 e0       	ldi	r20, 0x01	; 1
    1966:	68 81       	ld	r22, Y
    1968:	8b 85       	ldd	r24, Y+11	; 0x0b
    196a:	9c 85       	ldd	r25, Y+12	; 0x0c
    196c:	0e 94 1e 0c 	call	0x183c	; 0x183c <_ZN14portcontroller12digitalwriteEhb>
    1970:	06 c0       	rjmp	.+12     	; 0x197e <_ZN8shiftreg10shiftout16Ej+0x4a>
    1972:	40 e0       	ldi	r20, 0x00	; 0
    1974:	68 81       	ld	r22, Y
    1976:	8b 85       	ldd	r24, Y+11	; 0x0b
    1978:	9c 85       	ldd	r25, Y+12	; 0x0c
    197a:	0e 94 1e 0c 	call	0x183c	; 0x183c <_ZN14portcontroller12digitalwriteEhb>
    197e:	41 e0       	ldi	r20, 0x01	; 1
    1980:	69 81       	ldd	r22, Y+1	; 0x01
    1982:	8b 85       	ldd	r24, Y+11	; 0x0b
    1984:	9c 85       	ldd	r25, Y+12	; 0x0c
    1986:	0e 94 1e 0c 	call	0x183c	; 0x183c <_ZN14portcontroller12digitalwriteEhb>
    198a:	40 e0       	ldi	r20, 0x00	; 0
    198c:	69 81       	ldd	r22, Y+1	; 0x01
    198e:	8b 85       	ldd	r24, Y+11	; 0x0b
    1990:	9c 85       	ldd	r25, Y+12	; 0x0c
    1992:	0e 94 1e 0c 	call	0x183c	; 0x183c <_ZN14portcontroller12digitalwriteEhb>
    1996:	01 50       	subi	r16, 0x01	; 1
    1998:	11 09       	sbc	r17, r1
    199a:	d8 f6       	brcc	.-74     	; 0x1952 <_ZN8shiftreg10shiftout16Ej+0x1e>
    199c:	07 e0       	ldi	r16, 0x07	; 7
    199e:	10 e0       	ldi	r17, 0x00	; 0
    19a0:	c7 01       	movw	r24, r14
    19a2:	00 2e       	mov	r0, r16
    19a4:	02 c0       	rjmp	.+4      	; 0x19aa <_ZN8shiftreg10shiftout16Ej+0x76>
    19a6:	95 95       	asr	r25
    19a8:	87 95       	ror	r24
    19aa:	0a 94       	dec	r0
    19ac:	e2 f7       	brpl	.-8      	; 0x19a6 <_ZN8shiftreg10shiftout16Ej+0x72>
    19ae:	01 97       	sbiw	r24, 0x01	; 1
    19b0:	39 f4       	brne	.+14     	; 0x19c0 <_ZN8shiftreg10shiftout16Ej+0x8c>
    19b2:	41 e0       	ldi	r20, 0x01	; 1
    19b4:	68 81       	ld	r22, Y
    19b6:	8b 85       	ldd	r24, Y+11	; 0x0b
    19b8:	9c 85       	ldd	r25, Y+12	; 0x0c
    19ba:	0e 94 1e 0c 	call	0x183c	; 0x183c <_ZN14portcontroller12digitalwriteEhb>
    19be:	06 c0       	rjmp	.+12     	; 0x19cc <_ZN8shiftreg10shiftout16Ej+0x98>
    19c0:	40 e0       	ldi	r20, 0x00	; 0
    19c2:	68 81       	ld	r22, Y
    19c4:	8b 85       	ldd	r24, Y+11	; 0x0b
    19c6:	9c 85       	ldd	r25, Y+12	; 0x0c
    19c8:	0e 94 1e 0c 	call	0x183c	; 0x183c <_ZN14portcontroller12digitalwriteEhb>
    19cc:	41 e0       	ldi	r20, 0x01	; 1
    19ce:	69 81       	ldd	r22, Y+1	; 0x01
    19d0:	8b 85       	ldd	r24, Y+11	; 0x0b
    19d2:	9c 85       	ldd	r25, Y+12	; 0x0c
    19d4:	0e 94 1e 0c 	call	0x183c	; 0x183c <_ZN14portcontroller12digitalwriteEhb>
    19d8:	40 e0       	ldi	r20, 0x00	; 0
    19da:	69 81       	ldd	r22, Y+1	; 0x01
    19dc:	8b 85       	ldd	r24, Y+11	; 0x0b
    19de:	9c 85       	ldd	r25, Y+12	; 0x0c
    19e0:	0e 94 1e 0c 	call	0x183c	; 0x183c <_ZN14portcontroller12digitalwriteEhb>
    19e4:	01 50       	subi	r16, 0x01	; 1
    19e6:	11 09       	sbc	r17, r1
    19e8:	d8 f6       	brcc	.-74     	; 0x19a0 <_ZN8shiftreg10shiftout16Ej+0x6c>
    19ea:	41 e0       	ldi	r20, 0x01	; 1
    19ec:	6a 81       	ldd	r22, Y+2	; 0x02
    19ee:	8b 85       	ldd	r24, Y+11	; 0x0b
    19f0:	9c 85       	ldd	r25, Y+12	; 0x0c
    19f2:	0e 94 1e 0c 	call	0x183c	; 0x183c <_ZN14portcontroller12digitalwriteEhb>
    19f6:	40 e0       	ldi	r20, 0x00	; 0
    19f8:	6a 81       	ldd	r22, Y+2	; 0x02
    19fa:	8b 85       	ldd	r24, Y+11	; 0x0b
    19fc:	9c 85       	ldd	r25, Y+12	; 0x0c
    19fe:	0e 94 1e 0c 	call	0x183c	; 0x183c <_ZN14portcontroller12digitalwriteEhb>
    1a02:	df 91       	pop	r29
    1a04:	cf 91       	pop	r28
    1a06:	1f 91       	pop	r17
    1a08:	0f 91       	pop	r16
    1a0a:	ff 90       	pop	r15
    1a0c:	ef 90       	pop	r14
    1a0e:	df 90       	pop	r13
    1a10:	cf 90       	pop	r12
    1a12:	08 95       	ret

00001a14 <_ZN8shiftregD1Ev>:
// default destructor
shiftreg::~shiftreg()
    1a14:	08 95       	ret

00001a16 <_ZN6eepromC1EP14portcontrollerP8shiftreghy>:
 void eeprom::write(char data)
 {
	 
 }
void eeprom::write(char data,uint16_t address)
{
    1a16:	af 92       	push	r10
    1a18:	bf 92       	push	r11
    1a1a:	cf 92       	push	r12
    1a1c:	df 92       	push	r13
    1a1e:	ff 92       	push	r15
    1a20:	0f 93       	push	r16
    1a22:	1f 93       	push	r17
    1a24:	cf 93       	push	r28
    1a26:	df 93       	push	r29
    1a28:	ec 01       	movw	r28, r24
    1a2a:	8b 01       	movw	r16, r22
    1a2c:	6a 01       	movw	r12, r20
    1a2e:	f2 2e       	mov	r15, r18
    1a30:	0e 94 35 0d 	call	0x1a6a	; 0x1a6a <_ZN3romC1Ev>
    1a34:	1d 83       	std	Y+5, r17	; 0x05
    1a36:	0c 83       	std	Y+4, r16	; 0x04
    1a38:	df 82       	std	Y+7, r13	; 0x07
    1a3a:	ce 82       	std	Y+6, r12	; 0x06
    1a3c:	fa 86       	std	Y+10, r15	; 0x0a
    1a3e:	aa 82       	std	Y+2, r10	; 0x02
    1a40:	bb 82       	std	Y+3, r11	; 0x03
    1a42:	19 86       	std	Y+9, r1	; 0x09
    1a44:	18 86       	std	Y+8, r1	; 0x08
    1a46:	41 e0       	ldi	r20, 0x01	; 1
    1a48:	6f 2d       	mov	r22, r15
    1a4a:	c8 01       	movw	r24, r16
    1a4c:	0e 94 1e 0c 	call	0x183c	; 0x183c <_ZN14portcontroller12digitalwriteEhb>
    1a50:	df 91       	pop	r29
    1a52:	cf 91       	pop	r28
    1a54:	1f 91       	pop	r17
    1a56:	0f 91       	pop	r16
    1a58:	ff 90       	pop	r15
    1a5a:	df 90       	pop	r13
    1a5c:	cf 90       	pop	r12
    1a5e:	bf 90       	pop	r11
    1a60:	af 90       	pop	r10
    1a62:	08 95       	ret

00001a64 <_ZN6eepromD1Ev>:
	
	
}
// default destructor
eeprom::~eeprom()
    1a64:	0e 94 44 0d 	call	0x1a88	; 0x1a88 <_ZN3romD1Ev>
    1a68:	08 95       	ret

00001a6a <_ZN3romC1Ev>:
}

uint16_t rom::getaddr()
{
	return address;
}
    1a6a:	08 95       	ret

00001a6c <_ZN3romC1EP14portcontrollerP8shiftregy>:
    1a6c:	cf 92       	push	r12
    1a6e:	df 92       	push	r13
    1a70:	fc 01       	movw	r30, r24
    1a72:	75 83       	std	Z+5, r23	; 0x05
    1a74:	64 83       	std	Z+4, r22	; 0x04
    1a76:	57 83       	std	Z+7, r21	; 0x07
    1a78:	46 83       	std	Z+6, r20	; 0x06
    1a7a:	c2 82       	std	Z+2, r12	; 0x02
    1a7c:	d3 82       	std	Z+3, r13	; 0x03
    1a7e:	11 82       	std	Z+1, r1	; 0x01
    1a80:	10 82       	st	Z, r1
    1a82:	df 90       	pop	r13
    1a84:	cf 90       	pop	r12
    1a86:	08 95       	ret

00001a88 <_ZN3romD1Ev>:

// default destructor
rom::~rom()
    1a88:	08 95       	ret

00001a8a <_ZN3ramC1EP14portcontrollerP8shiftreghm>:
		dataptr->shiftout8(data);
	}
	portptr->digitalwrite(wepin,false);
	_delay_ms(1);
	portptr->digitalwrite(wepin,true);
}
    1a8a:	ef 92       	push	r14
    1a8c:	ff 92       	push	r15
    1a8e:	0f 93       	push	r16
    1a90:	1f 93       	push	r17
    1a92:	fc 01       	movw	r30, r24
    1a94:	cb 01       	movw	r24, r22
    1a96:	73 83       	std	Z+3, r23	; 0x03
    1a98:	62 83       	std	Z+2, r22	; 0x02
    1a9a:	55 83       	std	Z+5, r21	; 0x05
    1a9c:	44 83       	std	Z+4, r20	; 0x04
    1a9e:	21 83       	std	Z+1, r18	; 0x01
    1aa0:	e0 86       	std	Z+8, r14	; 0x08
    1aa2:	f1 86       	std	Z+9, r15	; 0x09
    1aa4:	02 87       	std	Z+10, r16	; 0x0a
    1aa6:	13 87       	std	Z+11, r17	; 0x0b
    1aa8:	10 82       	st	Z, r1
    1aaa:	41 e0       	ldi	r20, 0x01	; 1
    1aac:	62 2f       	mov	r22, r18
    1aae:	0e 94 1e 0c 	call	0x183c	; 0x183c <_ZN14portcontroller12digitalwriteEhb>
    1ab2:	1f 91       	pop	r17
    1ab4:	0f 91       	pop	r16
    1ab6:	ff 90       	pop	r15
    1ab8:	ef 90       	pop	r14
    1aba:	08 95       	ret

00001abc <_ZN3ram4readEi>:
    1abc:	cf 93       	push	r28
    1abe:	df 93       	push	r29
    1ac0:	ec 01       	movw	r28, r24
    1ac2:	8c 81       	ldd	r24, Y+4	; 0x04
    1ac4:	9d 81       	ldd	r25, Y+5	; 0x05
    1ac6:	0e 94 9a 0c 	call	0x1934	; 0x1934 <_ZN8shiftreg10shiftout16Ej>
    1aca:	8a 81       	ldd	r24, Y+2	; 0x02
    1acc:	9b 81       	ldd	r25, Y+3	; 0x03
    1ace:	0e 94 d2 0b 	call	0x17a4	; 0x17a4 <_ZN14portcontroller9readportdEv>
    1ad2:	df 91       	pop	r29
    1ad4:	cf 91       	pop	r28
    1ad6:	08 95       	ret

00001ad8 <_ZN3ram5writeEjc>:
    1ad8:	1f 93       	push	r17
    1ada:	cf 93       	push	r28
    1adc:	df 93       	push	r29
    1ade:	ec 01       	movw	r28, r24
    1ae0:	14 2f       	mov	r17, r20
    1ae2:	8c 81       	ldd	r24, Y+4	; 0x04
    1ae4:	9d 81       	ldd	r25, Y+5	; 0x05
    1ae6:	0e 94 9a 0c 	call	0x1934	; 0x1934 <_ZN8shiftreg10shiftout16Ej>
    1aea:	8e 81       	ldd	r24, Y+6	; 0x06
    1aec:	9f 81       	ldd	r25, Y+7	; 0x07
    1aee:	00 97       	sbiw	r24, 0x00	; 0
    1af0:	31 f4       	brne	.+12     	; 0x1afe <_ZN3ram5writeEjc+0x26>
    1af2:	61 2f       	mov	r22, r17
    1af4:	8a 81       	ldd	r24, Y+2	; 0x02
    1af6:	9b 81       	ldd	r25, Y+3	; 0x03
    1af8:	0e 94 d4 0b 	call	0x17a8	; 0x17a8 <_ZN14portcontroller10writeportcEc>
    1afc:	03 c0       	rjmp	.+6      	; 0x1b04 <_ZN3ram5writeEjc+0x2c>
    1afe:	61 2f       	mov	r22, r17
    1b00:	0e 94 57 0c 	call	0x18ae	; 0x18ae <_ZN8shiftreg9shiftout8Eh>
    1b04:	40 e0       	ldi	r20, 0x00	; 0
    1b06:	69 81       	ldd	r22, Y+1	; 0x01
    1b08:	8a 81       	ldd	r24, Y+2	; 0x02
    1b0a:	9b 81       	ldd	r25, Y+3	; 0x03
    1b0c:	0e 94 1e 0c 	call	0x183c	; 0x183c <_ZN14portcontroller12digitalwriteEhb>
    1b10:	89 ef       	ldi	r24, 0xF9	; 249
    1b12:	90 e0       	ldi	r25, 0x00	; 0
    1b14:	01 97       	sbiw	r24, 0x01	; 1
    1b16:	f1 f7       	brne	.-4      	; 0x1b14 <_ZN3ram5writeEjc+0x3c>
    1b18:	00 c0       	rjmp	.+0      	; 0x1b1a <_ZN3ram5writeEjc+0x42>
    1b1a:	00 00       	nop
    1b1c:	41 e0       	ldi	r20, 0x01	; 1
    1b1e:	69 81       	ldd	r22, Y+1	; 0x01
    1b20:	8a 81       	ldd	r24, Y+2	; 0x02
    1b22:	9b 81       	ldd	r25, Y+3	; 0x03
    1b24:	0e 94 1e 0c 	call	0x183c	; 0x183c <_ZN14portcontroller12digitalwriteEhb>
    1b28:	df 91       	pop	r29
    1b2a:	cf 91       	pop	r28
    1b2c:	1f 91       	pop	r17
    1b2e:	08 95       	ret

00001b30 <_ZN3ramD1Ev>:
{
	return address;
}
*/
// default destructor
ram::~ram()
    1b30:	08 95       	ret

00001b32 <_ZN4VramC1EP14portcontrollerP8shiftreghhy>:
{
	for (int i =0; i<8 ; i++)
	{
		write(this->custom_char_memory_base+i,customchar[i]);	
	}
}
    1b32:	7f 92       	push	r7
    1b34:	8f 92       	push	r8
    1b36:	9f 92       	push	r9
    1b38:	af 92       	push	r10
    1b3a:	bf 92       	push	r11
    1b3c:	cf 92       	push	r12
    1b3e:	df 92       	push	r13
    1b40:	ef 92       	push	r14
    1b42:	ff 92       	push	r15
    1b44:	0f 93       	push	r16
    1b46:	1f 93       	push	r17
    1b48:	cf 93       	push	r28
    1b4a:	df 93       	push	r29
    1b4c:	cd b7       	in	r28, 0x3d	; 61
    1b4e:	de b7       	in	r29, 0x3e	; 62
    1b50:	6c 01       	movw	r12, r24
    1b52:	70 2e       	mov	r7, r16
    1b54:	e8 2c       	mov	r14, r8
    1b56:	f9 2c       	mov	r15, r9
    1b58:	0a 2d       	mov	r16, r10
    1b5a:	1b 2d       	mov	r17, r11
    1b5c:	0e 94 45 0d 	call	0x1a8a	; 0x1a8a <_ZN3ramC1EP14portcontrollerP8shiftreghm>
    1b60:	f6 01       	movw	r30, r12
    1b62:	74 86       	std	Z+12, r7	; 0x0c
    1b64:	df 91       	pop	r29
    1b66:	cf 91       	pop	r28
    1b68:	1f 91       	pop	r17
    1b6a:	0f 91       	pop	r16
    1b6c:	ff 90       	pop	r15
    1b6e:	ef 90       	pop	r14
    1b70:	df 90       	pop	r13
    1b72:	cf 90       	pop	r12
    1b74:	bf 90       	pop	r11
    1b76:	af 90       	pop	r10
    1b78:	9f 90       	pop	r9
    1b7a:	8f 90       	pop	r8
    1b7c:	7f 90       	pop	r7
    1b7e:	08 95       	ret

00001b80 <_ZN4VramD1Ev>:

// default destructor
Vram::~Vram()
    1b80:	0e 94 98 0d 	call	0x1b30	; 0x1b30 <_ZN3ramD1Ev>
    1b84:	08 95       	ret

00001b86 <main>:
{
/* Replace with your application code */
	char *in_str;
	char retval;
	//set output	
	port.writeddra(0xff);
    1b86:	6f ef       	ldi	r22, 0xFF	; 255
    1b88:	87 e9       	ldi	r24, 0x97	; 151
    1b8a:	93 e0       	ldi	r25, 0x03	; 3
    1b8c:	0e 94 d6 0b 	call	0x17ac	; 0x17ac <_ZN14portcontroller9writeddraEc>
	port.writeddrc(0xff);
    1b90:	6f ef       	ldi	r22, 0xFF	; 255
    1b92:	87 e9       	ldi	r24, 0x97	; 151
    1b94:	93 e0       	ldi	r25, 0x03	; 3
    1b96:	0e 94 da 0b 	call	0x17b4	; 0x17b4 <_ZN14portcontroller9writeddrcEc>
	

	//set input
	port.writeddrb(0);
    1b9a:	60 e0       	ldi	r22, 0x00	; 0
    1b9c:	87 e9       	ldi	r24, 0x97	; 151
    1b9e:	93 e0       	ldi	r25, 0x03	; 3
    1ba0:	0e 94 d8 0b 	call	0x17b0	; 0x17b0 <_ZN14portcontroller9writeddrbEc>
	port.writeddrd(0);
    1ba4:	60 e0       	ldi	r22, 0x00	; 0
    1ba6:	87 e9       	ldi	r24, 0x97	; 151
    1ba8:	93 e0       	ldi	r25, 0x03	; 3
    1baa:	0e 94 dc 0b 	call	0x17b8	; 0x17b8 <_ZN14portcontroller9writeddrdEc>
	//set interpreter memory
	interpret.dataram=&bank2;
    1bae:	81 e5       	ldi	r24, 0x51	; 81
    1bb0:	93 e0       	ldi	r25, 0x03	; 3
    1bb2:	90 93 15 01 	sts	0x0115, r25	; 0x800115 <_ZL9interpret+0x3>
    1bb6:	80 93 14 01 	sts	0x0114, r24	; 0x800114 <_ZL9interpret+0x2>
    {		
		 int size=10;
		 in_str=(char*) calloc(5,sizeof(char));
		 //in_str[i] =(char)32;
		 in_str = "run";
		 if(strcasecmp_P(in_str,run))
    1bba:	6a e0       	ldi	r22, 0x0A	; 10
    1bbc:	71 e0       	ldi	r23, 0x01	; 1
    1bbe:	86 e0       	ldi	r24, 0x06	; 6
    1bc0:	91 e0       	ldi	r25, 0x01	; 1
    1bc2:	0e 94 34 11 	call	0x2268	; 0x2268 <strcasecmp_P>
    1bc6:	89 2b       	or	r24, r25
    1bc8:	21 f0       	breq	.+8      	; 0x1bd2 <main+0x4c>
		 {
			 interpret.run();
    1bca:	82 e1       	ldi	r24, 0x12	; 18
    1bcc:	91 e0       	ldi	r25, 0x01	; 1
    1bce:	0e 94 9d 05 	call	0xb3a	; 0xb3a <_ZN11interpreter3runEv>
		 
		 }
		//in_str[0]='a';
	     free(in_str);
    1bd2:	86 e0       	ldi	r24, 0x06	; 6
    1bd4:	91 e0       	ldi	r25, 0x01	; 1
    1bd6:	0e 94 ab 10 	call	0x2156	; 0x2156 <free>
	interpret.dataram=&bank2;
//	interpret.stackram=&bank4;
//	interpret.videoram=&vbank0;
//	interpret.videoinstructionram=&vbank1;
//	interpret.videocustomcharram=&vbank2;
	while (true) 
    1bda:	ef cf       	rjmp	.-34     	; 0x1bba <main+0x34>

00001bdc <_GLOBAL__sub_I__Z10runprogramv>:
		 }
		//in_str[0]='a';
	     free(in_str);
	}
	return 0;        	
    1bdc:	8f 92       	push	r8
    1bde:	9f 92       	push	r9
    1be0:	af 92       	push	r10
    1be2:	bf 92       	push	r11
    1be4:	cf 92       	push	r12
    1be6:	df 92       	push	r13
    1be8:	ef 92       	push	r14
    1bea:	ff 92       	push	r15
    1bec:	0f 93       	push	r16
    1bee:	1f 93       	push	r17
*/



//static const int address_max_hex=0x1fff;
static portcontroller port=portcontroller();
    1bf0:	87 e9       	ldi	r24, 0x97	; 151
    1bf2:	93 e0       	ldi	r25, 0x03	; 3
    1bf4:	0e 94 d1 0b 	call	0x17a2	; 0x17a2 <_ZN14portcontrollerC1Ev>
static shiftreg addreg=shiftreg(40,39,38,&port);
    1bf8:	07 e9       	ldi	r16, 0x97	; 151
    1bfa:	13 e0       	ldi	r17, 0x03	; 3
    1bfc:	26 e2       	ldi	r18, 0x26	; 38
    1bfe:	47 e2       	ldi	r20, 0x27	; 39
    1c00:	68 e2       	ldi	r22, 0x28	; 40
    1c02:	8a e8       	ldi	r24, 0x8A	; 138
    1c04:	93 e0       	ldi	r25, 0x03	; 3
    1c06:	0e 94 44 0c 	call	0x1888	; 0x1888 <_ZN8shiftregC1EhhhP14portcontroller>
static shiftreg csreg=shiftreg(37,36,35,&port);
    1c0a:	23 e2       	ldi	r18, 0x23	; 35
    1c0c:	44 e2       	ldi	r20, 0x24	; 36
    1c0e:	65 e2       	ldi	r22, 0x25	; 37
    1c10:	8d e7       	ldi	r24, 0x7D	; 125
    1c12:	93 e0       	ldi	r25, 0x03	; 3
    1c14:	0e 94 44 0c 	call	0x1888	; 0x1888 <_ZN8shiftregC1EhhhP14portcontroller>
static Serial serial= Serial(&csreg,&port,3,34,33);
    1c18:	0f 2e       	mov	r0, r31
    1c1a:	f1 e2       	ldi	r31, 0x21	; 33
    1c1c:	ef 2e       	mov	r14, r31
    1c1e:	f0 2d       	mov	r31, r0
    1c20:	02 e2       	ldi	r16, 0x22	; 34
    1c22:	23 e0       	ldi	r18, 0x03	; 3
    1c24:	47 e9       	ldi	r20, 0x97	; 151
    1c26:	53 e0       	ldi	r21, 0x03	; 3
    1c28:	6d e7       	ldi	r22, 0x7D	; 125
    1c2a:	73 e0       	ldi	r23, 0x03	; 3
    1c2c:	85 e7       	ldi	r24, 0x75	; 117
    1c2e:	93 e0       	ldi	r25, 0x03	; 3
    1c30:	0e 94 6a 00 	call	0xd4	; 0xd4 <_ZN6SerialC1EP8shiftregP14portcontrollerccc>
static ram bank0 = ram(&port,&addreg,rwpin,0x0u);	// os ram 
    1c34:	e1 2c       	mov	r14, r1
    1c36:	f1 2c       	mov	r15, r1
    1c38:	87 01       	movw	r16, r14
    1c3a:	21 e0       	ldi	r18, 0x01	; 1
    1c3c:	4a e8       	ldi	r20, 0x8A	; 138
    1c3e:	53 e0       	ldi	r21, 0x03	; 3
    1c40:	67 e9       	ldi	r22, 0x97	; 151
    1c42:	73 e0       	ldi	r23, 0x03	; 3
    1c44:	89 e6       	ldi	r24, 0x69	; 105
    1c46:	93 e0       	ldi	r25, 0x03	; 3
    1c48:	0e 94 45 0d 	call	0x1a8a	; 0x1a8a <_ZN3ramC1EP14portcontrollerP8shiftreghm>
static ram bank1 = ram(&port,&addreg,rwpin,0x2000u);//main program code
    1c4c:	e1 2c       	mov	r14, r1
    1c4e:	10 e2       	ldi	r17, 0x20	; 32
    1c50:	f1 2e       	mov	r15, r17
    1c52:	00 e0       	ldi	r16, 0x00	; 0
    1c54:	10 e0       	ldi	r17, 0x00	; 0
    1c56:	21 e0       	ldi	r18, 0x01	; 1
    1c58:	4a e8       	ldi	r20, 0x8A	; 138
    1c5a:	53 e0       	ldi	r21, 0x03	; 3
    1c5c:	67 e9       	ldi	r22, 0x97	; 151
    1c5e:	73 e0       	ldi	r23, 0x03	; 3
    1c60:	8d e5       	ldi	r24, 0x5D	; 93
    1c62:	93 e0       	ldi	r25, 0x03	; 3
    1c64:	0e 94 45 0d 	call	0x1a8a	; 0x1a8a <_ZN3ramC1EP14portcontrollerP8shiftreghm>
static ram bank2 = ram(&port,&addreg,rwpin,0x4000u);// main data ram 
    1c68:	e1 2c       	mov	r14, r1
    1c6a:	10 e4       	ldi	r17, 0x40	; 64
    1c6c:	f1 2e       	mov	r15, r17
    1c6e:	00 e0       	ldi	r16, 0x00	; 0
    1c70:	10 e0       	ldi	r17, 0x00	; 0
    1c72:	21 e0       	ldi	r18, 0x01	; 1
    1c74:	4a e8       	ldi	r20, 0x8A	; 138
    1c76:	53 e0       	ldi	r21, 0x03	; 3
    1c78:	67 e9       	ldi	r22, 0x97	; 151
    1c7a:	73 e0       	ldi	r23, 0x03	; 3
    1c7c:	81 e5       	ldi	r24, 0x51	; 81
    1c7e:	93 e0       	ldi	r25, 0x03	; 3
    1c80:	0e 94 45 0d 	call	0x1a8a	; 0x1a8a <_ZN3ramC1EP14portcontrollerP8shiftreghm>
static ram bank3 = ram(&port,&addreg,rwpin,0x6000u);// second prog ram  
    1c84:	e1 2c       	mov	r14, r1
    1c86:	10 e6       	ldi	r17, 0x60	; 96
    1c88:	f1 2e       	mov	r15, r17
    1c8a:	00 e0       	ldi	r16, 0x00	; 0
    1c8c:	10 e0       	ldi	r17, 0x00	; 0
    1c8e:	21 e0       	ldi	r18, 0x01	; 1
    1c90:	4a e8       	ldi	r20, 0x8A	; 138
    1c92:	53 e0       	ldi	r21, 0x03	; 3
    1c94:	67 e9       	ldi	r22, 0x97	; 151
    1c96:	73 e0       	ldi	r23, 0x03	; 3
    1c98:	85 e4       	ldi	r24, 0x45	; 69
    1c9a:	93 e0       	ldi	r25, 0x03	; 3
    1c9c:	0e 94 45 0d 	call	0x1a8a	; 0x1a8a <_ZN3ramC1EP14portcontrollerP8shiftreghm>
static ram bank4 = ram(&port,&addreg,rwpin,0x8000u);// stack ram
    1ca0:	e1 2c       	mov	r14, r1
    1ca2:	10 e8       	ldi	r17, 0x80	; 128
    1ca4:	f1 2e       	mov	r15, r17
    1ca6:	00 e0       	ldi	r16, 0x00	; 0
    1ca8:	10 e0       	ldi	r17, 0x00	; 0
    1caa:	21 e0       	ldi	r18, 0x01	; 1
    1cac:	4a e8       	ldi	r20, 0x8A	; 138
    1cae:	53 e0       	ldi	r21, 0x03	; 3
    1cb0:	67 e9       	ldi	r22, 0x97	; 151
    1cb2:	73 e0       	ldi	r23, 0x03	; 3
    1cb4:	89 e3       	ldi	r24, 0x39	; 57
    1cb6:	93 e0       	ldi	r25, 0x03	; 3
    1cb8:	0e 94 45 0d 	call	0x1a8a	; 0x1a8a <_ZN3ramC1EP14portcontrollerP8shiftreghm>

static rom bios = rom(&port,&addreg,0xA000u);
    1cbc:	c1 2c       	mov	r12, r1
    1cbe:	0f 2e       	mov	r0, r31
    1cc0:	f0 ea       	ldi	r31, 0xA0	; 160
    1cc2:	df 2e       	mov	r13, r31
    1cc4:	f0 2d       	mov	r31, r0
    1cc6:	e1 2c       	mov	r14, r1
    1cc8:	f1 2c       	mov	r15, r1
    1cca:	00 e0       	ldi	r16, 0x00	; 0
    1ccc:	10 e0       	ldi	r17, 0x00	; 0
    1cce:	20 e0       	ldi	r18, 0x00	; 0
    1cd0:	30 e0       	ldi	r19, 0x00	; 0
    1cd2:	4a e8       	ldi	r20, 0x8A	; 138
    1cd4:	53 e0       	ldi	r21, 0x03	; 3
    1cd6:	67 e9       	ldi	r22, 0x97	; 151
    1cd8:	73 e0       	ldi	r23, 0x03	; 3
    1cda:	81 e3       	ldi	r24, 0x31	; 49
    1cdc:	93 e0       	ldi	r25, 0x03	; 3
    1cde:	0e 94 36 0d 	call	0x1a6c	; 0x1a6c <_ZN3romC1EP14portcontrollerP8shiftregy>
static rom settings = rom(&port,&addreg,0xC000u);
    1ce2:	0f 2e       	mov	r0, r31
    1ce4:	f0 ec       	ldi	r31, 0xC0	; 192
    1ce6:	df 2e       	mov	r13, r31
    1ce8:	f0 2d       	mov	r31, r0
    1cea:	20 e0       	ldi	r18, 0x00	; 0
    1cec:	30 e0       	ldi	r19, 0x00	; 0
    1cee:	4a e8       	ldi	r20, 0x8A	; 138
    1cf0:	53 e0       	ldi	r21, 0x03	; 3
    1cf2:	67 e9       	ldi	r22, 0x97	; 151
    1cf4:	73 e0       	ldi	r23, 0x03	; 3
    1cf6:	89 e2       	ldi	r24, 0x29	; 41
    1cf8:	93 e0       	ldi	r25, 0x03	; 3
    1cfa:	0e 94 36 0d 	call	0x1a6c	; 0x1a6c <_ZN3romC1EP14portcontrollerP8shiftregy>
static rom program0 = rom(&port,&addreg,0xE000u);
    1cfe:	0f 2e       	mov	r0, r31
    1d00:	f0 ee       	ldi	r31, 0xE0	; 224
    1d02:	df 2e       	mov	r13, r31
    1d04:	f0 2d       	mov	r31, r0
    1d06:	20 e0       	ldi	r18, 0x00	; 0
    1d08:	30 e0       	ldi	r19, 0x00	; 0
    1d0a:	4a e8       	ldi	r20, 0x8A	; 138
    1d0c:	53 e0       	ldi	r21, 0x03	; 3
    1d0e:	67 e9       	ldi	r22, 0x97	; 151
    1d10:	73 e0       	ldi	r23, 0x03	; 3
    1d12:	81 e2       	ldi	r24, 0x21	; 33
    1d14:	93 e0       	ldi	r25, 0x03	; 3
    1d16:	0e 94 36 0d 	call	0x1a6c	; 0x1a6c <_ZN3romC1EP14portcontrollerP8shiftregy>
static rom program1 = rom(&port,&addreg,0x10000u);
    1d1a:	d1 2c       	mov	r13, r1
    1d1c:	ee 24       	eor	r14, r14
    1d1e:	e3 94       	inc	r14
    1d20:	20 e0       	ldi	r18, 0x00	; 0
    1d22:	30 e0       	ldi	r19, 0x00	; 0
    1d24:	4a e8       	ldi	r20, 0x8A	; 138
    1d26:	53 e0       	ldi	r21, 0x03	; 3
    1d28:	67 e9       	ldi	r22, 0x97	; 151
    1d2a:	73 e0       	ldi	r23, 0x03	; 3
    1d2c:	89 e1       	ldi	r24, 0x19	; 25
    1d2e:	93 e0       	ldi	r25, 0x03	; 3
    1d30:	0e 94 36 0d 	call	0x1a6c	; 0x1a6c <_ZN3romC1EP14portcontrollerP8shiftregy>
static rom program2 = rom(&port,&addreg,0x12000u);
    1d34:	68 94       	set
    1d36:	dd 24       	eor	r13, r13
    1d38:	d5 f8       	bld	r13, 5
    1d3a:	20 e0       	ldi	r18, 0x00	; 0
    1d3c:	30 e0       	ldi	r19, 0x00	; 0
    1d3e:	4a e8       	ldi	r20, 0x8A	; 138
    1d40:	53 e0       	ldi	r21, 0x03	; 3
    1d42:	67 e9       	ldi	r22, 0x97	; 151
    1d44:	73 e0       	ldi	r23, 0x03	; 3
    1d46:	81 e1       	ldi	r24, 0x11	; 17
    1d48:	93 e0       	ldi	r25, 0x03	; 3
    1d4a:	0e 94 36 0d 	call	0x1a6c	; 0x1a6c <_ZN3romC1EP14portcontrollerP8shiftregy>
static rom program3 = rom(&port,&addreg,0x14000u);
    1d4e:	68 94       	set
    1d50:	dd 24       	eor	r13, r13
    1d52:	d6 f8       	bld	r13, 6
    1d54:	20 e0       	ldi	r18, 0x00	; 0
    1d56:	30 e0       	ldi	r19, 0x00	; 0
    1d58:	4a e8       	ldi	r20, 0x8A	; 138
    1d5a:	53 e0       	ldi	r21, 0x03	; 3
    1d5c:	67 e9       	ldi	r22, 0x97	; 151
    1d5e:	73 e0       	ldi	r23, 0x03	; 3
    1d60:	89 e0       	ldi	r24, 0x09	; 9
    1d62:	93 e0       	ldi	r25, 0x03	; 3
    1d64:	0e 94 36 0d 	call	0x1a6c	; 0x1a6c <_ZN3romC1EP14portcontrollerP8shiftregy>

static eeprom fattable =eeprom(&port,&addreg,rwpin,0x16000u);
    1d68:	a1 2c       	mov	r10, r1
    1d6a:	0f 2e       	mov	r0, r31
    1d6c:	f0 e6       	ldi	r31, 0x60	; 96
    1d6e:	bf 2e       	mov	r11, r31
    1d70:	f0 2d       	mov	r31, r0
    1d72:	cc 24       	eor	r12, r12
    1d74:	c3 94       	inc	r12
    1d76:	d1 2c       	mov	r13, r1
    1d78:	e1 2c       	mov	r14, r1
    1d7a:	21 e0       	ldi	r18, 0x01	; 1
    1d7c:	4a e8       	ldi	r20, 0x8A	; 138
    1d7e:	53 e0       	ldi	r21, 0x03	; 3
    1d80:	67 e9       	ldi	r22, 0x97	; 151
    1d82:	73 e0       	ldi	r23, 0x03	; 3
    1d84:	8e ef       	ldi	r24, 0xFE	; 254
    1d86:	92 e0       	ldi	r25, 0x02	; 2
    1d88:	0e 94 0b 0d 	call	0x1a16	; 0x1a16 <_ZN6eepromC1EP14portcontrollerP8shiftreghy>
static eeprom storage0 =eeprom(&port,&addreg,rwpin,0x18000u);
    1d8c:	68 94       	set
    1d8e:	bb 24       	eor	r11, r11
    1d90:	b7 f8       	bld	r11, 7
    1d92:	21 e0       	ldi	r18, 0x01	; 1
    1d94:	4a e8       	ldi	r20, 0x8A	; 138
    1d96:	53 e0       	ldi	r21, 0x03	; 3
    1d98:	67 e9       	ldi	r22, 0x97	; 151
    1d9a:	73 e0       	ldi	r23, 0x03	; 3
    1d9c:	83 ef       	ldi	r24, 0xF3	; 243
    1d9e:	92 e0       	ldi	r25, 0x02	; 2
    1da0:	0e 94 0b 0d 	call	0x1a16	; 0x1a16 <_ZN6eepromC1EP14portcontrollerP8shiftreghy>
static eeprom storage1 =eeprom(&port,&addreg,rwpin,0x1A000u);
    1da4:	0f 2e       	mov	r0, r31
    1da6:	f0 ea       	ldi	r31, 0xA0	; 160
    1da8:	bf 2e       	mov	r11, r31
    1daa:	f0 2d       	mov	r31, r0
    1dac:	21 e0       	ldi	r18, 0x01	; 1
    1dae:	4a e8       	ldi	r20, 0x8A	; 138
    1db0:	53 e0       	ldi	r21, 0x03	; 3
    1db2:	67 e9       	ldi	r22, 0x97	; 151
    1db4:	73 e0       	ldi	r23, 0x03	; 3
    1db6:	88 ee       	ldi	r24, 0xE8	; 232
    1db8:	92 e0       	ldi	r25, 0x02	; 2
    1dba:	0e 94 0b 0d 	call	0x1a16	; 0x1a16 <_ZN6eepromC1EP14portcontrollerP8shiftreghy>
static eeprom storage2 =eeprom(&port,&addreg,rwpin,0x1C000u);
    1dbe:	0f 2e       	mov	r0, r31
    1dc0:	f0 ec       	ldi	r31, 0xC0	; 192
    1dc2:	bf 2e       	mov	r11, r31
    1dc4:	f0 2d       	mov	r31, r0
    1dc6:	21 e0       	ldi	r18, 0x01	; 1
    1dc8:	4a e8       	ldi	r20, 0x8A	; 138
    1dca:	53 e0       	ldi	r21, 0x03	; 3
    1dcc:	67 e9       	ldi	r22, 0x97	; 151
    1dce:	73 e0       	ldi	r23, 0x03	; 3
    1dd0:	8d ed       	ldi	r24, 0xDD	; 221
    1dd2:	92 e0       	ldi	r25, 0x02	; 2
    1dd4:	0e 94 0b 0d 	call	0x1a16	; 0x1a16 <_ZN6eepromC1EP14portcontrollerP8shiftreghy>
static eeprom storage3 =eeprom(&port,&addreg,rwpin,0x1E000u);
    1dd8:	0f 2e       	mov	r0, r31
    1dda:	f0 ee       	ldi	r31, 0xE0	; 224
    1ddc:	bf 2e       	mov	r11, r31
    1dde:	f0 2d       	mov	r31, r0
    1de0:	21 e0       	ldi	r18, 0x01	; 1
    1de2:	4a e8       	ldi	r20, 0x8A	; 138
    1de4:	53 e0       	ldi	r21, 0x03	; 3
    1de6:	67 e9       	ldi	r22, 0x97	; 151
    1de8:	73 e0       	ldi	r23, 0x03	; 3
    1dea:	82 ed       	ldi	r24, 0xD2	; 210
    1dec:	92 e0       	ldi	r25, 0x02	; 2
    1dee:	0e 94 0b 0d 	call	0x1a16	; 0x1a16 <_ZN6eepromC1EP14portcontrollerP8shiftreghy>

static Vram vbank0 = Vram(&port,&addreg,rwpin,vmempin,0x0u);	// video ram
    1df2:	81 2c       	mov	r8, r1
    1df4:	91 2c       	mov	r9, r1
    1df6:	b1 2c       	mov	r11, r1
    1df8:	c1 2c       	mov	r12, r1
    1dfa:	02 e0       	ldi	r16, 0x02	; 2
    1dfc:	21 e0       	ldi	r18, 0x01	; 1
    1dfe:	4a e8       	ldi	r20, 0x8A	; 138
    1e00:	53 e0       	ldi	r21, 0x03	; 3
    1e02:	67 e9       	ldi	r22, 0x97	; 151
    1e04:	73 e0       	ldi	r23, 0x03	; 3
    1e06:	82 ec       	ldi	r24, 0xC2	; 194
    1e08:	92 e0       	ldi	r25, 0x02	; 2
    1e0a:	0e 94 99 0d 	call	0x1b32	; 0x1b32 <_ZN4VramC1EP14portcontrollerP8shiftreghhy>
static Vram vbank1 = Vram(&port,&addreg,rwpin,vmempin,0x2000u);//instruction ram
    1e0e:	68 94       	set
    1e10:	99 24       	eor	r9, r9
    1e12:	95 f8       	bld	r9, 5
    1e14:	21 e0       	ldi	r18, 0x01	; 1
    1e16:	4a e8       	ldi	r20, 0x8A	; 138
    1e18:	53 e0       	ldi	r21, 0x03	; 3
    1e1a:	67 e9       	ldi	r22, 0x97	; 151
    1e1c:	73 e0       	ldi	r23, 0x03	; 3
    1e1e:	82 eb       	ldi	r24, 0xB2	; 178
    1e20:	92 e0       	ldi	r25, 0x02	; 2
    1e22:	0e 94 99 0d 	call	0x1b32	; 0x1b32 <_ZN4VramC1EP14portcontrollerP8shiftreghhy>
static Vram vbank2 = Vram(&port,&addreg,rwpin,vmempin,0x4000u);// custom char ram 
    1e26:	68 94       	set
    1e28:	99 24       	eor	r9, r9
    1e2a:	96 f8       	bld	r9, 6
    1e2c:	21 e0       	ldi	r18, 0x01	; 1
    1e2e:	4a e8       	ldi	r20, 0x8A	; 138
    1e30:	53 e0       	ldi	r21, 0x03	; 3
    1e32:	67 e9       	ldi	r22, 0x97	; 151
    1e34:	73 e0       	ldi	r23, 0x03	; 3
    1e36:	82 ea       	ldi	r24, 0xA2	; 162
    1e38:	92 e0       	ldi	r25, 0x02	; 2
    1e3a:	0e 94 99 0d 	call	0x1b32	; 0x1b32 <_ZN4VramC1EP14portcontrollerP8shiftreghhy>

static ram rambanklist[] = {bank0,bank1,bank2,bank3,bank4};
    1e3e:	8c e0       	ldi	r24, 0x0C	; 12
    1e40:	e9 e6       	ldi	r30, 0x69	; 105
    1e42:	f3 e0       	ldi	r31, 0x03	; 3
    1e44:	a6 e6       	ldi	r26, 0x66	; 102
    1e46:	b2 e0       	ldi	r27, 0x02	; 2
    1e48:	01 90       	ld	r0, Z+
    1e4a:	0d 92       	st	X+, r0
    1e4c:	8a 95       	dec	r24
    1e4e:	e1 f7       	brne	.-8      	; 0x1e48 <_GLOBAL__sub_I__Z10runprogramv+0x26c>
    1e50:	8c e0       	ldi	r24, 0x0C	; 12
    1e52:	ed e5       	ldi	r30, 0x5D	; 93
    1e54:	f3 e0       	ldi	r31, 0x03	; 3
    1e56:	a2 e7       	ldi	r26, 0x72	; 114
    1e58:	b2 e0       	ldi	r27, 0x02	; 2
    1e5a:	01 90       	ld	r0, Z+
    1e5c:	0d 92       	st	X+, r0
    1e5e:	8a 95       	dec	r24
    1e60:	e1 f7       	brne	.-8      	; 0x1e5a <_GLOBAL__sub_I__Z10runprogramv+0x27e>
    1e62:	8c e0       	ldi	r24, 0x0C	; 12
    1e64:	e1 e5       	ldi	r30, 0x51	; 81
    1e66:	f3 e0       	ldi	r31, 0x03	; 3
    1e68:	ae e7       	ldi	r26, 0x7E	; 126
    1e6a:	b2 e0       	ldi	r27, 0x02	; 2
    1e6c:	01 90       	ld	r0, Z+
    1e6e:	0d 92       	st	X+, r0
    1e70:	8a 95       	dec	r24
    1e72:	e1 f7       	brne	.-8      	; 0x1e6c <_GLOBAL__sub_I__Z10runprogramv+0x290>
    1e74:	8c e0       	ldi	r24, 0x0C	; 12
    1e76:	e5 e4       	ldi	r30, 0x45	; 69
    1e78:	f3 e0       	ldi	r31, 0x03	; 3
    1e7a:	aa e8       	ldi	r26, 0x8A	; 138
    1e7c:	b2 e0       	ldi	r27, 0x02	; 2
    1e7e:	01 90       	ld	r0, Z+
    1e80:	0d 92       	st	X+, r0
    1e82:	8a 95       	dec	r24
    1e84:	e1 f7       	brne	.-8      	; 0x1e7e <_GLOBAL__sub_I__Z10runprogramv+0x2a2>
    1e86:	8c e0       	ldi	r24, 0x0C	; 12
    1e88:	e9 e3       	ldi	r30, 0x39	; 57
    1e8a:	f3 e0       	ldi	r31, 0x03	; 3
    1e8c:	a6 e9       	ldi	r26, 0x96	; 150
    1e8e:	b2 e0       	ldi	r27, 0x02	; 2
    1e90:	01 90       	ld	r0, Z+
    1e92:	0d 92       	st	X+, r0
    1e94:	8a 95       	dec	r24
    1e96:	e1 f7       	brne	.-8      	; 0x1e90 <_GLOBAL__sub_I__Z10runprogramv+0x2b4>
static Vram vrambanklist[]={vbank0,vbank1,vbank2};
    1e98:	80 e1       	ldi	r24, 0x10	; 16
    1e9a:	e2 ec       	ldi	r30, 0xC2	; 194
    1e9c:	f2 e0       	ldi	r31, 0x02	; 2
    1e9e:	a6 e3       	ldi	r26, 0x36	; 54
    1ea0:	b2 e0       	ldi	r27, 0x02	; 2
    1ea2:	01 90       	ld	r0, Z+
    1ea4:	0d 92       	st	X+, r0
    1ea6:	8a 95       	dec	r24
    1ea8:	e1 f7       	brne	.-8      	; 0x1ea2 <_GLOBAL__sub_I__Z10runprogramv+0x2c6>
    1eaa:	80 e1       	ldi	r24, 0x10	; 16
    1eac:	e2 eb       	ldi	r30, 0xB2	; 178
    1eae:	f2 e0       	ldi	r31, 0x02	; 2
    1eb0:	a6 e4       	ldi	r26, 0x46	; 70
    1eb2:	b2 e0       	ldi	r27, 0x02	; 2
    1eb4:	01 90       	ld	r0, Z+
    1eb6:	0d 92       	st	X+, r0
    1eb8:	8a 95       	dec	r24
    1eba:	e1 f7       	brne	.-8      	; 0x1eb4 <_GLOBAL__sub_I__Z10runprogramv+0x2d8>
    1ebc:	80 e1       	ldi	r24, 0x10	; 16
    1ebe:	e2 ea       	ldi	r30, 0xA2	; 162
    1ec0:	f2 e0       	ldi	r31, 0x02	; 2
    1ec2:	a6 e5       	ldi	r26, 0x56	; 86
    1ec4:	b2 e0       	ldi	r27, 0x02	; 2
    1ec6:	01 90       	ld	r0, Z+
    1ec8:	0d 92       	st	X+, r0
    1eca:	8a 95       	dec	r24
    1ecc:	e1 f7       	brne	.-8      	; 0x1ec6 <_GLOBAL__sub_I__Z10runprogramv+0x2ea>



static interrupts irqhandler= interrupts();
    1ece:	84 e3       	ldi	r24, 0x34	; 52
    1ed0:	92 e0       	ldi	r25, 0x02	; 2
    1ed2:	0e 94 c8 0b 	call	0x1790	; 0x1790 <_ZN10interruptsC1Ev>
static interpreter interpret= interpreter();
    1ed6:	82 e1       	ldi	r24, 0x12	; 18
    1ed8:	91 e0       	ldi	r25, 0x01	; 1
    1eda:	0e 94 78 00 	call	0xf0	; 0xf0 <_ZN11interpreterC1Ev>
static keyboard kb = keyboard();
    1ede:	8e e0       	ldi	r24, 0x0E	; 14
    1ee0:	91 e0       	ldi	r25, 0x01	; 1
    1ee2:	0e 94 ca 0b 	call	0x1794	; 0x1794 <_ZN8keyboardC1Ev>
		 }
		//in_str[0]='a';
	     free(in_str);
	}
	return 0;        	
    1ee6:	1f 91       	pop	r17
    1ee8:	0f 91       	pop	r16
    1eea:	ff 90       	pop	r15
    1eec:	ef 90       	pop	r14
    1eee:	df 90       	pop	r13
    1ef0:	cf 90       	pop	r12
    1ef2:	bf 90       	pop	r11
    1ef4:	af 90       	pop	r10
    1ef6:	9f 90       	pop	r9
    1ef8:	8f 90       	pop	r8
    1efa:	08 95       	ret

00001efc <_GLOBAL__sub_D__Z10runprogramv>:
    1efc:	cf 93       	push	r28
    1efe:	df 93       	push	r29



static interrupts irqhandler= interrupts();
static interpreter interpret= interpreter();
static keyboard kb = keyboard();
    1f00:	8e e0       	ldi	r24, 0x0E	; 14
    1f02:	91 e0       	ldi	r25, 0x01	; 1
    1f04:	0e 94 d0 0b 	call	0x17a0	; 0x17a0 <_ZN8keyboardD1Ev>
static Vram vrambanklist[]={vbank0,vbank1,vbank2};



static interrupts irqhandler= interrupts();
static interpreter interpret= interpreter();
    1f08:	82 e1       	ldi	r24, 0x12	; 18
    1f0a:	91 e0       	ldi	r25, 0x01	; 1
    1f0c:	0e 94 c7 0b 	call	0x178e	; 0x178e <_ZN11interpreterD1Ev>
static ram rambanklist[] = {bank0,bank1,bank2,bank3,bank4};
static Vram vrambanklist[]={vbank0,vbank1,vbank2};



static interrupts irqhandler= interrupts();
    1f10:	84 e3       	ldi	r24, 0x34	; 52
    1f12:	92 e0       	ldi	r25, 0x02	; 2
    1f14:	0e 94 c9 0b 	call	0x1792	; 0x1792 <_ZN10interruptsD1Ev>
static Vram vbank0 = Vram(&port,&addreg,rwpin,vmempin,0x0u);	// video ram
static Vram vbank1 = Vram(&port,&addreg,rwpin,vmempin,0x2000u);//instruction ram
static Vram vbank2 = Vram(&port,&addreg,rwpin,vmempin,0x4000u);// custom char ram 

static ram rambanklist[] = {bank0,bank1,bank2,bank3,bank4};
static Vram vrambanklist[]={vbank0,vbank1,vbank2};
    1f18:	86 e5       	ldi	r24, 0x56	; 86
    1f1a:	92 e0       	ldi	r25, 0x02	; 2
    1f1c:	0e 94 c0 0d 	call	0x1b80	; 0x1b80 <_ZN4VramD1Ev>
    1f20:	86 e4       	ldi	r24, 0x46	; 70
    1f22:	92 e0       	ldi	r25, 0x02	; 2
    1f24:	0e 94 c0 0d 	call	0x1b80	; 0x1b80 <_ZN4VramD1Ev>
    1f28:	86 e3       	ldi	r24, 0x36	; 54
    1f2a:	92 e0       	ldi	r25, 0x02	; 2
    1f2c:	0e 94 c0 0d 	call	0x1b80	; 0x1b80 <_ZN4VramD1Ev>
    1f30:	c2 ea       	ldi	r28, 0xA2	; 162
    1f32:	d2 e0       	ldi	r29, 0x02	; 2

static Vram vbank0 = Vram(&port,&addreg,rwpin,vmempin,0x0u);	// video ram
static Vram vbank1 = Vram(&port,&addreg,rwpin,vmempin,0x2000u);//instruction ram
static Vram vbank2 = Vram(&port,&addreg,rwpin,vmempin,0x4000u);// custom char ram 

static ram rambanklist[] = {bank0,bank1,bank2,bank3,bank4};
    1f34:	2c 97       	sbiw	r28, 0x0c	; 12
    1f36:	ce 01       	movw	r24, r28
    1f38:	0e 94 98 0d 	call	0x1b30	; 0x1b30 <_ZN3ramD1Ev>
    1f3c:	82 e0       	ldi	r24, 0x02	; 2
    1f3e:	c6 36       	cpi	r28, 0x66	; 102
    1f40:	d8 07       	cpc	r29, r24
    1f42:	c1 f7       	brne	.-16     	; 0x1f34 <_GLOBAL__sub_D__Z10runprogramv+0x38>
static eeprom storage2 =eeprom(&port,&addreg,rwpin,0x1C000u);
static eeprom storage3 =eeprom(&port,&addreg,rwpin,0x1E000u);

static Vram vbank0 = Vram(&port,&addreg,rwpin,vmempin,0x0u);	// video ram
static Vram vbank1 = Vram(&port,&addreg,rwpin,vmempin,0x2000u);//instruction ram
static Vram vbank2 = Vram(&port,&addreg,rwpin,vmempin,0x4000u);// custom char ram 
    1f44:	82 ea       	ldi	r24, 0xA2	; 162
    1f46:	92 e0       	ldi	r25, 0x02	; 2
    1f48:	0e 94 c0 0d 	call	0x1b80	; 0x1b80 <_ZN4VramD1Ev>
static eeprom storage1 =eeprom(&port,&addreg,rwpin,0x1A000u);
static eeprom storage2 =eeprom(&port,&addreg,rwpin,0x1C000u);
static eeprom storage3 =eeprom(&port,&addreg,rwpin,0x1E000u);

static Vram vbank0 = Vram(&port,&addreg,rwpin,vmempin,0x0u);	// video ram
static Vram vbank1 = Vram(&port,&addreg,rwpin,vmempin,0x2000u);//instruction ram
    1f4c:	82 eb       	ldi	r24, 0xB2	; 178
    1f4e:	92 e0       	ldi	r25, 0x02	; 2
    1f50:	0e 94 c0 0d 	call	0x1b80	; 0x1b80 <_ZN4VramD1Ev>
static eeprom storage0 =eeprom(&port,&addreg,rwpin,0x18000u);
static eeprom storage1 =eeprom(&port,&addreg,rwpin,0x1A000u);
static eeprom storage2 =eeprom(&port,&addreg,rwpin,0x1C000u);
static eeprom storage3 =eeprom(&port,&addreg,rwpin,0x1E000u);

static Vram vbank0 = Vram(&port,&addreg,rwpin,vmempin,0x0u);	// video ram
    1f54:	82 ec       	ldi	r24, 0xC2	; 194
    1f56:	92 e0       	ldi	r25, 0x02	; 2
    1f58:	0e 94 c0 0d 	call	0x1b80	; 0x1b80 <_ZN4VramD1Ev>

static eeprom fattable =eeprom(&port,&addreg,rwpin,0x16000u);
static eeprom storage0 =eeprom(&port,&addreg,rwpin,0x18000u);
static eeprom storage1 =eeprom(&port,&addreg,rwpin,0x1A000u);
static eeprom storage2 =eeprom(&port,&addreg,rwpin,0x1C000u);
static eeprom storage3 =eeprom(&port,&addreg,rwpin,0x1E000u);
    1f5c:	82 ed       	ldi	r24, 0xD2	; 210
    1f5e:	92 e0       	ldi	r25, 0x02	; 2
    1f60:	0e 94 32 0d 	call	0x1a64	; 0x1a64 <_ZN6eepromD1Ev>
static rom program3 = rom(&port,&addreg,0x14000u);

static eeprom fattable =eeprom(&port,&addreg,rwpin,0x16000u);
static eeprom storage0 =eeprom(&port,&addreg,rwpin,0x18000u);
static eeprom storage1 =eeprom(&port,&addreg,rwpin,0x1A000u);
static eeprom storage2 =eeprom(&port,&addreg,rwpin,0x1C000u);
    1f64:	8d ed       	ldi	r24, 0xDD	; 221
    1f66:	92 e0       	ldi	r25, 0x02	; 2
    1f68:	0e 94 32 0d 	call	0x1a64	; 0x1a64 <_ZN6eepromD1Ev>
static rom program2 = rom(&port,&addreg,0x12000u);
static rom program3 = rom(&port,&addreg,0x14000u);

static eeprom fattable =eeprom(&port,&addreg,rwpin,0x16000u);
static eeprom storage0 =eeprom(&port,&addreg,rwpin,0x18000u);
static eeprom storage1 =eeprom(&port,&addreg,rwpin,0x1A000u);
    1f6c:	88 ee       	ldi	r24, 0xE8	; 232
    1f6e:	92 e0       	ldi	r25, 0x02	; 2
    1f70:	0e 94 32 0d 	call	0x1a64	; 0x1a64 <_ZN6eepromD1Ev>
static rom program1 = rom(&port,&addreg,0x10000u);
static rom program2 = rom(&port,&addreg,0x12000u);
static rom program3 = rom(&port,&addreg,0x14000u);

static eeprom fattable =eeprom(&port,&addreg,rwpin,0x16000u);
static eeprom storage0 =eeprom(&port,&addreg,rwpin,0x18000u);
    1f74:	83 ef       	ldi	r24, 0xF3	; 243
    1f76:	92 e0       	ldi	r25, 0x02	; 2
    1f78:	0e 94 32 0d 	call	0x1a64	; 0x1a64 <_ZN6eepromD1Ev>
static rom program0 = rom(&port,&addreg,0xE000u);
static rom program1 = rom(&port,&addreg,0x10000u);
static rom program2 = rom(&port,&addreg,0x12000u);
static rom program3 = rom(&port,&addreg,0x14000u);

static eeprom fattable =eeprom(&port,&addreg,rwpin,0x16000u);
    1f7c:	8e ef       	ldi	r24, 0xFE	; 254
    1f7e:	92 e0       	ldi	r25, 0x02	; 2
    1f80:	0e 94 32 0d 	call	0x1a64	; 0x1a64 <_ZN6eepromD1Ev>
static rom bios = rom(&port,&addreg,0xA000u);
static rom settings = rom(&port,&addreg,0xC000u);
static rom program0 = rom(&port,&addreg,0xE000u);
static rom program1 = rom(&port,&addreg,0x10000u);
static rom program2 = rom(&port,&addreg,0x12000u);
static rom program3 = rom(&port,&addreg,0x14000u);
    1f84:	89 e0       	ldi	r24, 0x09	; 9
    1f86:	93 e0       	ldi	r25, 0x03	; 3
    1f88:	0e 94 44 0d 	call	0x1a88	; 0x1a88 <_ZN3romD1Ev>

static rom bios = rom(&port,&addreg,0xA000u);
static rom settings = rom(&port,&addreg,0xC000u);
static rom program0 = rom(&port,&addreg,0xE000u);
static rom program1 = rom(&port,&addreg,0x10000u);
static rom program2 = rom(&port,&addreg,0x12000u);
    1f8c:	81 e1       	ldi	r24, 0x11	; 17
    1f8e:	93 e0       	ldi	r25, 0x03	; 3
    1f90:	0e 94 44 0d 	call	0x1a88	; 0x1a88 <_ZN3romD1Ev>
static ram bank4 = ram(&port,&addreg,rwpin,0x8000u);// stack ram

static rom bios = rom(&port,&addreg,0xA000u);
static rom settings = rom(&port,&addreg,0xC000u);
static rom program0 = rom(&port,&addreg,0xE000u);
static rom program1 = rom(&port,&addreg,0x10000u);
    1f94:	89 e1       	ldi	r24, 0x19	; 25
    1f96:	93 e0       	ldi	r25, 0x03	; 3
    1f98:	0e 94 44 0d 	call	0x1a88	; 0x1a88 <_ZN3romD1Ev>
static ram bank3 = ram(&port,&addreg,rwpin,0x6000u);// second prog ram  
static ram bank4 = ram(&port,&addreg,rwpin,0x8000u);// stack ram

static rom bios = rom(&port,&addreg,0xA000u);
static rom settings = rom(&port,&addreg,0xC000u);
static rom program0 = rom(&port,&addreg,0xE000u);
    1f9c:	81 e2       	ldi	r24, 0x21	; 33
    1f9e:	93 e0       	ldi	r25, 0x03	; 3
    1fa0:	0e 94 44 0d 	call	0x1a88	; 0x1a88 <_ZN3romD1Ev>
static ram bank2 = ram(&port,&addreg,rwpin,0x4000u);// main data ram 
static ram bank3 = ram(&port,&addreg,rwpin,0x6000u);// second prog ram  
static ram bank4 = ram(&port,&addreg,rwpin,0x8000u);// stack ram

static rom bios = rom(&port,&addreg,0xA000u);
static rom settings = rom(&port,&addreg,0xC000u);
    1fa4:	89 e2       	ldi	r24, 0x29	; 41
    1fa6:	93 e0       	ldi	r25, 0x03	; 3
    1fa8:	0e 94 44 0d 	call	0x1a88	; 0x1a88 <_ZN3romD1Ev>
static ram bank1 = ram(&port,&addreg,rwpin,0x2000u);//main program code
static ram bank2 = ram(&port,&addreg,rwpin,0x4000u);// main data ram 
static ram bank3 = ram(&port,&addreg,rwpin,0x6000u);// second prog ram  
static ram bank4 = ram(&port,&addreg,rwpin,0x8000u);// stack ram

static rom bios = rom(&port,&addreg,0xA000u);
    1fac:	81 e3       	ldi	r24, 0x31	; 49
    1fae:	93 e0       	ldi	r25, 0x03	; 3
    1fb0:	0e 94 44 0d 	call	0x1a88	; 0x1a88 <_ZN3romD1Ev>
static Serial serial= Serial(&csreg,&port,3,34,33);
static ram bank0 = ram(&port,&addreg,rwpin,0x0u);	// os ram 
static ram bank1 = ram(&port,&addreg,rwpin,0x2000u);//main program code
static ram bank2 = ram(&port,&addreg,rwpin,0x4000u);// main data ram 
static ram bank3 = ram(&port,&addreg,rwpin,0x6000u);// second prog ram  
static ram bank4 = ram(&port,&addreg,rwpin,0x8000u);// stack ram
    1fb4:	89 e3       	ldi	r24, 0x39	; 57
    1fb6:	93 e0       	ldi	r25, 0x03	; 3
    1fb8:	0e 94 98 0d 	call	0x1b30	; 0x1b30 <_ZN3ramD1Ev>
static shiftreg csreg=shiftreg(37,36,35,&port);
static Serial serial= Serial(&csreg,&port,3,34,33);
static ram bank0 = ram(&port,&addreg,rwpin,0x0u);	// os ram 
static ram bank1 = ram(&port,&addreg,rwpin,0x2000u);//main program code
static ram bank2 = ram(&port,&addreg,rwpin,0x4000u);// main data ram 
static ram bank3 = ram(&port,&addreg,rwpin,0x6000u);// second prog ram  
    1fbc:	85 e4       	ldi	r24, 0x45	; 69
    1fbe:	93 e0       	ldi	r25, 0x03	; 3
    1fc0:	0e 94 98 0d 	call	0x1b30	; 0x1b30 <_ZN3ramD1Ev>
static shiftreg addreg=shiftreg(40,39,38,&port);
static shiftreg csreg=shiftreg(37,36,35,&port);
static Serial serial= Serial(&csreg,&port,3,34,33);
static ram bank0 = ram(&port,&addreg,rwpin,0x0u);	// os ram 
static ram bank1 = ram(&port,&addreg,rwpin,0x2000u);//main program code
static ram bank2 = ram(&port,&addreg,rwpin,0x4000u);// main data ram 
    1fc4:	81 e5       	ldi	r24, 0x51	; 81
    1fc6:	93 e0       	ldi	r25, 0x03	; 3
    1fc8:	0e 94 98 0d 	call	0x1b30	; 0x1b30 <_ZN3ramD1Ev>
static portcontroller port=portcontroller();
static shiftreg addreg=shiftreg(40,39,38,&port);
static shiftreg csreg=shiftreg(37,36,35,&port);
static Serial serial= Serial(&csreg,&port,3,34,33);
static ram bank0 = ram(&port,&addreg,rwpin,0x0u);	// os ram 
static ram bank1 = ram(&port,&addreg,rwpin,0x2000u);//main program code
    1fcc:	8d e5       	ldi	r24, 0x5D	; 93
    1fce:	93 e0       	ldi	r25, 0x03	; 3
    1fd0:	0e 94 98 0d 	call	0x1b30	; 0x1b30 <_ZN3ramD1Ev>
//static const int address_max_hex=0x1fff;
static portcontroller port=portcontroller();
static shiftreg addreg=shiftreg(40,39,38,&port);
static shiftreg csreg=shiftreg(37,36,35,&port);
static Serial serial= Serial(&csreg,&port,3,34,33);
static ram bank0 = ram(&port,&addreg,rwpin,0x0u);	// os ram 
    1fd4:	89 e6       	ldi	r24, 0x69	; 105
    1fd6:	93 e0       	ldi	r25, 0x03	; 3
    1fd8:	0e 94 98 0d 	call	0x1b30	; 0x1b30 <_ZN3ramD1Ev>

//static const int address_max_hex=0x1fff;
static portcontroller port=portcontroller();
static shiftreg addreg=shiftreg(40,39,38,&port);
static shiftreg csreg=shiftreg(37,36,35,&port);
static Serial serial= Serial(&csreg,&port,3,34,33);
    1fdc:	85 e7       	ldi	r24, 0x75	; 117
    1fde:	93 e0       	ldi	r25, 0x03	; 3
    1fe0:	0e 94 77 00 	call	0xee	; 0xee <_ZN6SerialD1Ev>


//static const int address_max_hex=0x1fff;
static portcontroller port=portcontroller();
static shiftreg addreg=shiftreg(40,39,38,&port);
static shiftreg csreg=shiftreg(37,36,35,&port);
    1fe4:	8d e7       	ldi	r24, 0x7D	; 125
    1fe6:	93 e0       	ldi	r25, 0x03	; 3
    1fe8:	0e 94 0a 0d 	call	0x1a14	; 0x1a14 <_ZN8shiftregD1Ev>



//static const int address_max_hex=0x1fff;
static portcontroller port=portcontroller();
static shiftreg addreg=shiftreg(40,39,38,&port);
    1fec:	8a e8       	ldi	r24, 0x8A	; 138
    1fee:	93 e0       	ldi	r25, 0x03	; 3
    1ff0:	0e 94 0a 0d 	call	0x1a14	; 0x1a14 <_ZN8shiftregD1Ev>
*/



//static const int address_max_hex=0x1fff;
static portcontroller port=portcontroller();
    1ff4:	87 e9       	ldi	r24, 0x97	; 151
    1ff6:	93 e0       	ldi	r25, 0x03	; 3
    1ff8:	0e 94 43 0c 	call	0x1886	; 0x1886 <_ZN14portcontrollerD1Ev>
		 }
		//in_str[0]='a';
	     free(in_str);
	}
	return 0;        	
    1ffc:	df 91       	pop	r29
    1ffe:	cf 91       	pop	r28
    2000:	08 95       	ret

00002002 <__udivmodqi4>:
    2002:	99 1b       	sub	r25, r25
    2004:	79 e0       	ldi	r23, 0x09	; 9
    2006:	04 c0       	rjmp	.+8      	; 0x2010 <__udivmodqi4_ep>

00002008 <__udivmodqi4_loop>:
    2008:	99 1f       	adc	r25, r25
    200a:	96 17       	cp	r25, r22
    200c:	08 f0       	brcs	.+2      	; 0x2010 <__udivmodqi4_ep>
    200e:	96 1b       	sub	r25, r22

00002010 <__udivmodqi4_ep>:
    2010:	88 1f       	adc	r24, r24
    2012:	7a 95       	dec	r23
    2014:	c9 f7       	brne	.-14     	; 0x2008 <__udivmodqi4_loop>
    2016:	80 95       	com	r24
    2018:	08 95       	ret

0000201a <__tablejump2__>:
    201a:	ee 0f       	add	r30, r30
    201c:	ff 1f       	adc	r31, r31
    201e:	05 90       	lpm	r0, Z+
    2020:	f4 91       	lpm	r31, Z
    2022:	e0 2d       	mov	r30, r0
    2024:	09 94       	ijmp

00002026 <malloc>:
    2026:	0f 93       	push	r16
    2028:	1f 93       	push	r17
    202a:	cf 93       	push	r28
    202c:	df 93       	push	r29
    202e:	82 30       	cpi	r24, 0x02	; 2
    2030:	91 05       	cpc	r25, r1
    2032:	10 f4       	brcc	.+4      	; 0x2038 <malloc+0x12>
    2034:	82 e0       	ldi	r24, 0x02	; 2
    2036:	90 e0       	ldi	r25, 0x00	; 0
    2038:	e0 91 9a 03 	lds	r30, 0x039A	; 0x80039a <__flp>
    203c:	f0 91 9b 03 	lds	r31, 0x039B	; 0x80039b <__flp+0x1>
    2040:	20 e0       	ldi	r18, 0x00	; 0
    2042:	30 e0       	ldi	r19, 0x00	; 0
    2044:	a0 e0       	ldi	r26, 0x00	; 0
    2046:	b0 e0       	ldi	r27, 0x00	; 0
    2048:	30 97       	sbiw	r30, 0x00	; 0
    204a:	19 f1       	breq	.+70     	; 0x2092 <malloc+0x6c>
    204c:	40 81       	ld	r20, Z
    204e:	51 81       	ldd	r21, Z+1	; 0x01
    2050:	02 81       	ldd	r16, Z+2	; 0x02
    2052:	13 81       	ldd	r17, Z+3	; 0x03
    2054:	48 17       	cp	r20, r24
    2056:	59 07       	cpc	r21, r25
    2058:	c8 f0       	brcs	.+50     	; 0x208c <malloc+0x66>
    205a:	84 17       	cp	r24, r20
    205c:	95 07       	cpc	r25, r21
    205e:	69 f4       	brne	.+26     	; 0x207a <malloc+0x54>
    2060:	10 97       	sbiw	r26, 0x00	; 0
    2062:	31 f0       	breq	.+12     	; 0x2070 <malloc+0x4a>
    2064:	12 96       	adiw	r26, 0x02	; 2
    2066:	0c 93       	st	X, r16
    2068:	12 97       	sbiw	r26, 0x02	; 2
    206a:	13 96       	adiw	r26, 0x03	; 3
    206c:	1c 93       	st	X, r17
    206e:	27 c0       	rjmp	.+78     	; 0x20be <malloc+0x98>
    2070:	00 93 9a 03 	sts	0x039A, r16	; 0x80039a <__flp>
    2074:	10 93 9b 03 	sts	0x039B, r17	; 0x80039b <__flp+0x1>
    2078:	22 c0       	rjmp	.+68     	; 0x20be <malloc+0x98>
    207a:	21 15       	cp	r18, r1
    207c:	31 05       	cpc	r19, r1
    207e:	19 f0       	breq	.+6      	; 0x2086 <malloc+0x60>
    2080:	42 17       	cp	r20, r18
    2082:	53 07       	cpc	r21, r19
    2084:	18 f4       	brcc	.+6      	; 0x208c <malloc+0x66>
    2086:	9a 01       	movw	r18, r20
    2088:	bd 01       	movw	r22, r26
    208a:	ef 01       	movw	r28, r30
    208c:	df 01       	movw	r26, r30
    208e:	f8 01       	movw	r30, r16
    2090:	db cf       	rjmp	.-74     	; 0x2048 <malloc+0x22>
    2092:	21 15       	cp	r18, r1
    2094:	31 05       	cpc	r19, r1
    2096:	f9 f0       	breq	.+62     	; 0x20d6 <malloc+0xb0>
    2098:	28 1b       	sub	r18, r24
    209a:	39 0b       	sbc	r19, r25
    209c:	24 30       	cpi	r18, 0x04	; 4
    209e:	31 05       	cpc	r19, r1
    20a0:	80 f4       	brcc	.+32     	; 0x20c2 <malloc+0x9c>
    20a2:	8a 81       	ldd	r24, Y+2	; 0x02
    20a4:	9b 81       	ldd	r25, Y+3	; 0x03
    20a6:	61 15       	cp	r22, r1
    20a8:	71 05       	cpc	r23, r1
    20aa:	21 f0       	breq	.+8      	; 0x20b4 <malloc+0x8e>
    20ac:	fb 01       	movw	r30, r22
    20ae:	93 83       	std	Z+3, r25	; 0x03
    20b0:	82 83       	std	Z+2, r24	; 0x02
    20b2:	04 c0       	rjmp	.+8      	; 0x20bc <malloc+0x96>
    20b4:	90 93 9b 03 	sts	0x039B, r25	; 0x80039b <__flp+0x1>
    20b8:	80 93 9a 03 	sts	0x039A, r24	; 0x80039a <__flp>
    20bc:	fe 01       	movw	r30, r28
    20be:	32 96       	adiw	r30, 0x02	; 2
    20c0:	44 c0       	rjmp	.+136    	; 0x214a <malloc+0x124>
    20c2:	fe 01       	movw	r30, r28
    20c4:	e2 0f       	add	r30, r18
    20c6:	f3 1f       	adc	r31, r19
    20c8:	81 93       	st	Z+, r24
    20ca:	91 93       	st	Z+, r25
    20cc:	22 50       	subi	r18, 0x02	; 2
    20ce:	31 09       	sbc	r19, r1
    20d0:	39 83       	std	Y+1, r19	; 0x01
    20d2:	28 83       	st	Y, r18
    20d4:	3a c0       	rjmp	.+116    	; 0x214a <malloc+0x124>
    20d6:	20 91 98 03 	lds	r18, 0x0398	; 0x800398 <__brkval>
    20da:	30 91 99 03 	lds	r19, 0x0399	; 0x800399 <__brkval+0x1>
    20de:	23 2b       	or	r18, r19
    20e0:	41 f4       	brne	.+16     	; 0x20f2 <malloc+0xcc>
    20e2:	20 91 02 01 	lds	r18, 0x0102	; 0x800102 <__malloc_heap_start>
    20e6:	30 91 03 01 	lds	r19, 0x0103	; 0x800103 <__malloc_heap_start+0x1>
    20ea:	30 93 99 03 	sts	0x0399, r19	; 0x800399 <__brkval+0x1>
    20ee:	20 93 98 03 	sts	0x0398, r18	; 0x800398 <__brkval>
    20f2:	20 91 00 01 	lds	r18, 0x0100	; 0x800100 <__data_start>
    20f6:	30 91 01 01 	lds	r19, 0x0101	; 0x800101 <__data_start+0x1>
    20fa:	21 15       	cp	r18, r1
    20fc:	31 05       	cpc	r19, r1
    20fe:	41 f4       	brne	.+16     	; 0x2110 <malloc+0xea>
    2100:	2d b7       	in	r18, 0x3d	; 61
    2102:	3e b7       	in	r19, 0x3e	; 62
    2104:	40 91 04 01 	lds	r20, 0x0104	; 0x800104 <__malloc_margin>
    2108:	50 91 05 01 	lds	r21, 0x0105	; 0x800105 <__malloc_margin+0x1>
    210c:	24 1b       	sub	r18, r20
    210e:	35 0b       	sbc	r19, r21
    2110:	e0 91 98 03 	lds	r30, 0x0398	; 0x800398 <__brkval>
    2114:	f0 91 99 03 	lds	r31, 0x0399	; 0x800399 <__brkval+0x1>
    2118:	e2 17       	cp	r30, r18
    211a:	f3 07       	cpc	r31, r19
    211c:	a0 f4       	brcc	.+40     	; 0x2146 <malloc+0x120>
    211e:	2e 1b       	sub	r18, r30
    2120:	3f 0b       	sbc	r19, r31
    2122:	28 17       	cp	r18, r24
    2124:	39 07       	cpc	r19, r25
    2126:	78 f0       	brcs	.+30     	; 0x2146 <malloc+0x120>
    2128:	ac 01       	movw	r20, r24
    212a:	4e 5f       	subi	r20, 0xFE	; 254
    212c:	5f 4f       	sbci	r21, 0xFF	; 255
    212e:	24 17       	cp	r18, r20
    2130:	35 07       	cpc	r19, r21
    2132:	48 f0       	brcs	.+18     	; 0x2146 <malloc+0x120>
    2134:	4e 0f       	add	r20, r30
    2136:	5f 1f       	adc	r21, r31
    2138:	50 93 99 03 	sts	0x0399, r21	; 0x800399 <__brkval+0x1>
    213c:	40 93 98 03 	sts	0x0398, r20	; 0x800398 <__brkval>
    2140:	81 93       	st	Z+, r24
    2142:	91 93       	st	Z+, r25
    2144:	02 c0       	rjmp	.+4      	; 0x214a <malloc+0x124>
    2146:	e0 e0       	ldi	r30, 0x00	; 0
    2148:	f0 e0       	ldi	r31, 0x00	; 0
    214a:	cf 01       	movw	r24, r30
    214c:	df 91       	pop	r29
    214e:	cf 91       	pop	r28
    2150:	1f 91       	pop	r17
    2152:	0f 91       	pop	r16
    2154:	08 95       	ret

00002156 <free>:
    2156:	cf 93       	push	r28
    2158:	df 93       	push	r29
    215a:	00 97       	sbiw	r24, 0x00	; 0
    215c:	09 f4       	brne	.+2      	; 0x2160 <free+0xa>
    215e:	81 c0       	rjmp	.+258    	; 0x2262 <free+0x10c>
    2160:	fc 01       	movw	r30, r24
    2162:	32 97       	sbiw	r30, 0x02	; 2
    2164:	13 82       	std	Z+3, r1	; 0x03
    2166:	12 82       	std	Z+2, r1	; 0x02
    2168:	a0 91 9a 03 	lds	r26, 0x039A	; 0x80039a <__flp>
    216c:	b0 91 9b 03 	lds	r27, 0x039B	; 0x80039b <__flp+0x1>
    2170:	10 97       	sbiw	r26, 0x00	; 0
    2172:	81 f4       	brne	.+32     	; 0x2194 <free+0x3e>
    2174:	20 81       	ld	r18, Z
    2176:	31 81       	ldd	r19, Z+1	; 0x01
    2178:	82 0f       	add	r24, r18
    217a:	93 1f       	adc	r25, r19
    217c:	20 91 98 03 	lds	r18, 0x0398	; 0x800398 <__brkval>
    2180:	30 91 99 03 	lds	r19, 0x0399	; 0x800399 <__brkval+0x1>
    2184:	28 17       	cp	r18, r24
    2186:	39 07       	cpc	r19, r25
    2188:	51 f5       	brne	.+84     	; 0x21de <free+0x88>
    218a:	f0 93 99 03 	sts	0x0399, r31	; 0x800399 <__brkval+0x1>
    218e:	e0 93 98 03 	sts	0x0398, r30	; 0x800398 <__brkval>
    2192:	67 c0       	rjmp	.+206    	; 0x2262 <free+0x10c>
    2194:	ed 01       	movw	r28, r26
    2196:	20 e0       	ldi	r18, 0x00	; 0
    2198:	30 e0       	ldi	r19, 0x00	; 0
    219a:	ce 17       	cp	r28, r30
    219c:	df 07       	cpc	r29, r31
    219e:	40 f4       	brcc	.+16     	; 0x21b0 <free+0x5a>
    21a0:	4a 81       	ldd	r20, Y+2	; 0x02
    21a2:	5b 81       	ldd	r21, Y+3	; 0x03
    21a4:	9e 01       	movw	r18, r28
    21a6:	41 15       	cp	r20, r1
    21a8:	51 05       	cpc	r21, r1
    21aa:	f1 f0       	breq	.+60     	; 0x21e8 <free+0x92>
    21ac:	ea 01       	movw	r28, r20
    21ae:	f5 cf       	rjmp	.-22     	; 0x219a <free+0x44>
    21b0:	d3 83       	std	Z+3, r29	; 0x03
    21b2:	c2 83       	std	Z+2, r28	; 0x02
    21b4:	40 81       	ld	r20, Z
    21b6:	51 81       	ldd	r21, Z+1	; 0x01
    21b8:	84 0f       	add	r24, r20
    21ba:	95 1f       	adc	r25, r21
    21bc:	c8 17       	cp	r28, r24
    21be:	d9 07       	cpc	r29, r25
    21c0:	59 f4       	brne	.+22     	; 0x21d8 <free+0x82>
    21c2:	88 81       	ld	r24, Y
    21c4:	99 81       	ldd	r25, Y+1	; 0x01
    21c6:	84 0f       	add	r24, r20
    21c8:	95 1f       	adc	r25, r21
    21ca:	02 96       	adiw	r24, 0x02	; 2
    21cc:	91 83       	std	Z+1, r25	; 0x01
    21ce:	80 83       	st	Z, r24
    21d0:	8a 81       	ldd	r24, Y+2	; 0x02
    21d2:	9b 81       	ldd	r25, Y+3	; 0x03
    21d4:	93 83       	std	Z+3, r25	; 0x03
    21d6:	82 83       	std	Z+2, r24	; 0x02
    21d8:	21 15       	cp	r18, r1
    21da:	31 05       	cpc	r19, r1
    21dc:	29 f4       	brne	.+10     	; 0x21e8 <free+0x92>
    21de:	f0 93 9b 03 	sts	0x039B, r31	; 0x80039b <__flp+0x1>
    21e2:	e0 93 9a 03 	sts	0x039A, r30	; 0x80039a <__flp>
    21e6:	3d c0       	rjmp	.+122    	; 0x2262 <free+0x10c>
    21e8:	e9 01       	movw	r28, r18
    21ea:	fb 83       	std	Y+3, r31	; 0x03
    21ec:	ea 83       	std	Y+2, r30	; 0x02
    21ee:	49 91       	ld	r20, Y+
    21f0:	59 91       	ld	r21, Y+
    21f2:	c4 0f       	add	r28, r20
    21f4:	d5 1f       	adc	r29, r21
    21f6:	ec 17       	cp	r30, r28
    21f8:	fd 07       	cpc	r31, r29
    21fa:	61 f4       	brne	.+24     	; 0x2214 <free+0xbe>
    21fc:	80 81       	ld	r24, Z
    21fe:	91 81       	ldd	r25, Z+1	; 0x01
    2200:	84 0f       	add	r24, r20
    2202:	95 1f       	adc	r25, r21
    2204:	02 96       	adiw	r24, 0x02	; 2
    2206:	e9 01       	movw	r28, r18
    2208:	99 83       	std	Y+1, r25	; 0x01
    220a:	88 83       	st	Y, r24
    220c:	82 81       	ldd	r24, Z+2	; 0x02
    220e:	93 81       	ldd	r25, Z+3	; 0x03
    2210:	9b 83       	std	Y+3, r25	; 0x03
    2212:	8a 83       	std	Y+2, r24	; 0x02
    2214:	e0 e0       	ldi	r30, 0x00	; 0
    2216:	f0 e0       	ldi	r31, 0x00	; 0
    2218:	12 96       	adiw	r26, 0x02	; 2
    221a:	8d 91       	ld	r24, X+
    221c:	9c 91       	ld	r25, X
    221e:	13 97       	sbiw	r26, 0x03	; 3
    2220:	00 97       	sbiw	r24, 0x00	; 0
    2222:	19 f0       	breq	.+6      	; 0x222a <free+0xd4>
    2224:	fd 01       	movw	r30, r26
    2226:	dc 01       	movw	r26, r24
    2228:	f7 cf       	rjmp	.-18     	; 0x2218 <free+0xc2>
    222a:	8d 91       	ld	r24, X+
    222c:	9c 91       	ld	r25, X
    222e:	11 97       	sbiw	r26, 0x01	; 1
    2230:	9d 01       	movw	r18, r26
    2232:	2e 5f       	subi	r18, 0xFE	; 254
    2234:	3f 4f       	sbci	r19, 0xFF	; 255
    2236:	82 0f       	add	r24, r18
    2238:	93 1f       	adc	r25, r19
    223a:	20 91 98 03 	lds	r18, 0x0398	; 0x800398 <__brkval>
    223e:	30 91 99 03 	lds	r19, 0x0399	; 0x800399 <__brkval+0x1>
    2242:	28 17       	cp	r18, r24
    2244:	39 07       	cpc	r19, r25
    2246:	69 f4       	brne	.+26     	; 0x2262 <free+0x10c>
    2248:	30 97       	sbiw	r30, 0x00	; 0
    224a:	29 f4       	brne	.+10     	; 0x2256 <free+0x100>
    224c:	10 92 9b 03 	sts	0x039B, r1	; 0x80039b <__flp+0x1>
    2250:	10 92 9a 03 	sts	0x039A, r1	; 0x80039a <__flp>
    2254:	02 c0       	rjmp	.+4      	; 0x225a <free+0x104>
    2256:	13 82       	std	Z+3, r1	; 0x03
    2258:	12 82       	std	Z+2, r1	; 0x02
    225a:	b0 93 99 03 	sts	0x0399, r27	; 0x800399 <__brkval+0x1>
    225e:	a0 93 98 03 	sts	0x0398, r26	; 0x800398 <__brkval>
    2262:	df 91       	pop	r29
    2264:	cf 91       	pop	r28
    2266:	08 95       	ret

00002268 <strcasecmp_P>:
    2268:	fb 01       	movw	r30, r22
    226a:	dc 01       	movw	r26, r24
    226c:	8d 91       	ld	r24, X+
    226e:	81 34       	cpi	r24, 0x41	; 65
    2270:	1c f0       	brlt	.+6      	; 0x2278 <strcasecmp_P+0x10>
    2272:	8b 35       	cpi	r24, 0x5B	; 91
    2274:	0c f4       	brge	.+2      	; 0x2278 <strcasecmp_P+0x10>
    2276:	80 5e       	subi	r24, 0xE0	; 224
    2278:	65 91       	lpm	r22, Z+
    227a:	61 34       	cpi	r22, 0x41	; 65
    227c:	1c f0       	brlt	.+6      	; 0x2284 <strcasecmp_P+0x1c>
    227e:	6b 35       	cpi	r22, 0x5B	; 91
    2280:	0c f4       	brge	.+2      	; 0x2284 <strcasecmp_P+0x1c>
    2282:	60 5e       	subi	r22, 0xE0	; 224
    2284:	86 1b       	sub	r24, r22
    2286:	61 11       	cpse	r22, r1
    2288:	89 f3       	breq	.-30     	; 0x226c <strcasecmp_P+0x4>
    228a:	99 0b       	sbc	r25, r25
    228c:	08 95       	ret

0000228e <__do_global_dtors>:
    228e:	10 e0       	ldi	r17, 0x00	; 0
    2290:	cf e3       	ldi	r28, 0x3F	; 63
    2292:	d0 e0       	ldi	r29, 0x00	; 0
    2294:	04 c0       	rjmp	.+8      	; 0x229e <__do_global_dtors+0x10>
    2296:	fe 01       	movw	r30, r28
    2298:	0e 94 0d 10 	call	0x201a	; 0x201a <__tablejump2__>
    229c:	21 96       	adiw	r28, 0x01	; 1
    229e:	c0 34       	cpi	r28, 0x40	; 64
    22a0:	d1 07       	cpc	r29, r17
    22a2:	c9 f7       	brne	.-14     	; 0x2296 <__do_global_dtors+0x8>
    22a4:	f8 94       	cli

000022a6 <__stop_program>:
    22a6:	ff cf       	rjmp	.-2      	; 0x22a6 <__stop_program>
