	.file	"ram.cpp"
__SP_H__ = 0x3e
__SP_L__ = 0x3d
__SREG__ = 0x3f
__tmp_reg__ = 0
__zero_reg__ = 1
	.text
.Ltext0:
	.cfi_sections	.debug_frame
	.section	.text._ZN3ramC2EP14portcontrollerP8shiftreghm,"ax",@progbits
.global	_ZN3ramC2EP14portcontrollerP8shiftreghm
	.type	_ZN3ramC2EP14portcontrollerP8shiftreghm, @function
_ZN3ramC2EP14portcontrollerP8shiftreghm:
.LFB8:
	.file 1 "../drivers/mem/volatile/ram.cpp"
	.loc 1 12 0
	.cfi_startproc
.LVL0:
	push r14
.LCFI0:
	.cfi_def_cfa_offset 3
	.cfi_offset 14, -2
	push r15
.LCFI1:
	.cfi_def_cfa_offset 4
	.cfi_offset 15, -3
	push r16
.LCFI2:
	.cfi_def_cfa_offset 5
	.cfi_offset 16, -4
	push r17
.LCFI3:
	.cfi_def_cfa_offset 6
	.cfi_offset 17, -5
/* prologue: function */
/* frame size = 0 */
/* stack size = 4 */
.L__stack_usage = 4
	movw r30,r24
	movw r24,r22
.LVL1:
.LBB8:
	.loc 1 14 0
	std Z+3,r23
	std Z+2,r22
	.loc 1 15 0
	std Z+5,r21
	std Z+4,r20
	.loc 1 16 0
	std Z+1,r18
	.loc 1 17 0
	std Z+8,r14
	std Z+9,r15
	std Z+10,r16
	std Z+11,r17
	.loc 1 18 0
	st Z,__zero_reg__
	.loc 1 19 0
	ldi r20,lo8(1)
.LVL2:
	mov r22,r18
.LVL3:
	call _ZN14portcontroller12digitalwriteEhb
.LVL4:
/* epilogue start */
.LBE8:
	.loc 1 20 0
	pop r17
	pop r16
	pop r15
	pop r14
.LVL5:
	ret
	.cfi_endproc
.LFE8:
	.size	_ZN3ramC2EP14portcontrollerP8shiftreghm, .-_ZN3ramC2EP14portcontrollerP8shiftreghm
.global	_ZN3ramC1EP14portcontrollerP8shiftreghm
	.set	_ZN3ramC1EP14portcontrollerP8shiftreghm,_ZN3ramC2EP14portcontrollerP8shiftreghm
	.section	.text._ZN3ram4readEi,"ax",@progbits
.global	_ZN3ram4readEi
	.type	_ZN3ram4readEi, @function
_ZN3ram4readEi:
.LFB10:
	.loc 1 40 0
	.cfi_startproc
.LVL6:
	push r28
.LCFI4:
	.cfi_def_cfa_offset 3
	.cfi_offset 28, -2
	push r29
.LCFI5:
	.cfi_def_cfa_offset 4
	.cfi_offset 29, -3
/* prologue: function */
/* frame size = 0 */
/* stack size = 2 */
.L__stack_usage = 2
	movw r28,r24
	.loc 1 41 0
	ldd r24,Y+4
	ldd r25,Y+5
.LVL7:
	call _ZN8shiftreg10shiftout16Ej
.LVL8:
	.loc 1 42 0
	ldd r24,Y+2
	ldd r25,Y+3
	call _ZN14portcontroller9readportdEv
.LVL9:
/* epilogue start */
	.loc 1 43 0
	pop r29
	pop r28
.LVL10:
	ret
	.cfi_endproc
.LFE10:
	.size	_ZN3ram4readEi, .-_ZN3ram4readEi
	.section	.text._ZN3ram5writeEhc,"ax",@progbits
.global	_ZN3ram5writeEhc
	.type	_ZN3ram5writeEhc, @function
_ZN3ram5writeEhc:
.LFB11:
	.loc 1 56 0
	.cfi_startproc
.LVL11:
	push r17
.LCFI6:
	.cfi_def_cfa_offset 3
	.cfi_offset 17, -2
	push r28
.LCFI7:
	.cfi_def_cfa_offset 4
	.cfi_offset 28, -3
	push r29
.LCFI8:
	.cfi_def_cfa_offset 5
	.cfi_offset 29, -4
/* prologue: function */
/* frame size = 0 */
/* stack size = 3 */
.L__stack_usage = 3
	movw r28,r24
	mov r17,r20
	.loc 1 57 0
	ldd r24,Y+8
	ldd r25,Y+9
.LVL12:
	movw r18,r24
	add r18,r22
	adc r19,__zero_reg__
	movw r22,r18
.LVL13:
	ldd r24,Y+4
	ldd r25,Y+5
	call _ZN8shiftreg10shiftout16Ej
.LVL14:
	.loc 1 58 0
	ldd r24,Y+6
	ldd r25,Y+7
	sbiw r24,0
	brne .L4
	.loc 1 60 0
	mov r22,r17
	ldd r24,Y+2
	ldd r25,Y+3
	call _ZN14portcontroller10writeportcEc
.LVL15:
	rjmp .L5
.L4:
	.loc 1 64 0
	mov r22,r17
	call _ZN8shiftreg9shiftout8Eh
.LVL16:
.L5:
	.loc 1 66 0
	ldi r20,0
	ldd r22,Y+1
	ldd r24,Y+2
	ldd r25,Y+3
	call _ZN14portcontroller12digitalwriteEhb
.LVL17:
.LBB9:
.LBB10:
	.file 2 "c:\\program files (x86)\\atmel\\studio\\7.0\\toolchain\\avr8\\avr8-gnu-toolchain\\avr\\include\\util\\delay.h"
	.loc 2 187 0
	ldi r24,lo8(249)
	ldi r25,hi8(249)
1:	sbiw r24,1
	brne 1b
	rjmp .
	nop
.LVL18:
.LBE10:
.LBE9:
	.loc 1 68 0
	ldi r20,lo8(1)
	ldd r22,Y+1
	ldd r24,Y+2
	ldd r25,Y+3
	call _ZN14portcontroller12digitalwriteEhb
.LVL19:
/* epilogue start */
	.loc 1 69 0
	pop r29
	pop r28
.LVL20:
	pop r17
.LVL21:
	ret
	.cfi_endproc
.LFE11:
	.size	_ZN3ram5writeEhc, .-_ZN3ram5writeEhc
	.section	.text._ZN3ram5writeEjc,"ax",@progbits
.global	_ZN3ram5writeEjc
	.type	_ZN3ram5writeEjc, @function
_ZN3ram5writeEjc:
.LFB12:
	.loc 1 72 0
	.cfi_startproc
.LVL22:
	push r17
.LCFI9:
	.cfi_def_cfa_offset 3
	.cfi_offset 17, -2
	push r28
.LCFI10:
	.cfi_def_cfa_offset 4
	.cfi_offset 28, -3
	push r29
.LCFI11:
	.cfi_def_cfa_offset 5
	.cfi_offset 29, -4
/* prologue: function */
/* frame size = 0 */
/* stack size = 3 */
.L__stack_usage = 3
	movw r28,r24
	mov r17,r20
	.loc 1 73 0
	ldd r24,Y+4
	ldd r25,Y+5
.LVL23:
	call _ZN8shiftreg10shiftout16Ej
.LVL24:
	.loc 1 74 0
	ldd r24,Y+6
	ldd r25,Y+7
	sbiw r24,0
	brne .L7
	.loc 1 76 0
	mov r22,r17
	ldd r24,Y+2
	ldd r25,Y+3
	call _ZN14portcontroller10writeportcEc
.LVL25:
	rjmp .L8
.L7:
	.loc 1 80 0
	mov r22,r17
	call _ZN8shiftreg9shiftout8Eh
.LVL26:
.L8:
	.loc 1 82 0
	ldi r20,0
	ldd r22,Y+1
	ldd r24,Y+2
	ldd r25,Y+3
	call _ZN14portcontroller12digitalwriteEhb
.LVL27:
.LBB11:
.LBB12:
	.loc 2 187 0
	ldi r24,lo8(249)
	ldi r25,hi8(249)
1:	sbiw r24,1
	brne 1b
	rjmp .
	nop
.LVL28:
.LBE12:
.LBE11:
	.loc 1 84 0
	ldi r20,lo8(1)
	ldd r22,Y+1
	ldd r24,Y+2
	ldd r25,Y+3
	call _ZN14portcontroller12digitalwriteEhb
.LVL29:
/* epilogue start */
	.loc 1 85 0
	pop r29
	pop r28
.LVL30:
	pop r17
.LVL31:
	ret
	.cfi_endproc
.LFE12:
	.size	_ZN3ram5writeEjc, .-_ZN3ram5writeEjc
	.section	.text._ZN3ram5writeEyc,"ax",@progbits
.global	_ZN3ram5writeEyc
	.type	_ZN3ram5writeEyc, @function
_ZN3ram5writeEyc:
.LFB13:
	.loc 1 87 0
	.cfi_startproc
.LVL32:
	push r14
.LCFI12:
	.cfi_def_cfa_offset 3
	.cfi_offset 14, -2
	push r16
.LCFI13:
	.cfi_def_cfa_offset 4
	.cfi_offset 16, -3
	push r17
.LCFI14:
	.cfi_def_cfa_offset 5
	.cfi_offset 17, -4
	push r28
.LCFI15:
	.cfi_def_cfa_offset 6
	.cfi_offset 28, -5
	push r29
.LCFI16:
	.cfi_def_cfa_offset 7
	.cfi_offset 29, -6
/* prologue: function */
/* frame size = 0 */
/* stack size = 5 */
.L__stack_usage = 5
	movw r28,r24
	.loc 1 88 0
	ldd r24,Y+4
	ldd r25,Y+5
.LVL33:
	call _ZN8shiftreg10shiftout64Ey
.LVL34:
	.loc 1 89 0
	ldd r24,Y+6
	ldd r25,Y+7
	sbiw r24,0
	brne .L10
	.loc 1 91 0
	mov r22,r14
	ldd r24,Y+2
	ldd r25,Y+3
	call _ZN14portcontroller10writeportcEc
.LVL35:
	rjmp .L11
.L10:
	.loc 1 95 0
	mov r22,r14
	call _ZN8shiftreg9shiftout8Eh
.LVL36:
.L11:
	.loc 1 97 0
	ldi r20,0
	ldd r22,Y+1
	ldd r24,Y+2
	ldd r25,Y+3
	call _ZN14portcontroller12digitalwriteEhb
.LVL37:
.LBB13:
.LBB14:
	.loc 2 187 0
	ldi r24,lo8(249)
	ldi r25,hi8(249)
1:	sbiw r24,1
	brne 1b
	rjmp .
	nop
.LVL38:
.LBE14:
.LBE13:
	.loc 1 99 0
	ldi r20,lo8(1)
	ldd r22,Y+1
	ldd r24,Y+2
	ldd r25,Y+3
	call _ZN14portcontroller12digitalwriteEhb
.LVL39:
/* epilogue start */
	.loc 1 100 0
	pop r29
	pop r28
.LVL40:
	pop r17
	pop r16
.LVL41:
	pop r14
.LVL42:
	ret
	.cfi_endproc
.LFE13:
	.size	_ZN3ram5writeEyc, .-_ZN3ram5writeEyc
	.section	.text._ZN3ramD2Ev,"ax",@progbits
.global	_ZN3ramD2Ev
	.type	_ZN3ramD2Ev, @function
_ZN3ramD2Ev:
.LFB15:
	.loc 1 113 0
	.cfi_startproc
.LVL43:
/* prologue: function */
/* frame size = 0 */
/* stack size = 0 */
.L__stack_usage = 0
	ret
	.cfi_endproc
.LFE15:
	.size	_ZN3ramD2Ev, .-_ZN3ramD2Ev
.global	_ZN3ramD1Ev
	.set	_ZN3ramD1Ev,_ZN3ramD2Ev
	.text
.Letext0:
	.file 3 "c:\\program files (x86)\\atmel\\studio\\7.0\\toolchain\\avr8\\avr8-gnu-toolchain\\avr\\include\\stdint.h"
	.file 4 "../drivers/mem/volatile/../../io/port controller/portcontroller.h"
	.file 5 "../drivers/mem/volatile/../../io/shift register/shiftreg.h"
	.file 6 "../drivers/mem/volatile/ram.h"