
os.elf:     file format elf32-avr

Sections:
Idx Name          Size      VMA       LMA       File off  Algn
  0 .data         00000000  00800100  00800100  00002896  2**0
                  CONTENTS, ALLOC, LOAD, DATA
  1 .text         00002822  00000000  00000000  00000074  2**1
                  CONTENTS, ALLOC, LOAD, READONLY, CODE
  2 .bss          00000151  00800100  00800100  00002896  2**0
                  ALLOC
  3 .comment      00000030  00000000  00000000  00002896  2**0
                  CONTENTS, READONLY
  4 .note.gnu.avr.deviceinfo 00000040  00000000  00000000  000028c8  2**2
                  CONTENTS, READONLY
  5 .debug_aranges 00000520  00000000  00000000  00002908  2**0
                  CONTENTS, READONLY, DEBUGGING
  6 .debug_info   0000a7b5  00000000  00000000  00002e28  2**0
                  CONTENTS, READONLY, DEBUGGING
  7 .debug_abbrev 000017e1  00000000  00000000  0000d5dd  2**0
                  CONTENTS, READONLY, DEBUGGING
  8 .debug_line   00002b76  00000000  00000000  0000edbe  2**0
                  CONTENTS, READONLY, DEBUGGING
  9 .debug_frame  00000eb8  00000000  00000000  00011934  2**2
                  CONTENTS, READONLY, DEBUGGING
 10 .debug_str    00001ce9  00000000  00000000  000127ec  2**0
                  CONTENTS, READONLY, DEBUGGING
 11 .debug_loc    000053b3  00000000  00000000  000144d5  2**0
                  CONTENTS, READONLY, DEBUGGING
 12 .debug_ranges 000004f8  00000000  00000000  00019888  2**0
                  CONTENTS, READONLY, DEBUGGING

Disassembly of section .text:

00000000 <__vectors>:
       0:	0c 94 40 00 	jmp	0x80	; 0x80 <__dtors_end>
       4:	0c 94 5d 00 	jmp	0xba	; 0xba <__bad_interrupt>
       8:	0c 94 5d 00 	jmp	0xba	; 0xba <__bad_interrupt>
       c:	0c 94 5d 00 	jmp	0xba	; 0xba <__bad_interrupt>
      10:	0c 94 5d 00 	jmp	0xba	; 0xba <__bad_interrupt>
      14:	0c 94 5d 00 	jmp	0xba	; 0xba <__bad_interrupt>
      18:	0c 94 5d 00 	jmp	0xba	; 0xba <__bad_interrupt>
      1c:	0c 94 5d 00 	jmp	0xba	; 0xba <__bad_interrupt>
      20:	0c 94 5d 00 	jmp	0xba	; 0xba <__bad_interrupt>
      24:	0c 94 5d 00 	jmp	0xba	; 0xba <__bad_interrupt>
      28:	0c 94 5d 00 	jmp	0xba	; 0xba <__bad_interrupt>
      2c:	0c 94 5d 00 	jmp	0xba	; 0xba <__bad_interrupt>
      30:	0c 94 5d 00 	jmp	0xba	; 0xba <__bad_interrupt>
      34:	0c 94 5d 00 	jmp	0xba	; 0xba <__bad_interrupt>
      38:	0c 94 5d 00 	jmp	0xba	; 0xba <__bad_interrupt>
      3c:	0c 94 5d 00 	jmp	0xba	; 0xba <__bad_interrupt>
      40:	0c 94 5d 00 	jmp	0xba	; 0xba <__bad_interrupt>
      44:	0c 94 5d 00 	jmp	0xba	; 0xba <__bad_interrupt>
      48:	0c 94 5d 00 	jmp	0xba	; 0xba <__bad_interrupt>
      4c:	0c 94 5d 00 	jmp	0xba	; 0xba <__bad_interrupt>
      50:	0c 94 5d 00 	jmp	0xba	; 0xba <__bad_interrupt>
      54:	0c 94 5d 00 	jmp	0xba	; 0xba <__bad_interrupt>
      58:	0c 94 5d 00 	jmp	0xba	; 0xba <__bad_interrupt>
      5c:	0c 94 5d 00 	jmp	0xba	; 0xba <__bad_interrupt>
      60:	0c 94 5d 00 	jmp	0xba	; 0xba <__bad_interrupt>
      64:	0c 94 5d 00 	jmp	0xba	; 0xba <__bad_interrupt>
      68:	0c 94 5d 00 	jmp	0xba	; 0xba <__bad_interrupt>
      6c:	0c 94 5d 00 	jmp	0xba	; 0xba <__bad_interrupt>
      70:	0c 94 5d 00 	jmp	0xba	; 0xba <__bad_interrupt>
      74:	0c 94 5d 00 	jmp	0xba	; 0xba <__bad_interrupt>
      78:	0c 94 5d 00 	jmp	0xba	; 0xba <__bad_interrupt>

0000007c <__ctors_start>:
      7c:	e4 13       	cpse	r30, r20

0000007e <__ctors_end>:
      7e:	eb 13       	cpse	r30, r27

00000080 <__dtors_end>:
      80:	11 24       	eor	r1, r1
      82:	1f be       	out	0x3f, r1	; 63
      84:	cf ef       	ldi	r28, 0xFF	; 255
      86:	d0 e1       	ldi	r29, 0x10	; 16
      88:	de bf       	out	0x3e, r29	; 62
      8a:	cd bf       	out	0x3d, r28	; 61

0000008c <__do_clear_bss>:
      8c:	22 e0       	ldi	r18, 0x02	; 2
      8e:	a0 e0       	ldi	r26, 0x00	; 0
      90:	b1 e0       	ldi	r27, 0x01	; 1
      92:	01 c0       	rjmp	.+2      	; 0x96 <.do_clear_bss_start>

00000094 <.do_clear_bss_loop>:
      94:	1d 92       	st	X+, r1

00000096 <.do_clear_bss_start>:
      96:	a1 35       	cpi	r26, 0x51	; 81
      98:	b2 07       	cpc	r27, r18
      9a:	e1 f7       	brne	.-8      	; 0x94 <.do_clear_bss_loop>

0000009c <__do_global_ctors>:
      9c:	10 e0       	ldi	r17, 0x00	; 0
      9e:	cf e3       	ldi	r28, 0x3F	; 63
      a0:	d0 e0       	ldi	r29, 0x00	; 0
      a2:	04 c0       	rjmp	.+8      	; 0xac <__do_global_ctors+0x10>
      a4:	21 97       	sbiw	r28, 0x01	; 1
      a6:	fe 01       	movw	r30, r28
      a8:	0e 94 fe 13 	call	0x27fc	; 0x27fc <__tablejump2__>
      ac:	ce 33       	cpi	r28, 0x3E	; 62
      ae:	d1 07       	cpc	r29, r17
      b0:	c9 f7       	brne	.-14     	; 0xa4 <__do_global_ctors+0x8>
      b2:	0e 94 b4 13 	call	0x2768	; 0x2768 <main>
      b6:	0c 94 04 14 	jmp	0x2808	; 0x2808 <__do_global_dtors>

000000ba <__bad_interrupt>:
      ba:	0c 94 00 00 	jmp	0	; 0x0 <__vectors>

000000be <_ZN11interpreterC1Ev>:
{
	ori(reg1,ram->read(addr));
}
void interpreter::notr(uint8_t reg1)
{
	registers[reg1]=~(registers[reg1]);
      be:	0f 93       	push	r16
      c0:	1f 93       	push	r17
      c2:	cf 93       	push	r28
      c4:	df 93       	push	r29
      c6:	fc 01       	movw	r30, r24
      c8:	e1 50       	subi	r30, 0x01	; 1
      ca:	ff 4f       	sbci	r31, 0xFF	; 255
      cc:	ec 01       	movw	r28, r24
      ce:	cd 5f       	subi	r28, 0xFD	; 253
      d0:	de 4f       	sbci	r29, 0xFE	; 254
      d2:	8c 01       	movw	r16, r24
      d4:	09 5f       	subi	r16, 0xF9	; 249
      d6:	1e 4f       	sbci	r17, 0xFE	; 254
      d8:	9c 01       	movw	r18, r24
      da:	2d 5e       	subi	r18, 0xED	; 237
      dc:	3e 4f       	sbci	r19, 0xFE	; 254
      de:	4f ef       	ldi	r20, 0xFF	; 255
      e0:	5f e1       	ldi	r21, 0x1F	; 31
      e2:	d9 01       	movw	r26, r18
      e4:	4d 93       	st	X+, r20
      e6:	5c 93       	st	X, r21
      e8:	28 50       	subi	r18, 0x08	; 8
      ea:	31 09       	sbc	r19, r1
      ec:	d9 01       	movw	r26, r18
      ee:	1d 92       	st	X+, r1
      f0:	1d 92       	st	X+, r1
      f2:	1d 92       	st	X+, r1
      f4:	1c 92       	st	X, r1
      f6:	13 97       	sbiw	r26, 0x03	; 3
      f8:	ac 01       	movw	r20, r24
      fa:	42 50       	subi	r20, 0x02	; 2
      fc:	5f 4f       	sbci	r21, 0xFF	; 255
      fe:	bf 01       	movw	r22, r30
     100:	d8 01       	movw	r26, r16
     102:	4d 93       	st	X+, r20
     104:	5d 93       	st	X+, r21
     106:	6d 93       	st	X+, r22
     108:	7c 93       	st	X, r23
     10a:	13 97       	sbiw	r26, 0x03	; 3
     10c:	ac 01       	movw	r20, r24
     10e:	44 50       	subi	r20, 0x04	; 4
     110:	5f 4f       	sbci	r21, 0xFF	; 255
     112:	bc 01       	movw	r22, r24
     114:	63 50       	subi	r22, 0x03	; 3
     116:	7f 4f       	sbci	r23, 0xFF	; 255
     118:	48 83       	st	Y, r20
     11a:	59 83       	std	Y+1, r21	; 0x01
     11c:	6a 83       	std	Y+2, r22	; 0x02
     11e:	7b 83       	std	Y+3, r23	; 0x03
     120:	ac 01       	movw	r20, r24
     122:	46 50       	subi	r20, 0x06	; 6
     124:	5f 4f       	sbci	r21, 0xFF	; 255
     126:	bc 01       	movw	r22, r24
     128:	65 50       	subi	r22, 0x05	; 5
     12a:	7f 4f       	sbci	r23, 0xFF	; 255
     12c:	40 83       	st	Z, r20
     12e:	51 83       	std	Z+1, r21	; 0x01
     130:	62 83       	std	Z+2, r22	; 0x02
     132:	73 83       	std	Z+3, r23	; 0x03
     134:	26 5f       	subi	r18, 0xF6	; 246
     136:	3f 4f       	sbci	r19, 0xFF	; 255
     138:	d9 01       	movw	r26, r18
     13a:	ed 93       	st	X+, r30
     13c:	fc 93       	st	X, r31
     13e:	78 96       	adiw	r30, 0x18	; 24
     140:	d1 83       	std	Z+1, r29	; 0x01
     142:	c0 83       	st	Z, r28
     144:	32 96       	adiw	r30, 0x02	; 2
     146:	11 83       	std	Z+1, r17	; 0x01
     148:	00 83       	st	Z, r16
     14a:	df 91       	pop	r29
     14c:	cf 91       	pop	r28
     14e:	1f 91       	pop	r17
     150:	0f 91       	pop	r16
     152:	08 95       	ret

00000154 <_ZN11interpreter3incEh>:
     154:	fc 01       	movw	r30, r24
     156:	e6 0f       	add	r30, r22
     158:	f1 1d       	adc	r31, r1
     15a:	90 81       	ld	r25, Z
     15c:	9f 5f       	subi	r25, 0xFF	; 255
     15e:	90 83       	st	Z, r25
     160:	08 95       	ret

00000162 <_ZN11interpreter3incEm>:
     162:	cf 92       	push	r12
     164:	df 92       	push	r13
     166:	ef 92       	push	r14
     168:	ff 92       	push	r15
     16a:	cf 93       	push	r28
     16c:	df 93       	push	r29
     16e:	6a 01       	movw	r12, r20
     170:	7b 01       	movw	r14, r22
     172:	ec 01       	movw	r28, r24
     174:	c1 5f       	subi	r28, 0xF1	; 241
     176:	de 4f       	sbci	r29, 0xFE	; 254
     178:	88 81       	ld	r24, Y
     17a:	99 81       	ldd	r25, Y+1	; 0x01
     17c:	0e 94 4f 12 	call	0x249e	; 0x249e <_ZN6memory4readEm>
     180:	21 e0       	ldi	r18, 0x01	; 1
     182:	28 0f       	add	r18, r24
     184:	b7 01       	movw	r22, r14
     186:	a6 01       	movw	r20, r12
     188:	88 81       	ld	r24, Y
     18a:	99 81       	ldd	r25, Y+1	; 0x01
     18c:	0e 94 31 12 	call	0x2462	; 0x2462 <_ZN6memory5writeEmh>
     190:	df 91       	pop	r29
     192:	cf 91       	pop	r28
     194:	ff 90       	pop	r15
     196:	ef 90       	pop	r14
     198:	df 90       	pop	r13
     19a:	cf 90       	pop	r12
     19c:	08 95       	ret

0000019e <_ZN11interpreter3decEh>:
     19e:	fc 01       	movw	r30, r24
     1a0:	e6 0f       	add	r30, r22
     1a2:	f1 1d       	adc	r31, r1
     1a4:	90 81       	ld	r25, Z
     1a6:	91 50       	subi	r25, 0x01	; 1
     1a8:	90 83       	st	Z, r25
     1aa:	08 95       	ret

000001ac <_ZN11interpreter3decEm>:
     1ac:	cf 92       	push	r12
     1ae:	df 92       	push	r13
     1b0:	ef 92       	push	r14
     1b2:	ff 92       	push	r15
     1b4:	cf 93       	push	r28
     1b6:	df 93       	push	r29
     1b8:	6a 01       	movw	r12, r20
     1ba:	7b 01       	movw	r14, r22
     1bc:	ec 01       	movw	r28, r24
     1be:	c1 5f       	subi	r28, 0xF1	; 241
     1c0:	de 4f       	sbci	r29, 0xFE	; 254
     1c2:	88 81       	ld	r24, Y
     1c4:	99 81       	ldd	r25, Y+1	; 0x01
     1c6:	0e 94 4f 12 	call	0x249e	; 0x249e <_ZN6memory4readEm>
     1ca:	2f ef       	ldi	r18, 0xFF	; 255
     1cc:	28 0f       	add	r18, r24
     1ce:	b7 01       	movw	r22, r14
     1d0:	a6 01       	movw	r20, r12
     1d2:	88 81       	ld	r24, Y
     1d4:	99 81       	ldd	r25, Y+1	; 0x01
     1d6:	0e 94 31 12 	call	0x2462	; 0x2462 <_ZN6memory5writeEmh>
     1da:	df 91       	pop	r29
     1dc:	cf 91       	pop	r28
     1de:	ff 90       	pop	r15
     1e0:	ef 90       	pop	r14
     1e2:	df 90       	pop	r13
     1e4:	cf 90       	pop	r12
     1e6:	08 95       	ret

000001e8 <_ZN11interpreter3movEhh>:
     1e8:	fc 01       	movw	r30, r24
     1ea:	e4 0f       	add	r30, r20
     1ec:	f1 1d       	adc	r31, r1
     1ee:	20 81       	ld	r18, Z
     1f0:	fc 01       	movw	r30, r24
     1f2:	e6 0f       	add	r30, r22
     1f4:	f1 1d       	adc	r31, r1
     1f6:	20 83       	st	Z, r18
     1f8:	08 95       	ret

000001fa <_ZN11interpreter2ldEhm>:
     1fa:	0f 93       	push	r16
     1fc:	1f 93       	push	r17
     1fe:	cf 93       	push	r28
     200:	df 93       	push	r29
     202:	8c 01       	movw	r16, r24
     204:	c6 2f       	mov	r28, r22
     206:	d0 e0       	ldi	r29, 0x00	; 0
     208:	fc 01       	movw	r30, r24
     20a:	e1 5f       	subi	r30, 0xF1	; 241
     20c:	fe 4f       	sbci	r31, 0xFE	; 254
     20e:	ba 01       	movw	r22, r20
     210:	a9 01       	movw	r20, r18
     212:	80 81       	ld	r24, Z
     214:	91 81       	ldd	r25, Z+1	; 0x01
     216:	0e 94 4f 12 	call	0x249e	; 0x249e <_ZN6memory4readEm>
     21a:	c0 0f       	add	r28, r16
     21c:	d1 1f       	adc	r29, r17
     21e:	88 83       	st	Y, r24
     220:	df 91       	pop	r29
     222:	cf 91       	pop	r28
     224:	1f 91       	pop	r17
     226:	0f 91       	pop	r16
     228:	08 95       	ret

0000022a <_ZN11interpreter3ldiEhh>:
     22a:	86 0f       	add	r24, r22
     22c:	91 1d       	adc	r25, r1
     22e:	fc 01       	movw	r30, r24
     230:	40 83       	st	Z, r20
     232:	08 95       	ret

00000234 <_ZN11interpreter3ldxEh>:
     234:	fc 01       	movw	r30, r24
     236:	e1 50       	subi	r30, 0x01	; 1
     238:	ff 4f       	sbci	r31, 0xFF	; 255
     23a:	a2 81       	ldd	r26, Z+2	; 0x02
     23c:	b3 81       	ldd	r27, Z+3	; 0x03
     23e:	2c 91       	ld	r18, X
     240:	30 e0       	ldi	r19, 0x00	; 0
     242:	32 2f       	mov	r19, r18
     244:	22 27       	eor	r18, r18
     246:	01 90       	ld	r0, Z+
     248:	f0 81       	ld	r31, Z
     24a:	e0 2d       	mov	r30, r0
     24c:	40 81       	ld	r20, Z
     24e:	24 2b       	or	r18, r20
     250:	03 2e       	mov	r0, r19
     252:	00 0c       	add	r0, r0
     254:	44 0b       	sbc	r20, r20
     256:	55 0b       	sbc	r21, r21
     258:	0e 94 fd 00 	call	0x1fa	; 0x1fa <_ZN11interpreter2ldEhm>
     25c:	08 95       	ret

0000025e <_ZN11interpreter3ldyEh>:
     25e:	fc 01       	movw	r30, r24
     260:	ed 5f       	subi	r30, 0xFD	; 253
     262:	fe 4f       	sbci	r31, 0xFE	; 254
     264:	a2 81       	ldd	r26, Z+2	; 0x02
     266:	b3 81       	ldd	r27, Z+3	; 0x03
     268:	2c 91       	ld	r18, X
     26a:	30 e0       	ldi	r19, 0x00	; 0
     26c:	32 2f       	mov	r19, r18
     26e:	22 27       	eor	r18, r18
     270:	01 90       	ld	r0, Z+
     272:	f0 81       	ld	r31, Z
     274:	e0 2d       	mov	r30, r0
     276:	40 81       	ld	r20, Z
     278:	24 2b       	or	r18, r20
     27a:	03 2e       	mov	r0, r19
     27c:	00 0c       	add	r0, r0
     27e:	44 0b       	sbc	r20, r20
     280:	55 0b       	sbc	r21, r21
     282:	0e 94 fd 00 	call	0x1fa	; 0x1fa <_ZN11interpreter2ldEhm>
     286:	08 95       	ret

00000288 <_ZN11interpreter3ldzEh>:
     288:	fc 01       	movw	r30, r24
     28a:	e9 5f       	subi	r30, 0xF9	; 249
     28c:	fe 4f       	sbci	r31, 0xFE	; 254
     28e:	a2 81       	ldd	r26, Z+2	; 0x02
     290:	b3 81       	ldd	r27, Z+3	; 0x03
     292:	2c 91       	ld	r18, X
     294:	30 e0       	ldi	r19, 0x00	; 0
     296:	32 2f       	mov	r19, r18
     298:	22 27       	eor	r18, r18
     29a:	01 90       	ld	r0, Z+
     29c:	f0 81       	ld	r31, Z
     29e:	e0 2d       	mov	r30, r0
     2a0:	40 81       	ld	r20, Z
     2a2:	24 2b       	or	r18, r20
     2a4:	03 2e       	mov	r0, r19
     2a6:	00 0c       	add	r0, r0
     2a8:	44 0b       	sbc	r20, r20
     2aa:	55 0b       	sbc	r21, r21
     2ac:	0e 94 fd 00 	call	0x1fa	; 0x1fa <_ZN11interpreter2ldEhm>
     2b0:	08 95       	ret

000002b2 <_ZN11interpreter3stxEh>:
     2b2:	fc 01       	movw	r30, r24
     2b4:	e6 0f       	add	r30, r22
     2b6:	f1 1d       	adc	r31, r1
     2b8:	20 81       	ld	r18, Z
     2ba:	fc 01       	movw	r30, r24
     2bc:	ef 5f       	subi	r30, 0xFF	; 255
     2be:	fe 4f       	sbci	r31, 0xFE	; 254
     2c0:	01 90       	ld	r0, Z+
     2c2:	f0 81       	ld	r31, Z
     2c4:	e0 2d       	mov	r30, r0
     2c6:	40 81       	ld	r20, Z
     2c8:	50 e0       	ldi	r21, 0x00	; 0
     2ca:	60 e0       	ldi	r22, 0x00	; 0
     2cc:	70 e0       	ldi	r23, 0x00	; 0
     2ce:	76 2f       	mov	r23, r22
     2d0:	65 2f       	mov	r22, r21
     2d2:	54 2f       	mov	r21, r20
     2d4:	44 27       	eor	r20, r20
     2d6:	fc 01       	movw	r30, r24
     2d8:	e1 50       	subi	r30, 0x01	; 1
     2da:	ff 4f       	sbci	r31, 0xFF	; 255
     2dc:	01 90       	ld	r0, Z+
     2de:	f0 81       	ld	r31, Z
     2e0:	e0 2d       	mov	r30, r0
     2e2:	30 81       	ld	r19, Z
     2e4:	43 2b       	or	r20, r19
     2e6:	fc 01       	movw	r30, r24
     2e8:	e1 5f       	subi	r30, 0xF1	; 241
     2ea:	fe 4f       	sbci	r31, 0xFE	; 254
     2ec:	80 81       	ld	r24, Z
     2ee:	91 81       	ldd	r25, Z+1	; 0x01
     2f0:	0e 94 31 12 	call	0x2462	; 0x2462 <_ZN6memory5writeEmh>
     2f4:	08 95       	ret

000002f6 <_ZN11interpreter3styEh>:
     2f6:	fc 01       	movw	r30, r24
     2f8:	e6 0f       	add	r30, r22
     2fa:	f1 1d       	adc	r31, r1
     2fc:	20 81       	ld	r18, Z
     2fe:	fc 01       	movw	r30, r24
     300:	eb 5f       	subi	r30, 0xFB	; 251
     302:	fe 4f       	sbci	r31, 0xFE	; 254
     304:	01 90       	ld	r0, Z+
     306:	f0 81       	ld	r31, Z
     308:	e0 2d       	mov	r30, r0
     30a:	40 81       	ld	r20, Z
     30c:	50 e0       	ldi	r21, 0x00	; 0
     30e:	60 e0       	ldi	r22, 0x00	; 0
     310:	70 e0       	ldi	r23, 0x00	; 0
     312:	76 2f       	mov	r23, r22
     314:	65 2f       	mov	r22, r21
     316:	54 2f       	mov	r21, r20
     318:	44 27       	eor	r20, r20
     31a:	fc 01       	movw	r30, r24
     31c:	ed 5f       	subi	r30, 0xFD	; 253
     31e:	fe 4f       	sbci	r31, 0xFE	; 254
     320:	01 90       	ld	r0, Z+
     322:	f0 81       	ld	r31, Z
     324:	e0 2d       	mov	r30, r0
     326:	30 81       	ld	r19, Z
     328:	43 2b       	or	r20, r19
     32a:	fc 01       	movw	r30, r24
     32c:	e1 5f       	subi	r30, 0xF1	; 241
     32e:	fe 4f       	sbci	r31, 0xFE	; 254
     330:	80 81       	ld	r24, Z
     332:	91 81       	ldd	r25, Z+1	; 0x01
     334:	0e 94 31 12 	call	0x2462	; 0x2462 <_ZN6memory5writeEmh>
     338:	08 95       	ret

0000033a <_ZN11interpreter3stzEh>:
     33a:	fc 01       	movw	r30, r24
     33c:	e6 0f       	add	r30, r22
     33e:	f1 1d       	adc	r31, r1
     340:	20 81       	ld	r18, Z
     342:	fc 01       	movw	r30, r24
     344:	e7 5f       	subi	r30, 0xF7	; 247
     346:	fe 4f       	sbci	r31, 0xFE	; 254
     348:	01 90       	ld	r0, Z+
     34a:	f0 81       	ld	r31, Z
     34c:	e0 2d       	mov	r30, r0
     34e:	40 81       	ld	r20, Z
     350:	50 e0       	ldi	r21, 0x00	; 0
     352:	60 e0       	ldi	r22, 0x00	; 0
     354:	70 e0       	ldi	r23, 0x00	; 0
     356:	76 2f       	mov	r23, r22
     358:	65 2f       	mov	r22, r21
     35a:	54 2f       	mov	r21, r20
     35c:	44 27       	eor	r20, r20
     35e:	fc 01       	movw	r30, r24
     360:	e9 5f       	subi	r30, 0xF9	; 249
     362:	fe 4f       	sbci	r31, 0xFE	; 254
     364:	01 90       	ld	r0, Z+
     366:	f0 81       	ld	r31, Z
     368:	e0 2d       	mov	r30, r0
     36a:	30 81       	ld	r19, Z
     36c:	43 2b       	or	r20, r19
     36e:	fc 01       	movw	r30, r24
     370:	e1 5f       	subi	r30, 0xF1	; 241
     372:	fe 4f       	sbci	r31, 0xFE	; 254
     374:	80 81       	ld	r24, Z
     376:	91 81       	ldd	r25, Z+1	; 0x01
     378:	0e 94 31 12 	call	0x2462	; 0x2462 <_ZN6memory5writeEmh>
     37c:	08 95       	ret

0000037e <_ZN11interpreter3stdEmh>:
     37e:	81 5f       	subi	r24, 0xF1	; 241
     380:	9e 4f       	sbci	r25, 0xFE	; 254
     382:	fc 01       	movw	r30, r24
     384:	80 81       	ld	r24, Z
     386:	91 81       	ldd	r25, Z+1	; 0x01
     388:	0e 94 31 12 	call	0x2462	; 0x2462 <_ZN6memory5writeEmh>
     38c:	08 95       	ret

0000038e <_ZN11interpreter3svdEmh>:
     38e:	8f 5e       	subi	r24, 0xEF	; 239
     390:	9e 4f       	sbci	r25, 0xFE	; 254
     392:	fc 01       	movw	r30, r24
     394:	80 81       	ld	r24, Z
     396:	91 81       	ldd	r25, Z+1	; 0x01
     398:	0e 94 31 12 	call	0x2462	; 0x2462 <_ZN6memory5writeEmh>
     39c:	08 95       	ret

0000039e <_ZN11interpreter3svxEh>:
     39e:	26 2f       	mov	r18, r22
     3a0:	fc 01       	movw	r30, r24
     3a2:	e1 50       	subi	r30, 0x01	; 1
     3a4:	ff 4f       	sbci	r31, 0xFF	; 255
     3a6:	a2 81       	ldd	r26, Z+2	; 0x02
     3a8:	b3 81       	ldd	r27, Z+3	; 0x03
     3aa:	4c 91       	ld	r20, X
     3ac:	50 e0       	ldi	r21, 0x00	; 0
     3ae:	54 2f       	mov	r21, r20
     3b0:	44 27       	eor	r20, r20
     3b2:	01 90       	ld	r0, Z+
     3b4:	f0 81       	ld	r31, Z
     3b6:	e0 2d       	mov	r30, r0
     3b8:	30 81       	ld	r19, Z
     3ba:	43 2b       	or	r20, r19
     3bc:	05 2e       	mov	r0, r21
     3be:	00 0c       	add	r0, r0
     3c0:	66 0b       	sbc	r22, r22
     3c2:	77 0b       	sbc	r23, r23
     3c4:	fc 01       	movw	r30, r24
     3c6:	ef 5e       	subi	r30, 0xEF	; 239
     3c8:	fe 4f       	sbci	r31, 0xFE	; 254
     3ca:	80 81       	ld	r24, Z
     3cc:	91 81       	ldd	r25, Z+1	; 0x01
     3ce:	0e 94 31 12 	call	0x2462	; 0x2462 <_ZN6memory5writeEmh>
     3d2:	08 95       	ret

000003d4 <_ZN11interpreter3svyEh>:
     3d4:	26 2f       	mov	r18, r22
     3d6:	fc 01       	movw	r30, r24
     3d8:	ed 5f       	subi	r30, 0xFD	; 253
     3da:	fe 4f       	sbci	r31, 0xFE	; 254
     3dc:	a2 81       	ldd	r26, Z+2	; 0x02
     3de:	b3 81       	ldd	r27, Z+3	; 0x03
     3e0:	4c 91       	ld	r20, X
     3e2:	50 e0       	ldi	r21, 0x00	; 0
     3e4:	54 2f       	mov	r21, r20
     3e6:	44 27       	eor	r20, r20
     3e8:	01 90       	ld	r0, Z+
     3ea:	f0 81       	ld	r31, Z
     3ec:	e0 2d       	mov	r30, r0
     3ee:	30 81       	ld	r19, Z
     3f0:	43 2b       	or	r20, r19
     3f2:	05 2e       	mov	r0, r21
     3f4:	00 0c       	add	r0, r0
     3f6:	66 0b       	sbc	r22, r22
     3f8:	77 0b       	sbc	r23, r23
     3fa:	fc 01       	movw	r30, r24
     3fc:	ef 5e       	subi	r30, 0xEF	; 239
     3fe:	fe 4f       	sbci	r31, 0xFE	; 254
     400:	80 81       	ld	r24, Z
     402:	91 81       	ldd	r25, Z+1	; 0x01
     404:	0e 94 31 12 	call	0x2462	; 0x2462 <_ZN6memory5writeEmh>
     408:	08 95       	ret

0000040a <_ZN11interpreter3svzEh>:
     40a:	26 2f       	mov	r18, r22
     40c:	fc 01       	movw	r30, r24
     40e:	e9 5f       	subi	r30, 0xF9	; 249
     410:	fe 4f       	sbci	r31, 0xFE	; 254
     412:	a2 81       	ldd	r26, Z+2	; 0x02
     414:	b3 81       	ldd	r27, Z+3	; 0x03
     416:	4c 91       	ld	r20, X
     418:	50 e0       	ldi	r21, 0x00	; 0
     41a:	54 2f       	mov	r21, r20
     41c:	44 27       	eor	r20, r20
     41e:	01 90       	ld	r0, Z+
     420:	f0 81       	ld	r31, Z
     422:	e0 2d       	mov	r30, r0
     424:	30 81       	ld	r19, Z
     426:	43 2b       	or	r20, r19
     428:	05 2e       	mov	r0, r21
     42a:	00 0c       	add	r0, r0
     42c:	66 0b       	sbc	r22, r22
     42e:	77 0b       	sbc	r23, r23
     430:	fc 01       	movw	r30, r24
     432:	ef 5e       	subi	r30, 0xEF	; 239
     434:	fe 4f       	sbci	r31, 0xFE	; 254
     436:	80 81       	ld	r24, Z
     438:	91 81       	ldd	r25, Z+1	; 0x01
     43a:	0e 94 31 12 	call	0x2462	; 0x2462 <_ZN6memory5writeEmh>
     43e:	08 95       	ret

00000440 <_ZN11interpreter3txsEv>:
     440:	fc 01       	movw	r30, r24
     442:	e1 50       	subi	r30, 0x01	; 1
     444:	ff 4f       	sbci	r31, 0xFF	; 255
     446:	a2 81       	ldd	r26, Z+2	; 0x02
     448:	b3 81       	ldd	r27, Z+3	; 0x03
     44a:	2c 91       	ld	r18, X
     44c:	30 e0       	ldi	r19, 0x00	; 0
     44e:	32 2f       	mov	r19, r18
     450:	22 27       	eor	r18, r18
     452:	01 90       	ld	r0, Z+
     454:	f0 81       	ld	r31, Z
     456:	e0 2d       	mov	r30, r0
     458:	40 81       	ld	r20, Z
     45a:	24 2b       	or	r18, r20
     45c:	fc 01       	movw	r30, r24
     45e:	ed 5e       	subi	r30, 0xED	; 237
     460:	fe 4f       	sbci	r31, 0xFE	; 254
     462:	31 83       	std	Z+1, r19	; 0x01
     464:	20 83       	st	Z, r18
     466:	08 95       	ret

00000468 <_ZN11interpreter3txyEv>:
     468:	fc 01       	movw	r30, r24
     46a:	e1 50       	subi	r30, 0x01	; 1
     46c:	ff 4f       	sbci	r31, 0xFF	; 255
     46e:	a2 81       	ldd	r26, Z+2	; 0x02
     470:	b3 81       	ldd	r27, Z+3	; 0x03
     472:	4c 91       	ld	r20, X
     474:	50 e0       	ldi	r21, 0x00	; 0
     476:	54 2f       	mov	r21, r20
     478:	44 27       	eor	r20, r20
     47a:	01 90       	ld	r0, Z+
     47c:	f0 81       	ld	r31, Z
     47e:	e0 2d       	mov	r30, r0
     480:	20 81       	ld	r18, Z
     482:	42 2b       	or	r20, r18
     484:	05 2e       	mov	r0, r21
     486:	00 0c       	add	r0, r0
     488:	66 0b       	sbc	r22, r22
     48a:	77 0b       	sbc	r23, r23
     48c:	fc 01       	movw	r30, r24
     48e:	ed 5f       	subi	r30, 0xFD	; 253
     490:	fe 4f       	sbci	r31, 0xFE	; 254
     492:	a2 81       	ldd	r26, Z+2	; 0x02
     494:	b3 81       	ldd	r27, Z+3	; 0x03
     496:	5c 93       	st	X, r21
     498:	01 90       	ld	r0, Z+
     49a:	f0 81       	ld	r31, Z
     49c:	e0 2d       	mov	r30, r0
     49e:	40 83       	st	Z, r20
     4a0:	08 95       	ret

000004a2 <_ZN11interpreter3txzEv>:
     4a2:	fc 01       	movw	r30, r24
     4a4:	e1 50       	subi	r30, 0x01	; 1
     4a6:	ff 4f       	sbci	r31, 0xFF	; 255
     4a8:	a2 81       	ldd	r26, Z+2	; 0x02
     4aa:	b3 81       	ldd	r27, Z+3	; 0x03
     4ac:	4c 91       	ld	r20, X
     4ae:	50 e0       	ldi	r21, 0x00	; 0
     4b0:	54 2f       	mov	r21, r20
     4b2:	44 27       	eor	r20, r20
     4b4:	01 90       	ld	r0, Z+
     4b6:	f0 81       	ld	r31, Z
     4b8:	e0 2d       	mov	r30, r0
     4ba:	20 81       	ld	r18, Z
     4bc:	42 2b       	or	r20, r18
     4be:	05 2e       	mov	r0, r21
     4c0:	00 0c       	add	r0, r0
     4c2:	66 0b       	sbc	r22, r22
     4c4:	77 0b       	sbc	r23, r23
     4c6:	fc 01       	movw	r30, r24
     4c8:	e9 5f       	subi	r30, 0xF9	; 249
     4ca:	fe 4f       	sbci	r31, 0xFE	; 254
     4cc:	a2 81       	ldd	r26, Z+2	; 0x02
     4ce:	b3 81       	ldd	r27, Z+3	; 0x03
     4d0:	5c 93       	st	X, r21
     4d2:	01 90       	ld	r0, Z+
     4d4:	f0 81       	ld	r31, Z
     4d6:	e0 2d       	mov	r30, r0
     4d8:	40 83       	st	Z, r20
     4da:	08 95       	ret

000004dc <_ZN11interpreter3tysEv>:
     4dc:	fc 01       	movw	r30, r24
     4de:	ed 5f       	subi	r30, 0xFD	; 253
     4e0:	fe 4f       	sbci	r31, 0xFE	; 254
     4e2:	a2 81       	ldd	r26, Z+2	; 0x02
     4e4:	b3 81       	ldd	r27, Z+3	; 0x03
     4e6:	2c 91       	ld	r18, X
     4e8:	30 e0       	ldi	r19, 0x00	; 0
     4ea:	32 2f       	mov	r19, r18
     4ec:	22 27       	eor	r18, r18
     4ee:	01 90       	ld	r0, Z+
     4f0:	f0 81       	ld	r31, Z
     4f2:	e0 2d       	mov	r30, r0
     4f4:	40 81       	ld	r20, Z
     4f6:	24 2b       	or	r18, r20
     4f8:	fc 01       	movw	r30, r24
     4fa:	ed 5e       	subi	r30, 0xED	; 237
     4fc:	fe 4f       	sbci	r31, 0xFE	; 254
     4fe:	31 83       	std	Z+1, r19	; 0x01
     500:	20 83       	st	Z, r18
     502:	08 95       	ret

00000504 <_ZN11interpreter3tyxEv>:
     504:	fc 01       	movw	r30, r24
     506:	ed 5f       	subi	r30, 0xFD	; 253
     508:	fe 4f       	sbci	r31, 0xFE	; 254
     50a:	a2 81       	ldd	r26, Z+2	; 0x02
     50c:	b3 81       	ldd	r27, Z+3	; 0x03
     50e:	4c 91       	ld	r20, X
     510:	50 e0       	ldi	r21, 0x00	; 0
     512:	54 2f       	mov	r21, r20
     514:	44 27       	eor	r20, r20
     516:	01 90       	ld	r0, Z+
     518:	f0 81       	ld	r31, Z
     51a:	e0 2d       	mov	r30, r0
     51c:	20 81       	ld	r18, Z
     51e:	42 2b       	or	r20, r18
     520:	05 2e       	mov	r0, r21
     522:	00 0c       	add	r0, r0
     524:	66 0b       	sbc	r22, r22
     526:	77 0b       	sbc	r23, r23
     528:	fc 01       	movw	r30, r24
     52a:	e1 50       	subi	r30, 0x01	; 1
     52c:	ff 4f       	sbci	r31, 0xFF	; 255
     52e:	a2 81       	ldd	r26, Z+2	; 0x02
     530:	b3 81       	ldd	r27, Z+3	; 0x03
     532:	5c 93       	st	X, r21
     534:	01 90       	ld	r0, Z+
     536:	f0 81       	ld	r31, Z
     538:	e0 2d       	mov	r30, r0
     53a:	40 83       	st	Z, r20
     53c:	08 95       	ret

0000053e <_ZN11interpreter3tyzEv>:
     53e:	fc 01       	movw	r30, r24
     540:	ed 5f       	subi	r30, 0xFD	; 253
     542:	fe 4f       	sbci	r31, 0xFE	; 254
     544:	a2 81       	ldd	r26, Z+2	; 0x02
     546:	b3 81       	ldd	r27, Z+3	; 0x03
     548:	4c 91       	ld	r20, X
     54a:	50 e0       	ldi	r21, 0x00	; 0
     54c:	54 2f       	mov	r21, r20
     54e:	44 27       	eor	r20, r20
     550:	01 90       	ld	r0, Z+
     552:	f0 81       	ld	r31, Z
     554:	e0 2d       	mov	r30, r0
     556:	20 81       	ld	r18, Z
     558:	42 2b       	or	r20, r18
     55a:	05 2e       	mov	r0, r21
     55c:	00 0c       	add	r0, r0
     55e:	66 0b       	sbc	r22, r22
     560:	77 0b       	sbc	r23, r23
     562:	fc 01       	movw	r30, r24
     564:	e9 5f       	subi	r30, 0xF9	; 249
     566:	fe 4f       	sbci	r31, 0xFE	; 254
     568:	a2 81       	ldd	r26, Z+2	; 0x02
     56a:	b3 81       	ldd	r27, Z+3	; 0x03
     56c:	5c 93       	st	X, r21
     56e:	01 90       	ld	r0, Z+
     570:	f0 81       	ld	r31, Z
     572:	e0 2d       	mov	r30, r0
     574:	40 83       	st	Z, r20
     576:	08 95       	ret

00000578 <_ZN11interpreter3tzsEv>:
     578:	fc 01       	movw	r30, r24
     57a:	e9 5f       	subi	r30, 0xF9	; 249
     57c:	fe 4f       	sbci	r31, 0xFE	; 254
     57e:	a2 81       	ldd	r26, Z+2	; 0x02
     580:	b3 81       	ldd	r27, Z+3	; 0x03
     582:	2c 91       	ld	r18, X
     584:	30 e0       	ldi	r19, 0x00	; 0
     586:	32 2f       	mov	r19, r18
     588:	22 27       	eor	r18, r18
     58a:	01 90       	ld	r0, Z+
     58c:	f0 81       	ld	r31, Z
     58e:	e0 2d       	mov	r30, r0
     590:	40 81       	ld	r20, Z
     592:	24 2b       	or	r18, r20
     594:	fc 01       	movw	r30, r24
     596:	ed 5e       	subi	r30, 0xED	; 237
     598:	fe 4f       	sbci	r31, 0xFE	; 254
     59a:	31 83       	std	Z+1, r19	; 0x01
     59c:	20 83       	st	Z, r18
     59e:	08 95       	ret

000005a0 <_ZN11interpreter3tzxEv>:
     5a0:	fc 01       	movw	r30, r24
     5a2:	e9 5f       	subi	r30, 0xF9	; 249
     5a4:	fe 4f       	sbci	r31, 0xFE	; 254
     5a6:	a2 81       	ldd	r26, Z+2	; 0x02
     5a8:	b3 81       	ldd	r27, Z+3	; 0x03
     5aa:	4c 91       	ld	r20, X
     5ac:	50 e0       	ldi	r21, 0x00	; 0
     5ae:	54 2f       	mov	r21, r20
     5b0:	44 27       	eor	r20, r20
     5b2:	01 90       	ld	r0, Z+
     5b4:	f0 81       	ld	r31, Z
     5b6:	e0 2d       	mov	r30, r0
     5b8:	20 81       	ld	r18, Z
     5ba:	42 2b       	or	r20, r18
     5bc:	05 2e       	mov	r0, r21
     5be:	00 0c       	add	r0, r0
     5c0:	66 0b       	sbc	r22, r22
     5c2:	77 0b       	sbc	r23, r23
     5c4:	fc 01       	movw	r30, r24
     5c6:	e1 50       	subi	r30, 0x01	; 1
     5c8:	ff 4f       	sbci	r31, 0xFF	; 255
     5ca:	a2 81       	ldd	r26, Z+2	; 0x02
     5cc:	b3 81       	ldd	r27, Z+3	; 0x03
     5ce:	5c 93       	st	X, r21
     5d0:	01 90       	ld	r0, Z+
     5d2:	f0 81       	ld	r31, Z
     5d4:	e0 2d       	mov	r30, r0
     5d6:	40 83       	st	Z, r20
     5d8:	08 95       	ret

000005da <_ZN11interpreter3tzyEv>:
     5da:	fc 01       	movw	r30, r24
     5dc:	e9 5f       	subi	r30, 0xF9	; 249
     5de:	fe 4f       	sbci	r31, 0xFE	; 254
     5e0:	a2 81       	ldd	r26, Z+2	; 0x02
     5e2:	b3 81       	ldd	r27, Z+3	; 0x03
     5e4:	4c 91       	ld	r20, X
     5e6:	50 e0       	ldi	r21, 0x00	; 0
     5e8:	54 2f       	mov	r21, r20
     5ea:	44 27       	eor	r20, r20
     5ec:	01 90       	ld	r0, Z+
     5ee:	f0 81       	ld	r31, Z
     5f0:	e0 2d       	mov	r30, r0
     5f2:	20 81       	ld	r18, Z
     5f4:	42 2b       	or	r20, r18
     5f6:	05 2e       	mov	r0, r21
     5f8:	00 0c       	add	r0, r0
     5fa:	66 0b       	sbc	r22, r22
     5fc:	77 0b       	sbc	r23, r23
     5fe:	fc 01       	movw	r30, r24
     600:	ed 5f       	subi	r30, 0xFD	; 253
     602:	fe 4f       	sbci	r31, 0xFE	; 254
     604:	a2 81       	ldd	r26, Z+2	; 0x02
     606:	b3 81       	ldd	r27, Z+3	; 0x03
     608:	5c 93       	st	X, r21
     60a:	01 90       	ld	r0, Z+
     60c:	f0 81       	ld	r31, Z
     60e:	e0 2d       	mov	r30, r0
     610:	40 83       	st	Z, r20
     612:	08 95       	ret

00000614 <_ZN11interpreter3tsxEv>:
     614:	fc 01       	movw	r30, r24
     616:	ed 5e       	subi	r30, 0xED	; 237
     618:	fe 4f       	sbci	r31, 0xFE	; 254
     61a:	20 81       	ld	r18, Z
     61c:	31 81       	ldd	r19, Z+1	; 0x01
     61e:	a9 01       	movw	r20, r18
     620:	74 97       	sbiw	r30, 0x14	; 20
     622:	a2 81       	ldd	r26, Z+2	; 0x02
     624:	b3 81       	ldd	r27, Z+3	; 0x03
     626:	5c 93       	st	X, r21
     628:	01 90       	ld	r0, Z+
     62a:	f0 81       	ld	r31, Z
     62c:	e0 2d       	mov	r30, r0
     62e:	20 83       	st	Z, r18
     630:	08 95       	ret

00000632 <_ZN11interpreter3tsyEv>:
     632:	fc 01       	movw	r30, r24
     634:	ed 5e       	subi	r30, 0xED	; 237
     636:	fe 4f       	sbci	r31, 0xFE	; 254
     638:	20 81       	ld	r18, Z
     63a:	31 81       	ldd	r19, Z+1	; 0x01
     63c:	a9 01       	movw	r20, r18
     63e:	70 97       	sbiw	r30, 0x10	; 16
     640:	a2 81       	ldd	r26, Z+2	; 0x02
     642:	b3 81       	ldd	r27, Z+3	; 0x03
     644:	5c 93       	st	X, r21
     646:	01 90       	ld	r0, Z+
     648:	f0 81       	ld	r31, Z
     64a:	e0 2d       	mov	r30, r0
     64c:	20 83       	st	Z, r18
     64e:	08 95       	ret

00000650 <_ZN11interpreter3tszEv>:
     650:	fc 01       	movw	r30, r24
     652:	ed 5e       	subi	r30, 0xED	; 237
     654:	fe 4f       	sbci	r31, 0xFE	; 254
     656:	20 81       	ld	r18, Z
     658:	31 81       	ldd	r19, Z+1	; 0x01
     65a:	a9 01       	movw	r20, r18
     65c:	3c 97       	sbiw	r30, 0x0c	; 12
     65e:	a2 81       	ldd	r26, Z+2	; 0x02
     660:	b3 81       	ldd	r27, Z+3	; 0x03
     662:	5c 93       	st	X, r21
     664:	01 90       	ld	r0, Z+
     666:	f0 81       	ld	r31, Z
     668:	e0 2d       	mov	r30, r0
     66a:	20 83       	st	Z, r18
     66c:	08 95       	ret

0000066e <_ZN11interpreter3cmpEhh>:
     66e:	64 13       	cpse	r22, r20
     670:	06 c0       	rjmp	.+12     	; 0x67e <_ZN11interpreter3cmpEhh+0x10>
     672:	fc 01       	movw	r30, r24
     674:	e5 5e       	subi	r30, 0xE5	; 229
     676:	fe 4f       	sbci	r31, 0xFE	; 254
     678:	20 81       	ld	r18, Z
     67a:	28 61       	ori	r18, 0x18	; 24
     67c:	20 83       	st	Z, r18
     67e:	46 17       	cp	r20, r22
     680:	30 f4       	brcc	.+12     	; 0x68e <_ZN11interpreter3cmpEhh+0x20>
     682:	fc 01       	movw	r30, r24
     684:	e5 5e       	subi	r30, 0xE5	; 229
     686:	fe 4f       	sbci	r31, 0xFE	; 254
     688:	20 81       	ld	r18, Z
     68a:	22 60       	ori	r18, 0x02	; 2
     68c:	20 83       	st	Z, r18
     68e:	64 17       	cp	r22, r20
     690:	30 f4       	brcc	.+12     	; 0x69e <_ZN11interpreter3cmpEhh+0x30>
     692:	fc 01       	movw	r30, r24
     694:	e5 5e       	subi	r30, 0xE5	; 229
     696:	fe 4f       	sbci	r31, 0xFE	; 254
     698:	80 81       	ld	r24, Z
     69a:	84 60       	ori	r24, 0x04	; 4
     69c:	80 83       	st	Z, r24
     69e:	08 95       	ret

000006a0 <_ZN11interpreter3cpiEhh>:
     6a0:	64 13       	cpse	r22, r20
     6a2:	06 c0       	rjmp	.+12     	; 0x6b0 <_ZN11interpreter3cpiEhh+0x10>
     6a4:	fc 01       	movw	r30, r24
     6a6:	e5 5e       	subi	r30, 0xE5	; 229
     6a8:	fe 4f       	sbci	r31, 0xFE	; 254
     6aa:	20 81       	ld	r18, Z
     6ac:	28 61       	ori	r18, 0x18	; 24
     6ae:	20 83       	st	Z, r18
     6b0:	46 17       	cp	r20, r22
     6b2:	30 f4       	brcc	.+12     	; 0x6c0 <_ZN11interpreter3cpiEhh+0x20>
     6b4:	fc 01       	movw	r30, r24
     6b6:	e5 5e       	subi	r30, 0xE5	; 229
     6b8:	fe 4f       	sbci	r31, 0xFE	; 254
     6ba:	20 81       	ld	r18, Z
     6bc:	22 60       	ori	r18, 0x02	; 2
     6be:	20 83       	st	Z, r18
     6c0:	64 17       	cp	r22, r20
     6c2:	30 f4       	brcc	.+12     	; 0x6d0 <_ZN11interpreter3cpiEhh+0x30>
     6c4:	fc 01       	movw	r30, r24
     6c6:	e5 5e       	subi	r30, 0xE5	; 229
     6c8:	fe 4f       	sbci	r31, 0xFE	; 254
     6ca:	80 81       	ld	r24, Z
     6cc:	84 60       	ori	r24, 0x04	; 4
     6ce:	80 83       	st	Z, r24
     6d0:	08 95       	ret

000006d2 <_ZN11interpreter3cpmEhm>:
     6d2:	1f 93       	push	r17
     6d4:	cf 93       	push	r28
     6d6:	df 93       	push	r29
     6d8:	ec 01       	movw	r28, r24
     6da:	16 2f       	mov	r17, r22
     6dc:	ba 01       	movw	r22, r20
     6de:	a9 01       	movw	r20, r18
     6e0:	fc 01       	movw	r30, r24
     6e2:	e1 5f       	subi	r30, 0xF1	; 241
     6e4:	fe 4f       	sbci	r31, 0xFE	; 254
     6e6:	80 81       	ld	r24, Z
     6e8:	91 81       	ldd	r25, Z+1	; 0x01
     6ea:	0e 94 4f 12 	call	0x249e	; 0x249e <_ZN6memory4readEm>
     6ee:	81 13       	cpse	r24, r17
     6f0:	06 c0       	rjmp	.+12     	; 0x6fe <_ZN11interpreter3cpmEhm+0x2c>
     6f2:	fe 01       	movw	r30, r28
     6f4:	e5 5e       	subi	r30, 0xE5	; 229
     6f6:	fe 4f       	sbci	r31, 0xFE	; 254
     6f8:	90 81       	ld	r25, Z
     6fa:	98 61       	ori	r25, 0x18	; 24
     6fc:	90 83       	st	Z, r25
     6fe:	81 17       	cp	r24, r17
     700:	30 f4       	brcc	.+12     	; 0x70e <_ZN11interpreter3cpmEhm+0x3c>
     702:	fe 01       	movw	r30, r28
     704:	e5 5e       	subi	r30, 0xE5	; 229
     706:	fe 4f       	sbci	r31, 0xFE	; 254
     708:	90 81       	ld	r25, Z
     70a:	92 60       	ori	r25, 0x02	; 2
     70c:	90 83       	st	Z, r25
     70e:	18 17       	cp	r17, r24
     710:	28 f4       	brcc	.+10     	; 0x71c <_ZN11interpreter3cpmEhm+0x4a>
     712:	c5 5e       	subi	r28, 0xE5	; 229
     714:	de 4f       	sbci	r29, 0xFE	; 254
     716:	88 81       	ld	r24, Y
     718:	84 60       	ori	r24, 0x04	; 4
     71a:	88 83       	st	Y, r24
     71c:	df 91       	pop	r29
     71e:	cf 91       	pop	r28
     720:	1f 91       	pop	r17
     722:	08 95       	ret

00000724 <_ZN11interpreter3cpmEmm>:
     724:	8f 92       	push	r8
     726:	9f 92       	push	r9
     728:	af 92       	push	r10
     72a:	bf 92       	push	r11
     72c:	ef 92       	push	r14
     72e:	ff 92       	push	r15
     730:	0f 93       	push	r16
     732:	1f 93       	push	r17
     734:	cf 93       	push	r28
     736:	df 93       	push	r29
     738:	ec 01       	movw	r28, r24
     73a:	48 01       	movw	r8, r16
     73c:	59 01       	movw	r10, r18
     73e:	7c 01       	movw	r14, r24
     740:	81 ef       	ldi	r24, 0xF1	; 241
     742:	e8 1a       	sub	r14, r24
     744:	8e ef       	ldi	r24, 0xFE	; 254
     746:	f8 0a       	sbc	r15, r24
     748:	f7 01       	movw	r30, r14
     74a:	80 81       	ld	r24, Z
     74c:	91 81       	ldd	r25, Z+1	; 0x01
     74e:	0e 94 4f 12 	call	0x249e	; 0x249e <_ZN6memory4readEm>
     752:	18 2f       	mov	r17, r24
     754:	b5 01       	movw	r22, r10
     756:	a4 01       	movw	r20, r8
     758:	f7 01       	movw	r30, r14
     75a:	80 81       	ld	r24, Z
     75c:	91 81       	ldd	r25, Z+1	; 0x01
     75e:	0e 94 4f 12 	call	0x249e	; 0x249e <_ZN6memory4readEm>
     762:	18 13       	cpse	r17, r24
     764:	06 c0       	rjmp	.+12     	; 0x772 <_ZN11interpreter3cpmEmm+0x4e>
     766:	fe 01       	movw	r30, r28
     768:	e5 5e       	subi	r30, 0xE5	; 229
     76a:	fe 4f       	sbci	r31, 0xFE	; 254
     76c:	90 81       	ld	r25, Z
     76e:	98 61       	ori	r25, 0x18	; 24
     770:	90 83       	st	Z, r25
     772:	81 17       	cp	r24, r17
     774:	30 f4       	brcc	.+12     	; 0x782 <_ZN11interpreter3cpmEmm+0x5e>
     776:	fe 01       	movw	r30, r28
     778:	e5 5e       	subi	r30, 0xE5	; 229
     77a:	fe 4f       	sbci	r31, 0xFE	; 254
     77c:	90 81       	ld	r25, Z
     77e:	92 60       	ori	r25, 0x02	; 2
     780:	90 83       	st	Z, r25
     782:	18 17       	cp	r17, r24
     784:	28 f4       	brcc	.+10     	; 0x790 <_ZN11interpreter3cpmEmm+0x6c>
     786:	c5 5e       	subi	r28, 0xE5	; 229
     788:	de 4f       	sbci	r29, 0xFE	; 254
     78a:	88 81       	ld	r24, Y
     78c:	84 60       	ori	r24, 0x04	; 4
     78e:	88 83       	st	Y, r24
     790:	df 91       	pop	r29
     792:	cf 91       	pop	r28
     794:	1f 91       	pop	r17
     796:	0f 91       	pop	r16
     798:	ff 90       	pop	r15
     79a:	ef 90       	pop	r14
     79c:	bf 90       	pop	r11
     79e:	af 90       	pop	r10
     7a0:	9f 90       	pop	r9
     7a2:	8f 90       	pop	r8
     7a4:	08 95       	ret

000007a6 <_ZN11interpreter3rorEh>:
     7a6:	fc 01       	movw	r30, r24
     7a8:	e6 0f       	add	r30, r22
     7aa:	f1 1d       	adc	r31, r1
     7ac:	20 81       	ld	r18, Z
     7ae:	30 e0       	ldi	r19, 0x00	; 0
     7b0:	35 95       	asr	r19
     7b2:	27 95       	ror	r18
     7b4:	20 83       	st	Z, r18
     7b6:	08 95       	ret

000007b8 <_ZN11interpreter3rolEh>:
     7b8:	fc 01       	movw	r30, r24
     7ba:	e6 0f       	add	r30, r22
     7bc:	f1 1d       	adc	r31, r1
     7be:	90 81       	ld	r25, Z
     7c0:	99 0f       	add	r25, r25
     7c2:	90 83       	st	Z, r25
     7c4:	08 95       	ret

000007c6 <_ZN11interpreter3clrEh>:
     7c6:	86 0f       	add	r24, r22
     7c8:	91 1d       	adc	r25, r1
     7ca:	fc 01       	movw	r30, r24
     7cc:	10 82       	st	Z, r1
     7ce:	08 95       	ret

000007d0 <_ZN11interpreter3nopEv>:
     7d0:	00 00       	nop
     7d2:	08 95       	ret

000007d4 <_ZN11interpreter3jmpEm>:
     7d4:	85 5f       	subi	r24, 0xF5	; 245
     7d6:	9e 4f       	sbci	r25, 0xFE	; 254
     7d8:	fc 01       	movw	r30, r24
     7da:	40 83       	st	Z, r20
     7dc:	51 83       	std	Z+1, r21	; 0x01
     7de:	62 83       	std	Z+2, r22	; 0x02
     7e0:	73 83       	std	Z+3, r23	; 0x03
     7e2:	08 95       	ret

000007e4 <_ZN11interpreter4breqEm>:
     7e4:	fc 01       	movw	r30, r24
     7e6:	e5 5e       	subi	r30, 0xE5	; 229
     7e8:	fe 4f       	sbci	r31, 0xFE	; 254
     7ea:	20 81       	ld	r18, Z
     7ec:	30 e0       	ldi	r19, 0x00	; 0
     7ee:	35 95       	asr	r19
     7f0:	27 95       	ror	r18
     7f2:	35 95       	asr	r19
     7f4:	27 95       	ror	r18
     7f6:	35 95       	asr	r19
     7f8:	27 95       	ror	r18
     7fa:	20 fd       	sbrc	r18, 0
     7fc:	0e 94 ea 03 	call	0x7d4	; 0x7d4 <_ZN11interpreter3jmpEm>
     800:	08 95       	ret

00000802 <_ZN11interpreter7breqpcfEm>:
     802:	0f 93       	push	r16
     804:	1f 93       	push	r17
     806:	fc 01       	movw	r30, r24
     808:	e5 5e       	subi	r30, 0xE5	; 229
     80a:	fe 4f       	sbci	r31, 0xFE	; 254
     80c:	20 81       	ld	r18, Z
     80e:	30 e0       	ldi	r19, 0x00	; 0
     810:	35 95       	asr	r19
     812:	27 95       	ror	r18
     814:	35 95       	asr	r19
     816:	27 95       	ror	r18
     818:	35 95       	asr	r19
     81a:	27 95       	ror	r18
     81c:	20 ff       	sbrs	r18, 0
     81e:	0b c0       	rjmp	.+22     	; 0x836 <_ZN11interpreter7breqpcfEm+0x34>
     820:	70 97       	sbiw	r30, 0x10	; 16
     822:	00 81       	ld	r16, Z
     824:	11 81       	ldd	r17, Z+1	; 0x01
     826:	22 81       	ldd	r18, Z+2	; 0x02
     828:	33 81       	ldd	r19, Z+3	; 0x03
     82a:	40 0f       	add	r20, r16
     82c:	51 1f       	adc	r21, r17
     82e:	62 1f       	adc	r22, r18
     830:	73 1f       	adc	r23, r19
     832:	0e 94 ea 03 	call	0x7d4	; 0x7d4 <_ZN11interpreter3jmpEm>
     836:	1f 91       	pop	r17
     838:	0f 91       	pop	r16
     83a:	08 95       	ret

0000083c <_ZN11interpreter7breqpcbEm>:
     83c:	cf 92       	push	r12
     83e:	df 92       	push	r13
     840:	ef 92       	push	r14
     842:	ff 92       	push	r15
     844:	0f 93       	push	r16
     846:	1f 93       	push	r17
     848:	fc 01       	movw	r30, r24
     84a:	e5 5e       	subi	r30, 0xE5	; 229
     84c:	fe 4f       	sbci	r31, 0xFE	; 254
     84e:	20 81       	ld	r18, Z
     850:	30 e0       	ldi	r19, 0x00	; 0
     852:	35 95       	asr	r19
     854:	27 95       	ror	r18
     856:	35 95       	asr	r19
     858:	27 95       	ror	r18
     85a:	35 95       	asr	r19
     85c:	27 95       	ror	r18
     85e:	20 ff       	sbrs	r18, 0
     860:	0f c0       	rjmp	.+30     	; 0x880 <_ZN11interpreter7breqpcbEm+0x44>
     862:	70 97       	sbiw	r30, 0x10	; 16
     864:	00 81       	ld	r16, Z
     866:	11 81       	ldd	r17, Z+1	; 0x01
     868:	22 81       	ldd	r18, Z+2	; 0x02
     86a:	33 81       	ldd	r19, Z+3	; 0x03
     86c:	68 01       	movw	r12, r16
     86e:	79 01       	movw	r14, r18
     870:	c4 1a       	sub	r12, r20
     872:	d5 0a       	sbc	r13, r21
     874:	e6 0a       	sbc	r14, r22
     876:	f7 0a       	sbc	r15, r23
     878:	b7 01       	movw	r22, r14
     87a:	a6 01       	movw	r20, r12
     87c:	0e 94 ea 03 	call	0x7d4	; 0x7d4 <_ZN11interpreter3jmpEm>
     880:	1f 91       	pop	r17
     882:	0f 91       	pop	r16
     884:	ff 90       	pop	r15
     886:	ef 90       	pop	r14
     888:	df 90       	pop	r13
     88a:	cf 90       	pop	r12
     88c:	08 95       	ret

0000088e <_ZN11interpreter4brneEm>:
     88e:	fc 01       	movw	r30, r24
     890:	e5 5e       	subi	r30, 0xE5	; 229
     892:	fe 4f       	sbci	r31, 0xFE	; 254
     894:	20 81       	ld	r18, Z
     896:	30 e0       	ldi	r19, 0x00	; 0
     898:	f9 01       	movw	r30, r18
     89a:	f5 95       	asr	r31
     89c:	e7 95       	ror	r30
     89e:	f5 95       	asr	r31
     8a0:	e7 95       	ror	r30
     8a2:	f5 95       	asr	r31
     8a4:	e7 95       	ror	r30
     8a6:	e0 fd       	sbrc	r30, 0
     8a8:	0d c0       	rjmp	.+26     	; 0x8c4 <_ZN11interpreter4brneEm+0x36>
     8aa:	f9 01       	movw	r30, r18
     8ac:	f5 95       	asr	r31
     8ae:	e7 95       	ror	r30
     8b0:	e0 fd       	sbrc	r30, 0
     8b2:	0a c0       	rjmp	.+20     	; 0x8c8 <_ZN11interpreter4brneEm+0x3a>
     8b4:	35 95       	asr	r19
     8b6:	27 95       	ror	r18
     8b8:	35 95       	asr	r19
     8ba:	27 95       	ror	r18
     8bc:	20 fd       	sbrc	r18, 0
     8be:	06 c0       	rjmp	.+12     	; 0x8cc <_ZN11interpreter4brneEm+0x3e>
     8c0:	20 e0       	ldi	r18, 0x00	; 0
     8c2:	05 c0       	rjmp	.+10     	; 0x8ce <_ZN11interpreter4brneEm+0x40>
     8c4:	20 e0       	ldi	r18, 0x00	; 0
     8c6:	03 c0       	rjmp	.+6      	; 0x8ce <_ZN11interpreter4brneEm+0x40>
     8c8:	21 e0       	ldi	r18, 0x01	; 1
     8ca:	01 c0       	rjmp	.+2      	; 0x8ce <_ZN11interpreter4brneEm+0x40>
     8cc:	21 e0       	ldi	r18, 0x01	; 1
     8ce:	21 11       	cpse	r18, r1
     8d0:	0e 94 ea 03 	call	0x7d4	; 0x7d4 <_ZN11interpreter3jmpEm>
     8d4:	08 95       	ret

000008d6 <_ZN11interpreter7brnepcfEm>:
     8d6:	0f 93       	push	r16
     8d8:	1f 93       	push	r17
     8da:	fc 01       	movw	r30, r24
     8dc:	e5 5e       	subi	r30, 0xE5	; 229
     8de:	fe 4f       	sbci	r31, 0xFE	; 254
     8e0:	20 81       	ld	r18, Z
     8e2:	30 e0       	ldi	r19, 0x00	; 0
     8e4:	f9 01       	movw	r30, r18
     8e6:	f5 95       	asr	r31
     8e8:	e7 95       	ror	r30
     8ea:	f5 95       	asr	r31
     8ec:	e7 95       	ror	r30
     8ee:	f5 95       	asr	r31
     8f0:	e7 95       	ror	r30
     8f2:	e0 fd       	sbrc	r30, 0
     8f4:	0d c0       	rjmp	.+26     	; 0x910 <_ZN11interpreter7brnepcfEm+0x3a>
     8f6:	f9 01       	movw	r30, r18
     8f8:	f5 95       	asr	r31
     8fa:	e7 95       	ror	r30
     8fc:	e0 fd       	sbrc	r30, 0
     8fe:	0a c0       	rjmp	.+20     	; 0x914 <_ZN11interpreter7brnepcfEm+0x3e>
     900:	35 95       	asr	r19
     902:	27 95       	ror	r18
     904:	35 95       	asr	r19
     906:	27 95       	ror	r18
     908:	20 fd       	sbrc	r18, 0
     90a:	06 c0       	rjmp	.+12     	; 0x918 <_ZN11interpreter7brnepcfEm+0x42>
     90c:	20 e0       	ldi	r18, 0x00	; 0
     90e:	05 c0       	rjmp	.+10     	; 0x91a <_ZN11interpreter7brnepcfEm+0x44>
     910:	20 e0       	ldi	r18, 0x00	; 0
     912:	03 c0       	rjmp	.+6      	; 0x91a <_ZN11interpreter7brnepcfEm+0x44>
     914:	21 e0       	ldi	r18, 0x01	; 1
     916:	01 c0       	rjmp	.+2      	; 0x91a <_ZN11interpreter7brnepcfEm+0x44>
     918:	21 e0       	ldi	r18, 0x01	; 1
     91a:	22 23       	and	r18, r18
     91c:	69 f0       	breq	.+26     	; 0x938 <_ZN11interpreter7brnepcfEm+0x62>
     91e:	fc 01       	movw	r30, r24
     920:	e5 5f       	subi	r30, 0xF5	; 245
     922:	fe 4f       	sbci	r31, 0xFE	; 254
     924:	00 81       	ld	r16, Z
     926:	11 81       	ldd	r17, Z+1	; 0x01
     928:	22 81       	ldd	r18, Z+2	; 0x02
     92a:	33 81       	ldd	r19, Z+3	; 0x03
     92c:	40 0f       	add	r20, r16
     92e:	51 1f       	adc	r21, r17
     930:	62 1f       	adc	r22, r18
     932:	73 1f       	adc	r23, r19
     934:	0e 94 ea 03 	call	0x7d4	; 0x7d4 <_ZN11interpreter3jmpEm>
     938:	1f 91       	pop	r17
     93a:	0f 91       	pop	r16
     93c:	08 95       	ret

0000093e <_ZN11interpreter7brnepcbEm>:
     93e:	cf 92       	push	r12
     940:	df 92       	push	r13
     942:	ef 92       	push	r14
     944:	ff 92       	push	r15
     946:	0f 93       	push	r16
     948:	1f 93       	push	r17
     94a:	fc 01       	movw	r30, r24
     94c:	e5 5e       	subi	r30, 0xE5	; 229
     94e:	fe 4f       	sbci	r31, 0xFE	; 254
     950:	20 81       	ld	r18, Z
     952:	30 e0       	ldi	r19, 0x00	; 0
     954:	f9 01       	movw	r30, r18
     956:	f5 95       	asr	r31
     958:	e7 95       	ror	r30
     95a:	f5 95       	asr	r31
     95c:	e7 95       	ror	r30
     95e:	f5 95       	asr	r31
     960:	e7 95       	ror	r30
     962:	e0 fd       	sbrc	r30, 0
     964:	0d c0       	rjmp	.+26     	; 0x980 <_ZN11interpreter7brnepcbEm+0x42>
     966:	f9 01       	movw	r30, r18
     968:	f5 95       	asr	r31
     96a:	e7 95       	ror	r30
     96c:	e0 fd       	sbrc	r30, 0
     96e:	0a c0       	rjmp	.+20     	; 0x984 <_ZN11interpreter7brnepcbEm+0x46>
     970:	35 95       	asr	r19
     972:	27 95       	ror	r18
     974:	35 95       	asr	r19
     976:	27 95       	ror	r18
     978:	20 fd       	sbrc	r18, 0
     97a:	06 c0       	rjmp	.+12     	; 0x988 <_ZN11interpreter7brnepcbEm+0x4a>
     97c:	20 e0       	ldi	r18, 0x00	; 0
     97e:	05 c0       	rjmp	.+10     	; 0x98a <_ZN11interpreter7brnepcbEm+0x4c>
     980:	20 e0       	ldi	r18, 0x00	; 0
     982:	03 c0       	rjmp	.+6      	; 0x98a <_ZN11interpreter7brnepcbEm+0x4c>
     984:	21 e0       	ldi	r18, 0x01	; 1
     986:	01 c0       	rjmp	.+2      	; 0x98a <_ZN11interpreter7brnepcbEm+0x4c>
     988:	21 e0       	ldi	r18, 0x01	; 1
     98a:	22 23       	and	r18, r18
     98c:	89 f0       	breq	.+34     	; 0x9b0 <_ZN11interpreter7brnepcbEm+0x72>
     98e:	fc 01       	movw	r30, r24
     990:	e5 5f       	subi	r30, 0xF5	; 245
     992:	fe 4f       	sbci	r31, 0xFE	; 254
     994:	00 81       	ld	r16, Z
     996:	11 81       	ldd	r17, Z+1	; 0x01
     998:	22 81       	ldd	r18, Z+2	; 0x02
     99a:	33 81       	ldd	r19, Z+3	; 0x03
     99c:	68 01       	movw	r12, r16
     99e:	79 01       	movw	r14, r18
     9a0:	c4 1a       	sub	r12, r20
     9a2:	d5 0a       	sbc	r13, r21
     9a4:	e6 0a       	sbc	r14, r22
     9a6:	f7 0a       	sbc	r15, r23
     9a8:	b7 01       	movw	r22, r14
     9aa:	a6 01       	movw	r20, r12
     9ac:	0e 94 ea 03 	call	0x7d4	; 0x7d4 <_ZN11interpreter3jmpEm>
     9b0:	1f 91       	pop	r17
     9b2:	0f 91       	pop	r16
     9b4:	ff 90       	pop	r15
     9b6:	ef 90       	pop	r14
     9b8:	df 90       	pop	r13
     9ba:	cf 90       	pop	r12
     9bc:	08 95       	ret

000009be <_ZN11interpreter4brgeEm>:
     9be:	fc 01       	movw	r30, r24
     9c0:	e5 5e       	subi	r30, 0xE5	; 229
     9c2:	fe 4f       	sbci	r31, 0xFE	; 254
     9c4:	20 81       	ld	r18, Z
     9c6:	30 e0       	ldi	r19, 0x00	; 0
     9c8:	f9 01       	movw	r30, r18
     9ca:	f5 95       	asr	r31
     9cc:	e7 95       	ror	r30
     9ce:	f5 95       	asr	r31
     9d0:	e7 95       	ror	r30
     9d2:	f5 95       	asr	r31
     9d4:	e7 95       	ror	r30
     9d6:	e0 fd       	sbrc	r30, 0
     9d8:	06 c0       	rjmp	.+12     	; 0x9e6 <_ZN11interpreter4brgeEm+0x28>
     9da:	35 95       	asr	r19
     9dc:	27 95       	ror	r18
     9de:	20 fd       	sbrc	r18, 0
     9e0:	04 c0       	rjmp	.+8      	; 0x9ea <_ZN11interpreter4brgeEm+0x2c>
     9e2:	20 e0       	ldi	r18, 0x00	; 0
     9e4:	03 c0       	rjmp	.+6      	; 0x9ec <_ZN11interpreter4brgeEm+0x2e>
     9e6:	21 e0       	ldi	r18, 0x01	; 1
     9e8:	01 c0       	rjmp	.+2      	; 0x9ec <_ZN11interpreter4brgeEm+0x2e>
     9ea:	21 e0       	ldi	r18, 0x01	; 1
     9ec:	21 11       	cpse	r18, r1
     9ee:	0e 94 ea 03 	call	0x7d4	; 0x7d4 <_ZN11interpreter3jmpEm>
     9f2:	08 95       	ret

000009f4 <_ZN11interpreter7brgepcfEm>:
     9f4:	0f 93       	push	r16
     9f6:	1f 93       	push	r17
     9f8:	fc 01       	movw	r30, r24
     9fa:	e5 5e       	subi	r30, 0xE5	; 229
     9fc:	fe 4f       	sbci	r31, 0xFE	; 254
     9fe:	20 81       	ld	r18, Z
     a00:	30 e0       	ldi	r19, 0x00	; 0
     a02:	f9 01       	movw	r30, r18
     a04:	f5 95       	asr	r31
     a06:	e7 95       	ror	r30
     a08:	f5 95       	asr	r31
     a0a:	e7 95       	ror	r30
     a0c:	f5 95       	asr	r31
     a0e:	e7 95       	ror	r30
     a10:	e0 fd       	sbrc	r30, 0
     a12:	06 c0       	rjmp	.+12     	; 0xa20 <_ZN11interpreter7brgepcfEm+0x2c>
     a14:	35 95       	asr	r19
     a16:	27 95       	ror	r18
     a18:	20 fd       	sbrc	r18, 0
     a1a:	04 c0       	rjmp	.+8      	; 0xa24 <_ZN11interpreter7brgepcfEm+0x30>
     a1c:	20 e0       	ldi	r18, 0x00	; 0
     a1e:	03 c0       	rjmp	.+6      	; 0xa26 <_ZN11interpreter7brgepcfEm+0x32>
     a20:	21 e0       	ldi	r18, 0x01	; 1
     a22:	01 c0       	rjmp	.+2      	; 0xa26 <_ZN11interpreter7brgepcfEm+0x32>
     a24:	21 e0       	ldi	r18, 0x01	; 1
     a26:	22 23       	and	r18, r18
     a28:	69 f0       	breq	.+26     	; 0xa44 <_ZN11interpreter7brgepcfEm+0x50>
     a2a:	fc 01       	movw	r30, r24
     a2c:	e5 5f       	subi	r30, 0xF5	; 245
     a2e:	fe 4f       	sbci	r31, 0xFE	; 254
     a30:	00 81       	ld	r16, Z
     a32:	11 81       	ldd	r17, Z+1	; 0x01
     a34:	22 81       	ldd	r18, Z+2	; 0x02
     a36:	33 81       	ldd	r19, Z+3	; 0x03
     a38:	40 0f       	add	r20, r16
     a3a:	51 1f       	adc	r21, r17
     a3c:	62 1f       	adc	r22, r18
     a3e:	73 1f       	adc	r23, r19
     a40:	0e 94 ea 03 	call	0x7d4	; 0x7d4 <_ZN11interpreter3jmpEm>
     a44:	1f 91       	pop	r17
     a46:	0f 91       	pop	r16
     a48:	08 95       	ret

00000a4a <_ZN11interpreter7brgepcbEm>:
     a4a:	cf 92       	push	r12
     a4c:	df 92       	push	r13
     a4e:	ef 92       	push	r14
     a50:	ff 92       	push	r15
     a52:	0f 93       	push	r16
     a54:	1f 93       	push	r17
     a56:	fc 01       	movw	r30, r24
     a58:	e5 5e       	subi	r30, 0xE5	; 229
     a5a:	fe 4f       	sbci	r31, 0xFE	; 254
     a5c:	20 81       	ld	r18, Z
     a5e:	30 e0       	ldi	r19, 0x00	; 0
     a60:	f9 01       	movw	r30, r18
     a62:	f5 95       	asr	r31
     a64:	e7 95       	ror	r30
     a66:	f5 95       	asr	r31
     a68:	e7 95       	ror	r30
     a6a:	f5 95       	asr	r31
     a6c:	e7 95       	ror	r30
     a6e:	e0 fd       	sbrc	r30, 0
     a70:	06 c0       	rjmp	.+12     	; 0xa7e <_ZN11interpreter7brgepcbEm+0x34>
     a72:	35 95       	asr	r19
     a74:	27 95       	ror	r18
     a76:	20 fd       	sbrc	r18, 0
     a78:	04 c0       	rjmp	.+8      	; 0xa82 <_ZN11interpreter7brgepcbEm+0x38>
     a7a:	20 e0       	ldi	r18, 0x00	; 0
     a7c:	03 c0       	rjmp	.+6      	; 0xa84 <_ZN11interpreter7brgepcbEm+0x3a>
     a7e:	21 e0       	ldi	r18, 0x01	; 1
     a80:	01 c0       	rjmp	.+2      	; 0xa84 <_ZN11interpreter7brgepcbEm+0x3a>
     a82:	21 e0       	ldi	r18, 0x01	; 1
     a84:	22 23       	and	r18, r18
     a86:	89 f0       	breq	.+34     	; 0xaaa <_ZN11interpreter7brgepcbEm+0x60>
     a88:	fc 01       	movw	r30, r24
     a8a:	e5 5f       	subi	r30, 0xF5	; 245
     a8c:	fe 4f       	sbci	r31, 0xFE	; 254
     a8e:	00 81       	ld	r16, Z
     a90:	11 81       	ldd	r17, Z+1	; 0x01
     a92:	22 81       	ldd	r18, Z+2	; 0x02
     a94:	33 81       	ldd	r19, Z+3	; 0x03
     a96:	68 01       	movw	r12, r16
     a98:	79 01       	movw	r14, r18
     a9a:	c4 1a       	sub	r12, r20
     a9c:	d5 0a       	sbc	r13, r21
     a9e:	e6 0a       	sbc	r14, r22
     aa0:	f7 0a       	sbc	r15, r23
     aa2:	b7 01       	movw	r22, r14
     aa4:	a6 01       	movw	r20, r12
     aa6:	0e 94 ea 03 	call	0x7d4	; 0x7d4 <_ZN11interpreter3jmpEm>
     aaa:	1f 91       	pop	r17
     aac:	0f 91       	pop	r16
     aae:	ff 90       	pop	r15
     ab0:	ef 90       	pop	r14
     ab2:	df 90       	pop	r13
     ab4:	cf 90       	pop	r12
     ab6:	08 95       	ret

00000ab8 <_ZN11interpreter4brleEm>:
     ab8:	fc 01       	movw	r30, r24
     aba:	e5 5e       	subi	r30, 0xE5	; 229
     abc:	fe 4f       	sbci	r31, 0xFE	; 254
     abe:	20 81       	ld	r18, Z
     ac0:	30 e0       	ldi	r19, 0x00	; 0
     ac2:	f9 01       	movw	r30, r18
     ac4:	f5 95       	asr	r31
     ac6:	e7 95       	ror	r30
     ac8:	f5 95       	asr	r31
     aca:	e7 95       	ror	r30
     acc:	f5 95       	asr	r31
     ace:	e7 95       	ror	r30
     ad0:	e0 fd       	sbrc	r30, 0
     ad2:	08 c0       	rjmp	.+16     	; 0xae4 <_ZN11interpreter4brleEm+0x2c>
     ad4:	35 95       	asr	r19
     ad6:	27 95       	ror	r18
     ad8:	35 95       	asr	r19
     ada:	27 95       	ror	r18
     adc:	20 fd       	sbrc	r18, 0
     ade:	04 c0       	rjmp	.+8      	; 0xae8 <_ZN11interpreter4brleEm+0x30>
     ae0:	20 e0       	ldi	r18, 0x00	; 0
     ae2:	03 c0       	rjmp	.+6      	; 0xaea <_ZN11interpreter4brleEm+0x32>
     ae4:	21 e0       	ldi	r18, 0x01	; 1
     ae6:	01 c0       	rjmp	.+2      	; 0xaea <_ZN11interpreter4brleEm+0x32>
     ae8:	21 e0       	ldi	r18, 0x01	; 1
     aea:	21 11       	cpse	r18, r1
     aec:	0e 94 ea 03 	call	0x7d4	; 0x7d4 <_ZN11interpreter3jmpEm>
     af0:	08 95       	ret

00000af2 <_ZN11interpreter7brlepcfEm>:
     af2:	0f 93       	push	r16
     af4:	1f 93       	push	r17
     af6:	fc 01       	movw	r30, r24
     af8:	e5 5e       	subi	r30, 0xE5	; 229
     afa:	fe 4f       	sbci	r31, 0xFE	; 254
     afc:	20 81       	ld	r18, Z
     afe:	30 e0       	ldi	r19, 0x00	; 0
     b00:	f9 01       	movw	r30, r18
     b02:	f5 95       	asr	r31
     b04:	e7 95       	ror	r30
     b06:	f5 95       	asr	r31
     b08:	e7 95       	ror	r30
     b0a:	f5 95       	asr	r31
     b0c:	e7 95       	ror	r30
     b0e:	e0 fd       	sbrc	r30, 0
     b10:	08 c0       	rjmp	.+16     	; 0xb22 <_ZN11interpreter7brlepcfEm+0x30>
     b12:	35 95       	asr	r19
     b14:	27 95       	ror	r18
     b16:	35 95       	asr	r19
     b18:	27 95       	ror	r18
     b1a:	20 fd       	sbrc	r18, 0
     b1c:	04 c0       	rjmp	.+8      	; 0xb26 <_ZN11interpreter7brlepcfEm+0x34>
     b1e:	20 e0       	ldi	r18, 0x00	; 0
     b20:	03 c0       	rjmp	.+6      	; 0xb28 <_ZN11interpreter7brlepcfEm+0x36>
     b22:	21 e0       	ldi	r18, 0x01	; 1
     b24:	01 c0       	rjmp	.+2      	; 0xb28 <_ZN11interpreter7brlepcfEm+0x36>
     b26:	21 e0       	ldi	r18, 0x01	; 1
     b28:	22 23       	and	r18, r18
     b2a:	69 f0       	breq	.+26     	; 0xb46 <_ZN11interpreter7brlepcfEm+0x54>
     b2c:	fc 01       	movw	r30, r24
     b2e:	e5 5f       	subi	r30, 0xF5	; 245
     b30:	fe 4f       	sbci	r31, 0xFE	; 254
     b32:	00 81       	ld	r16, Z
     b34:	11 81       	ldd	r17, Z+1	; 0x01
     b36:	22 81       	ldd	r18, Z+2	; 0x02
     b38:	33 81       	ldd	r19, Z+3	; 0x03
     b3a:	40 0f       	add	r20, r16
     b3c:	51 1f       	adc	r21, r17
     b3e:	62 1f       	adc	r22, r18
     b40:	73 1f       	adc	r23, r19
     b42:	0e 94 ea 03 	call	0x7d4	; 0x7d4 <_ZN11interpreter3jmpEm>
     b46:	1f 91       	pop	r17
     b48:	0f 91       	pop	r16
     b4a:	08 95       	ret

00000b4c <_ZN11interpreter7brlepcbEm>:
     b4c:	cf 92       	push	r12
     b4e:	df 92       	push	r13
     b50:	ef 92       	push	r14
     b52:	ff 92       	push	r15
     b54:	0f 93       	push	r16
     b56:	1f 93       	push	r17
     b58:	fc 01       	movw	r30, r24
     b5a:	e5 5e       	subi	r30, 0xE5	; 229
     b5c:	fe 4f       	sbci	r31, 0xFE	; 254
     b5e:	20 81       	ld	r18, Z
     b60:	30 e0       	ldi	r19, 0x00	; 0
     b62:	f9 01       	movw	r30, r18
     b64:	f5 95       	asr	r31
     b66:	e7 95       	ror	r30
     b68:	f5 95       	asr	r31
     b6a:	e7 95       	ror	r30
     b6c:	f5 95       	asr	r31
     b6e:	e7 95       	ror	r30
     b70:	e0 fd       	sbrc	r30, 0
     b72:	08 c0       	rjmp	.+16     	; 0xb84 <_ZN11interpreter7brlepcbEm+0x38>
     b74:	35 95       	asr	r19
     b76:	27 95       	ror	r18
     b78:	35 95       	asr	r19
     b7a:	27 95       	ror	r18
     b7c:	20 fd       	sbrc	r18, 0
     b7e:	04 c0       	rjmp	.+8      	; 0xb88 <_ZN11interpreter7brlepcbEm+0x3c>
     b80:	20 e0       	ldi	r18, 0x00	; 0
     b82:	03 c0       	rjmp	.+6      	; 0xb8a <_ZN11interpreter7brlepcbEm+0x3e>
     b84:	21 e0       	ldi	r18, 0x01	; 1
     b86:	01 c0       	rjmp	.+2      	; 0xb8a <_ZN11interpreter7brlepcbEm+0x3e>
     b88:	21 e0       	ldi	r18, 0x01	; 1
     b8a:	22 23       	and	r18, r18
     b8c:	89 f0       	breq	.+34     	; 0xbb0 <_ZN11interpreter7brlepcbEm+0x64>
     b8e:	fc 01       	movw	r30, r24
     b90:	e5 5f       	subi	r30, 0xF5	; 245
     b92:	fe 4f       	sbci	r31, 0xFE	; 254
     b94:	00 81       	ld	r16, Z
     b96:	11 81       	ldd	r17, Z+1	; 0x01
     b98:	22 81       	ldd	r18, Z+2	; 0x02
     b9a:	33 81       	ldd	r19, Z+3	; 0x03
     b9c:	68 01       	movw	r12, r16
     b9e:	79 01       	movw	r14, r18
     ba0:	c4 1a       	sub	r12, r20
     ba2:	d5 0a       	sbc	r13, r21
     ba4:	e6 0a       	sbc	r14, r22
     ba6:	f7 0a       	sbc	r15, r23
     ba8:	b7 01       	movw	r22, r14
     baa:	a6 01       	movw	r20, r12
     bac:	0e 94 ea 03 	call	0x7d4	; 0x7d4 <_ZN11interpreter3jmpEm>
     bb0:	1f 91       	pop	r17
     bb2:	0f 91       	pop	r16
     bb4:	ff 90       	pop	r15
     bb6:	ef 90       	pop	r14
     bb8:	df 90       	pop	r13
     bba:	cf 90       	pop	r12
     bbc:	08 95       	ret

00000bbe <_ZN11interpreter3brgEm>:
     bbe:	fc 01       	movw	r30, r24
     bc0:	e5 5e       	subi	r30, 0xE5	; 229
     bc2:	fe 4f       	sbci	r31, 0xFE	; 254
     bc4:	20 81       	ld	r18, Z
     bc6:	30 e0       	ldi	r19, 0x00	; 0
     bc8:	f9 01       	movw	r30, r18
     bca:	f5 95       	asr	r31
     bcc:	e7 95       	ror	r30
     bce:	f5 95       	asr	r31
     bd0:	e7 95       	ror	r30
     bd2:	f5 95       	asr	r31
     bd4:	e7 95       	ror	r30
     bd6:	e0 fd       	sbrc	r30, 0
     bd8:	06 c0       	rjmp	.+12     	; 0xbe6 <_ZN11interpreter3brgEm+0x28>
     bda:	35 95       	asr	r19
     bdc:	27 95       	ror	r18
     bde:	20 ff       	sbrs	r18, 0
     be0:	04 c0       	rjmp	.+8      	; 0xbea <_ZN11interpreter3brgEm+0x2c>
     be2:	21 e0       	ldi	r18, 0x01	; 1
     be4:	03 c0       	rjmp	.+6      	; 0xbec <_ZN11interpreter3brgEm+0x2e>
     be6:	20 e0       	ldi	r18, 0x00	; 0
     be8:	01 c0       	rjmp	.+2      	; 0xbec <_ZN11interpreter3brgEm+0x2e>
     bea:	20 e0       	ldi	r18, 0x00	; 0
     bec:	21 11       	cpse	r18, r1
     bee:	0e 94 ea 03 	call	0x7d4	; 0x7d4 <_ZN11interpreter3jmpEm>
     bf2:	08 95       	ret

00000bf4 <_ZN11interpreter6brgpcfEm>:
     bf4:	0f 93       	push	r16
     bf6:	1f 93       	push	r17
     bf8:	fc 01       	movw	r30, r24
     bfa:	e5 5e       	subi	r30, 0xE5	; 229
     bfc:	fe 4f       	sbci	r31, 0xFE	; 254
     bfe:	20 81       	ld	r18, Z
     c00:	30 e0       	ldi	r19, 0x00	; 0
     c02:	f9 01       	movw	r30, r18
     c04:	f5 95       	asr	r31
     c06:	e7 95       	ror	r30
     c08:	f5 95       	asr	r31
     c0a:	e7 95       	ror	r30
     c0c:	f5 95       	asr	r31
     c0e:	e7 95       	ror	r30
     c10:	e0 fd       	sbrc	r30, 0
     c12:	06 c0       	rjmp	.+12     	; 0xc20 <_ZN11interpreter6brgpcfEm+0x2c>
     c14:	35 95       	asr	r19
     c16:	27 95       	ror	r18
     c18:	20 ff       	sbrs	r18, 0
     c1a:	04 c0       	rjmp	.+8      	; 0xc24 <_ZN11interpreter6brgpcfEm+0x30>
     c1c:	21 e0       	ldi	r18, 0x01	; 1
     c1e:	03 c0       	rjmp	.+6      	; 0xc26 <_ZN11interpreter6brgpcfEm+0x32>
     c20:	20 e0       	ldi	r18, 0x00	; 0
     c22:	01 c0       	rjmp	.+2      	; 0xc26 <_ZN11interpreter6brgpcfEm+0x32>
     c24:	20 e0       	ldi	r18, 0x00	; 0
     c26:	22 23       	and	r18, r18
     c28:	69 f0       	breq	.+26     	; 0xc44 <_ZN11interpreter6brgpcfEm+0x50>
     c2a:	fc 01       	movw	r30, r24
     c2c:	e5 5f       	subi	r30, 0xF5	; 245
     c2e:	fe 4f       	sbci	r31, 0xFE	; 254
     c30:	00 81       	ld	r16, Z
     c32:	11 81       	ldd	r17, Z+1	; 0x01
     c34:	22 81       	ldd	r18, Z+2	; 0x02
     c36:	33 81       	ldd	r19, Z+3	; 0x03
     c38:	40 0f       	add	r20, r16
     c3a:	51 1f       	adc	r21, r17
     c3c:	62 1f       	adc	r22, r18
     c3e:	73 1f       	adc	r23, r19
     c40:	0e 94 ea 03 	call	0x7d4	; 0x7d4 <_ZN11interpreter3jmpEm>
     c44:	1f 91       	pop	r17
     c46:	0f 91       	pop	r16
     c48:	08 95       	ret

00000c4a <_ZN11interpreter6brgpcbEm>:
     c4a:	cf 92       	push	r12
     c4c:	df 92       	push	r13
     c4e:	ef 92       	push	r14
     c50:	ff 92       	push	r15
     c52:	0f 93       	push	r16
     c54:	1f 93       	push	r17
     c56:	fc 01       	movw	r30, r24
     c58:	e5 5e       	subi	r30, 0xE5	; 229
     c5a:	fe 4f       	sbci	r31, 0xFE	; 254
     c5c:	20 81       	ld	r18, Z
     c5e:	30 e0       	ldi	r19, 0x00	; 0
     c60:	f9 01       	movw	r30, r18
     c62:	f5 95       	asr	r31
     c64:	e7 95       	ror	r30
     c66:	f5 95       	asr	r31
     c68:	e7 95       	ror	r30
     c6a:	f5 95       	asr	r31
     c6c:	e7 95       	ror	r30
     c6e:	e0 fd       	sbrc	r30, 0
     c70:	06 c0       	rjmp	.+12     	; 0xc7e <_ZN11interpreter6brgpcbEm+0x34>
     c72:	35 95       	asr	r19
     c74:	27 95       	ror	r18
     c76:	20 ff       	sbrs	r18, 0
     c78:	04 c0       	rjmp	.+8      	; 0xc82 <_ZN11interpreter6brgpcbEm+0x38>
     c7a:	21 e0       	ldi	r18, 0x01	; 1
     c7c:	03 c0       	rjmp	.+6      	; 0xc84 <_ZN11interpreter6brgpcbEm+0x3a>
     c7e:	20 e0       	ldi	r18, 0x00	; 0
     c80:	01 c0       	rjmp	.+2      	; 0xc84 <_ZN11interpreter6brgpcbEm+0x3a>
     c82:	20 e0       	ldi	r18, 0x00	; 0
     c84:	22 23       	and	r18, r18
     c86:	89 f0       	breq	.+34     	; 0xcaa <_ZN11interpreter6brgpcbEm+0x60>
     c88:	fc 01       	movw	r30, r24
     c8a:	e5 5f       	subi	r30, 0xF5	; 245
     c8c:	fe 4f       	sbci	r31, 0xFE	; 254
     c8e:	00 81       	ld	r16, Z
     c90:	11 81       	ldd	r17, Z+1	; 0x01
     c92:	22 81       	ldd	r18, Z+2	; 0x02
     c94:	33 81       	ldd	r19, Z+3	; 0x03
     c96:	68 01       	movw	r12, r16
     c98:	79 01       	movw	r14, r18
     c9a:	c4 1a       	sub	r12, r20
     c9c:	d5 0a       	sbc	r13, r21
     c9e:	e6 0a       	sbc	r14, r22
     ca0:	f7 0a       	sbc	r15, r23
     ca2:	b7 01       	movw	r22, r14
     ca4:	a6 01       	movw	r20, r12
     ca6:	0e 94 ea 03 	call	0x7d4	; 0x7d4 <_ZN11interpreter3jmpEm>
     caa:	1f 91       	pop	r17
     cac:	0f 91       	pop	r16
     cae:	ff 90       	pop	r15
     cb0:	ef 90       	pop	r14
     cb2:	df 90       	pop	r13
     cb4:	cf 90       	pop	r12
     cb6:	08 95       	ret

00000cb8 <_ZN11interpreter3brlEm>:
     cb8:	fc 01       	movw	r30, r24
     cba:	e5 5e       	subi	r30, 0xE5	; 229
     cbc:	fe 4f       	sbci	r31, 0xFE	; 254
     cbe:	20 81       	ld	r18, Z
     cc0:	30 e0       	ldi	r19, 0x00	; 0
     cc2:	f9 01       	movw	r30, r18
     cc4:	f5 95       	asr	r31
     cc6:	e7 95       	ror	r30
     cc8:	f5 95       	asr	r31
     cca:	e7 95       	ror	r30
     ccc:	f5 95       	asr	r31
     cce:	e7 95       	ror	r30
     cd0:	e0 fd       	sbrc	r30, 0
     cd2:	08 c0       	rjmp	.+16     	; 0xce4 <_ZN11interpreter3brlEm+0x2c>
     cd4:	35 95       	asr	r19
     cd6:	27 95       	ror	r18
     cd8:	35 95       	asr	r19
     cda:	27 95       	ror	r18
     cdc:	20 ff       	sbrs	r18, 0
     cde:	04 c0       	rjmp	.+8      	; 0xce8 <_ZN11interpreter3brlEm+0x30>
     ce0:	21 e0       	ldi	r18, 0x01	; 1
     ce2:	03 c0       	rjmp	.+6      	; 0xcea <_ZN11interpreter3brlEm+0x32>
     ce4:	20 e0       	ldi	r18, 0x00	; 0
     ce6:	01 c0       	rjmp	.+2      	; 0xcea <_ZN11interpreter3brlEm+0x32>
     ce8:	20 e0       	ldi	r18, 0x00	; 0
     cea:	21 11       	cpse	r18, r1
     cec:	0e 94 ea 03 	call	0x7d4	; 0x7d4 <_ZN11interpreter3jmpEm>
     cf0:	08 95       	ret

00000cf2 <_ZN11interpreter6brlpcfEm>:
     cf2:	0f 93       	push	r16
     cf4:	1f 93       	push	r17
     cf6:	fc 01       	movw	r30, r24
     cf8:	e5 5e       	subi	r30, 0xE5	; 229
     cfa:	fe 4f       	sbci	r31, 0xFE	; 254
     cfc:	20 81       	ld	r18, Z
     cfe:	30 e0       	ldi	r19, 0x00	; 0
     d00:	f9 01       	movw	r30, r18
     d02:	f5 95       	asr	r31
     d04:	e7 95       	ror	r30
     d06:	f5 95       	asr	r31
     d08:	e7 95       	ror	r30
     d0a:	f5 95       	asr	r31
     d0c:	e7 95       	ror	r30
     d0e:	e0 fd       	sbrc	r30, 0
     d10:	08 c0       	rjmp	.+16     	; 0xd22 <_ZN11interpreter6brlpcfEm+0x30>
     d12:	35 95       	asr	r19
     d14:	27 95       	ror	r18
     d16:	35 95       	asr	r19
     d18:	27 95       	ror	r18
     d1a:	20 ff       	sbrs	r18, 0
     d1c:	04 c0       	rjmp	.+8      	; 0xd26 <_ZN11interpreter6brlpcfEm+0x34>
     d1e:	21 e0       	ldi	r18, 0x01	; 1
     d20:	03 c0       	rjmp	.+6      	; 0xd28 <_ZN11interpreter6brlpcfEm+0x36>
     d22:	20 e0       	ldi	r18, 0x00	; 0
     d24:	01 c0       	rjmp	.+2      	; 0xd28 <_ZN11interpreter6brlpcfEm+0x36>
     d26:	20 e0       	ldi	r18, 0x00	; 0
     d28:	22 23       	and	r18, r18
     d2a:	69 f0       	breq	.+26     	; 0xd46 <_ZN11interpreter6brlpcfEm+0x54>
     d2c:	fc 01       	movw	r30, r24
     d2e:	e5 5f       	subi	r30, 0xF5	; 245
     d30:	fe 4f       	sbci	r31, 0xFE	; 254
     d32:	00 81       	ld	r16, Z
     d34:	11 81       	ldd	r17, Z+1	; 0x01
     d36:	22 81       	ldd	r18, Z+2	; 0x02
     d38:	33 81       	ldd	r19, Z+3	; 0x03
     d3a:	40 0f       	add	r20, r16
     d3c:	51 1f       	adc	r21, r17
     d3e:	62 1f       	adc	r22, r18
     d40:	73 1f       	adc	r23, r19
     d42:	0e 94 ea 03 	call	0x7d4	; 0x7d4 <_ZN11interpreter3jmpEm>
     d46:	1f 91       	pop	r17
     d48:	0f 91       	pop	r16
     d4a:	08 95       	ret

00000d4c <_ZN11interpreter6brlpcbEm>:
     d4c:	cf 92       	push	r12
     d4e:	df 92       	push	r13
     d50:	ef 92       	push	r14
     d52:	ff 92       	push	r15
     d54:	0f 93       	push	r16
     d56:	1f 93       	push	r17
     d58:	fc 01       	movw	r30, r24
     d5a:	e5 5e       	subi	r30, 0xE5	; 229
     d5c:	fe 4f       	sbci	r31, 0xFE	; 254
     d5e:	20 81       	ld	r18, Z
     d60:	30 e0       	ldi	r19, 0x00	; 0
     d62:	f9 01       	movw	r30, r18
     d64:	f5 95       	asr	r31
     d66:	e7 95       	ror	r30
     d68:	f5 95       	asr	r31
     d6a:	e7 95       	ror	r30
     d6c:	f5 95       	asr	r31
     d6e:	e7 95       	ror	r30
     d70:	e0 fd       	sbrc	r30, 0
     d72:	08 c0       	rjmp	.+16     	; 0xd84 <_ZN11interpreter6brlpcbEm+0x38>
     d74:	35 95       	asr	r19
     d76:	27 95       	ror	r18
     d78:	35 95       	asr	r19
     d7a:	27 95       	ror	r18
     d7c:	20 ff       	sbrs	r18, 0
     d7e:	04 c0       	rjmp	.+8      	; 0xd88 <_ZN11interpreter6brlpcbEm+0x3c>
     d80:	21 e0       	ldi	r18, 0x01	; 1
     d82:	03 c0       	rjmp	.+6      	; 0xd8a <_ZN11interpreter6brlpcbEm+0x3e>
     d84:	20 e0       	ldi	r18, 0x00	; 0
     d86:	01 c0       	rjmp	.+2      	; 0xd8a <_ZN11interpreter6brlpcbEm+0x3e>
     d88:	20 e0       	ldi	r18, 0x00	; 0
     d8a:	22 23       	and	r18, r18
     d8c:	89 f0       	breq	.+34     	; 0xdb0 <_ZN11interpreter6brlpcbEm+0x64>
     d8e:	fc 01       	movw	r30, r24
     d90:	e5 5f       	subi	r30, 0xF5	; 245
     d92:	fe 4f       	sbci	r31, 0xFE	; 254
     d94:	00 81       	ld	r16, Z
     d96:	11 81       	ldd	r17, Z+1	; 0x01
     d98:	22 81       	ldd	r18, Z+2	; 0x02
     d9a:	33 81       	ldd	r19, Z+3	; 0x03
     d9c:	68 01       	movw	r12, r16
     d9e:	79 01       	movw	r14, r18
     da0:	c4 1a       	sub	r12, r20
     da2:	d5 0a       	sbc	r13, r21
     da4:	e6 0a       	sbc	r14, r22
     da6:	f7 0a       	sbc	r15, r23
     da8:	b7 01       	movw	r22, r14
     daa:	a6 01       	movw	r20, r12
     dac:	0e 94 ea 03 	call	0x7d4	; 0x7d4 <_ZN11interpreter3jmpEm>
     db0:	1f 91       	pop	r17
     db2:	0f 91       	pop	r16
     db4:	ff 90       	pop	r15
     db6:	ef 90       	pop	r14
     db8:	df 90       	pop	r13
     dba:	cf 90       	pop	r12
     dbc:	08 95       	ret

00000dbe <_ZN11interpreter4pushEh>:
     dbe:	cf 93       	push	r28
     dc0:	df 93       	push	r29
     dc2:	fc 01       	movw	r30, r24
     dc4:	e6 0f       	add	r30, r22
     dc6:	f1 1d       	adc	r31, r1
     dc8:	20 81       	ld	r18, Z
     dca:	ec 01       	movw	r28, r24
     dcc:	cd 5e       	subi	r28, 0xED	; 237
     dce:	de 4f       	sbci	r29, 0xFE	; 254
     dd0:	48 81       	ld	r20, Y
     dd2:	59 81       	ldd	r21, Y+1	; 0x01
     dd4:	60 e0       	ldi	r22, 0x00	; 0
     dd6:	70 e0       	ldi	r23, 0x00	; 0
     dd8:	fc 01       	movw	r30, r24
     dda:	e1 5f       	subi	r30, 0xF1	; 241
     ddc:	fe 4f       	sbci	r31, 0xFE	; 254
     dde:	80 81       	ld	r24, Z
     de0:	91 81       	ldd	r25, Z+1	; 0x01
     de2:	0e 94 31 12 	call	0x2462	; 0x2462 <_ZN6memory5writeEmh>
     de6:	88 81       	ld	r24, Y
     de8:	99 81       	ldd	r25, Y+1	; 0x01
     dea:	01 97       	sbiw	r24, 0x01	; 1
     dec:	99 83       	std	Y+1, r25	; 0x01
     dee:	88 83       	st	Y, r24
     df0:	df 91       	pop	r29
     df2:	cf 91       	pop	r28
     df4:	08 95       	ret

00000df6 <_ZN11interpreter4callEm>:
     df6:	cf 92       	push	r12
     df8:	df 92       	push	r13
     dfa:	ef 92       	push	r14
     dfc:	ff 92       	push	r15
     dfe:	cf 93       	push	r28
     e00:	df 93       	push	r29
     e02:	ec 01       	movw	r28, r24
     e04:	6a 01       	movw	r12, r20
     e06:	7b 01       	movw	r14, r22
     e08:	fc 01       	movw	r30, r24
     e0a:	ed 5e       	subi	r30, 0xED	; 237
     e0c:	fe 4f       	sbci	r31, 0xFE	; 254
     e0e:	60 81       	ld	r22, Z
     e10:	0e 94 df 06 	call	0xdbe	; 0xdbe <_ZN11interpreter4pushEh>
     e14:	b7 01       	movw	r22, r14
     e16:	a6 01       	movw	r20, r12
     e18:	ce 01       	movw	r24, r28
     e1a:	0e 94 ea 03 	call	0x7d4	; 0x7d4 <_ZN11interpreter3jmpEm>
     e1e:	df 91       	pop	r29
     e20:	cf 91       	pop	r28
     e22:	ff 90       	pop	r15
     e24:	ef 90       	pop	r14
     e26:	df 90       	pop	r13
     e28:	cf 90       	pop	r12
     e2a:	08 95       	ret

00000e2c <_ZN11interpreter5pushiEh>:
     e2c:	cf 93       	push	r28
     e2e:	df 93       	push	r29
     e30:	26 2f       	mov	r18, r22
     e32:	ec 01       	movw	r28, r24
     e34:	cd 5e       	subi	r28, 0xED	; 237
     e36:	de 4f       	sbci	r29, 0xFE	; 254
     e38:	48 81       	ld	r20, Y
     e3a:	59 81       	ldd	r21, Y+1	; 0x01
     e3c:	60 e0       	ldi	r22, 0x00	; 0
     e3e:	70 e0       	ldi	r23, 0x00	; 0
     e40:	fc 01       	movw	r30, r24
     e42:	e1 5f       	subi	r30, 0xF1	; 241
     e44:	fe 4f       	sbci	r31, 0xFE	; 254
     e46:	80 81       	ld	r24, Z
     e48:	91 81       	ldd	r25, Z+1	; 0x01
     e4a:	0e 94 31 12 	call	0x2462	; 0x2462 <_ZN6memory5writeEmh>
     e4e:	88 81       	ld	r24, Y
     e50:	99 81       	ldd	r25, Y+1	; 0x01
     e52:	01 97       	sbiw	r24, 0x01	; 1
     e54:	99 83       	std	Y+1, r25	; 0x01
     e56:	88 83       	st	Y, r24
     e58:	df 91       	pop	r29
     e5a:	cf 91       	pop	r28
     e5c:	08 95       	ret

00000e5e <_ZN11interpreter3popEv>:
     e5e:	cf 93       	push	r28
     e60:	df 93       	push	r29
     e62:	ec 01       	movw	r28, r24
     e64:	cd 5e       	subi	r28, 0xED	; 237
     e66:	de 4f       	sbci	r29, 0xFE	; 254
     e68:	48 81       	ld	r20, Y
     e6a:	59 81       	ldd	r21, Y+1	; 0x01
     e6c:	60 e0       	ldi	r22, 0x00	; 0
     e6e:	70 e0       	ldi	r23, 0x00	; 0
     e70:	fc 01       	movw	r30, r24
     e72:	e1 5f       	subi	r30, 0xF1	; 241
     e74:	fe 4f       	sbci	r31, 0xFE	; 254
     e76:	80 81       	ld	r24, Z
     e78:	91 81       	ldd	r25, Z+1	; 0x01
     e7a:	0e 94 4f 12 	call	0x249e	; 0x249e <_ZN6memory4readEm>
     e7e:	28 81       	ld	r18, Y
     e80:	39 81       	ldd	r19, Y+1	; 0x01
     e82:	2f 5f       	subi	r18, 0xFF	; 255
     e84:	3f 4f       	sbci	r19, 0xFF	; 255
     e86:	39 83       	std	Y+1, r19	; 0x01
     e88:	28 83       	st	Y, r18
     e8a:	df 91       	pop	r29
     e8c:	cf 91       	pop	r28
     e8e:	08 95       	ret

00000e90 <_ZN11interpreter3popEh>:
     e90:	0f 93       	push	r16
     e92:	1f 93       	push	r17
     e94:	cf 93       	push	r28
     e96:	df 93       	push	r29
     e98:	8c 01       	movw	r16, r24
     e9a:	c6 2f       	mov	r28, r22
     e9c:	d0 e0       	ldi	r29, 0x00	; 0
     e9e:	0e 94 2f 07 	call	0xe5e	; 0xe5e <_ZN11interpreter3popEv>
     ea2:	c0 0f       	add	r28, r16
     ea4:	d1 1f       	adc	r29, r17
     ea6:	88 83       	st	Y, r24
     ea8:	df 91       	pop	r29
     eaa:	cf 91       	pop	r28
     eac:	1f 91       	pop	r17
     eae:	0f 91       	pop	r16
     eb0:	08 95       	ret

00000eb2 <_ZN11interpreter4swapEh>:
     eb2:	fc 01       	movw	r30, r24
     eb4:	e6 0f       	add	r30, r22
     eb6:	f1 1d       	adc	r31, r1
     eb8:	20 81       	ld	r18, Z
     eba:	30 e0       	ldi	r19, 0x00	; 0
     ebc:	c9 01       	movw	r24, r18
     ebe:	82 95       	swap	r24
     ec0:	92 95       	swap	r25
     ec2:	90 7f       	andi	r25, 0xF0	; 240
     ec4:	98 27       	eor	r25, r24
     ec6:	80 7f       	andi	r24, 0xF0	; 240
     ec8:	98 27       	eor	r25, r24
     eca:	35 95       	asr	r19
     ecc:	27 95       	ror	r18
     ece:	35 95       	asr	r19
     ed0:	27 95       	ror	r18
     ed2:	35 95       	asr	r19
     ed4:	27 95       	ror	r18
     ed6:	35 95       	asr	r19
     ed8:	27 95       	ror	r18
     eda:	28 2b       	or	r18, r24
     edc:	20 83       	st	Z, r18
     ede:	08 95       	ret

00000ee0 <_ZN11interpreter7syscallEv>:
     ee0:	fc 01       	movw	r30, r24
     ee2:	80 81       	ld	r24, Z
     ee4:	8f 3f       	cpi	r24, 0xFF	; 255
     ee6:	21 f4       	brne	.+8      	; 0xef0 <_ZN11interpreter7syscallEv+0x10>
     ee8:	8f 3f       	cpi	r24, 0xFF	; 255
     eea:	21 f4       	brne	.+8      	; 0xef4 <_ZN11interpreter7syscallEv+0x14>
     eec:	85 e6       	ldi	r24, 0x65	; 101
     eee:	08 95       	ret
     ef0:	82 e6       	ldi	r24, 0x62	; 98
     ef2:	08 95       	ret
     ef4:	80 e0       	ldi	r24, 0x00	; 0
     ef6:	08 95       	ret

00000ef8 <_ZN11interpreter3clfEv>:
     ef8:	85 5e       	subi	r24, 0xE5	; 229
     efa:	9e 4f       	sbci	r25, 0xFE	; 254
     efc:	fc 01       	movw	r30, r24
     efe:	10 82       	st	Z, r1
     f00:	08 95       	ret

00000f02 <_ZN11interpreter3retEv>:
     f02:	ff 92       	push	r15
     f04:	0f 93       	push	r16
     f06:	1f 93       	push	r17
     f08:	cf 93       	push	r28
     f0a:	df 93       	push	r29
     f0c:	8c 01       	movw	r16, r24
     f0e:	0e 94 2f 07 	call	0xe5e	; 0xe5e <_ZN11interpreter3popEv>
     f12:	f8 2e       	mov	r15, r24
     f14:	c8 01       	movw	r24, r16
     f16:	0e 94 2f 07 	call	0xe5e	; 0xe5e <_ZN11interpreter3popEv>
     f1a:	d8 2f       	mov	r29, r24
     f1c:	c8 01       	movw	r24, r16
     f1e:	0e 94 2f 07 	call	0xe5e	; 0xe5e <_ZN11interpreter3popEv>
     f22:	c8 2f       	mov	r28, r24
     f24:	c8 01       	movw	r24, r16
     f26:	0e 94 2f 07 	call	0xe5e	; 0xe5e <_ZN11interpreter3popEv>
     f2a:	48 2f       	mov	r20, r24
     f2c:	50 e0       	ldi	r21, 0x00	; 0
     f2e:	55 27       	eor	r21, r21
     f30:	44 27       	eor	r20, r20
     f32:	2d 2f       	mov	r18, r29
     f34:	30 e0       	ldi	r19, 0x00	; 0
     f36:	33 27       	eor	r19, r19
     f38:	22 27       	eor	r18, r18
     f3a:	42 2b       	or	r20, r18
     f3c:	53 2b       	or	r21, r19
     f3e:	2c 2f       	mov	r18, r28
     f40:	30 e0       	ldi	r19, 0x00	; 0
     f42:	32 2f       	mov	r19, r18
     f44:	22 27       	eor	r18, r18
     f46:	42 2b       	or	r20, r18
     f48:	53 2b       	or	r21, r19
     f4a:	4f 29       	or	r20, r15
     f4c:	f8 01       	movw	r30, r16
     f4e:	e5 5f       	subi	r30, 0xF5	; 245
     f50:	fe 4f       	sbci	r31, 0xFE	; 254
     f52:	05 2e       	mov	r0, r21
     f54:	00 0c       	add	r0, r0
     f56:	66 0b       	sbc	r22, r22
     f58:	77 0b       	sbc	r23, r23
     f5a:	40 83       	st	Z, r20
     f5c:	51 83       	std	Z+1, r21	; 0x01
     f5e:	62 83       	std	Z+2, r22	; 0x02
     f60:	73 83       	std	Z+3, r23	; 0x03
     f62:	df 91       	pop	r29
     f64:	cf 91       	pop	r28
     f66:	1f 91       	pop	r17
     f68:	0f 91       	pop	r16
     f6a:	ff 90       	pop	r15
     f6c:	08 95       	ret

00000f6e <_ZN11interpreter5andrrEhh>:
     f6e:	fc 01       	movw	r30, r24
     f70:	e6 0f       	add	r30, r22
     f72:	f1 1d       	adc	r31, r1
     f74:	20 81       	ld	r18, Z
     f76:	dc 01       	movw	r26, r24
     f78:	a4 0f       	add	r26, r20
     f7a:	b1 1d       	adc	r27, r1
     f7c:	8c 91       	ld	r24, X
     f7e:	82 23       	and	r24, r18
     f80:	80 83       	st	Z, r24
     f82:	08 95       	ret

00000f84 <_ZN11interpreter4andiEhh>:
     f84:	fc 01       	movw	r30, r24
     f86:	e6 0f       	add	r30, r22
     f88:	f1 1d       	adc	r31, r1
     f8a:	80 81       	ld	r24, Z
     f8c:	48 23       	and	r20, r24
     f8e:	40 83       	st	Z, r20
     f90:	08 95       	ret

00000f92 <_ZN11interpreter5andrmEhm>:
     f92:	1f 93       	push	r17
     f94:	cf 93       	push	r28
     f96:	df 93       	push	r29
     f98:	ec 01       	movw	r28, r24
     f9a:	16 2f       	mov	r17, r22
     f9c:	ba 01       	movw	r22, r20
     f9e:	a9 01       	movw	r20, r18
     fa0:	fc 01       	movw	r30, r24
     fa2:	e1 5f       	subi	r30, 0xF1	; 241
     fa4:	fe 4f       	sbci	r31, 0xFE	; 254
     fa6:	80 81       	ld	r24, Z
     fa8:	91 81       	ldd	r25, Z+1	; 0x01
     faa:	0e 94 4f 12 	call	0x249e	; 0x249e <_ZN6memory4readEm>
     fae:	48 2f       	mov	r20, r24
     fb0:	61 2f       	mov	r22, r17
     fb2:	ce 01       	movw	r24, r28
     fb4:	0e 94 c2 07 	call	0xf84	; 0xf84 <_ZN11interpreter4andiEhh>
     fb8:	df 91       	pop	r29
     fba:	cf 91       	pop	r28
     fbc:	1f 91       	pop	r17
     fbe:	08 95       	ret

00000fc0 <_ZN11interpreter3runEv>:
     fc0:	8f 92       	push	r8
     fc2:	9f 92       	push	r9
     fc4:	af 92       	push	r10
     fc6:	bf 92       	push	r11
     fc8:	cf 92       	push	r12
     fca:	df 92       	push	r13
     fcc:	ef 92       	push	r14
     fce:	ff 92       	push	r15
     fd0:	0f 93       	push	r16
     fd2:	1f 93       	push	r17
     fd4:	cf 93       	push	r28
     fd6:	df 93       	push	r29
     fd8:	ec 01       	movw	r28, r24
     fda:	fe 01       	movw	r30, r28
     fdc:	e5 5f       	subi	r30, 0xF5	; 245
     fde:	fe 4f       	sbci	r31, 0xFE	; 254
     fe0:	40 81       	ld	r20, Z
     fe2:	51 81       	ldd	r21, Z+1	; 0x01
     fe4:	62 81       	ldd	r22, Z+2	; 0x02
     fe6:	73 81       	ldd	r23, Z+3	; 0x03
     fe8:	34 96       	adiw	r30, 0x04	; 4
     fea:	80 81       	ld	r24, Z
     fec:	91 81       	ldd	r25, Z+1	; 0x01
     fee:	0e 94 4f 12 	call	0x249e	; 0x249e <_ZN6memory4readEm>
     ff2:	81 11       	cpse	r24, r1
     ff4:	0d c0       	rjmp	.+26     	; 0x1010 <__DATA_REGION_LENGTH__+0x10>
     ff6:	ce 01       	movw	r24, r28
     ff8:	0e 94 70 07 	call	0xee0	; 0xee0 <_ZN11interpreter7syscallEv>
     ffc:	82 36       	cpi	r24, 0x62	; 98
     ffe:	11 f4       	brne	.+4      	; 0x1004 <__DATA_REGION_LENGTH__+0x4>
    1000:	0c 94 5e 11 	jmp	0x22bc	; 0x22bc <__stack+0x11bd>
    1004:	85 36       	cpi	r24, 0x65	; 101
    1006:	11 f0       	breq	.+4      	; 0x100c <__DATA_REGION_LENGTH__+0xc>
    1008:	0c 94 46 11 	jmp	0x228c	; 0x228c <__stack+0x118d>
    100c:	0c 94 56 11 	jmp	0x22ac	; 0x22ac <__stack+0x11ad>
    1010:	81 30       	cpi	r24, 0x01	; 1
    1012:	f9 f4       	brne	.+62     	; 0x1052 <__DATA_REGION_LENGTH__+0x52>
    1014:	8e 01       	movw	r16, r28
    1016:	05 5f       	subi	r16, 0xF5	; 245
    1018:	1e 4f       	sbci	r17, 0xFE	; 254
    101a:	f8 01       	movw	r30, r16
    101c:	40 81       	ld	r20, Z
    101e:	51 81       	ldd	r21, Z+1	; 0x01
    1020:	62 81       	ldd	r22, Z+2	; 0x02
    1022:	73 81       	ldd	r23, Z+3	; 0x03
    1024:	34 96       	adiw	r30, 0x04	; 4
    1026:	80 81       	ld	r24, Z
    1028:	91 81       	ldd	r25, Z+1	; 0x01
    102a:	0e 94 4f 12 	call	0x249e	; 0x249e <_ZN6memory4readEm>
    102e:	68 2f       	mov	r22, r24
    1030:	ce 01       	movw	r24, r28
    1032:	0e 94 aa 00 	call	0x154	; 0x154 <_ZN11interpreter3incEh>
    1036:	f8 01       	movw	r30, r16
    1038:	80 81       	ld	r24, Z
    103a:	91 81       	ldd	r25, Z+1	; 0x01
    103c:	a2 81       	ldd	r26, Z+2	; 0x02
    103e:	b3 81       	ldd	r27, Z+3	; 0x03
    1040:	01 96       	adiw	r24, 0x01	; 1
    1042:	a1 1d       	adc	r26, r1
    1044:	b1 1d       	adc	r27, r1
    1046:	80 83       	st	Z, r24
    1048:	91 83       	std	Z+1, r25	; 0x01
    104a:	a2 83       	std	Z+2, r26	; 0x02
    104c:	b3 83       	std	Z+3, r27	; 0x03
    104e:	0c 94 46 11 	jmp	0x228c	; 0x228c <__stack+0x118d>
    1052:	82 30       	cpi	r24, 0x02	; 2
    1054:	21 f5       	brne	.+72     	; 0x109e <__DATA_REGION_LENGTH__+0x9e>
    1056:	8e 01       	movw	r16, r28
    1058:	05 5f       	subi	r16, 0xF5	; 245
    105a:	1e 4f       	sbci	r17, 0xFE	; 254
    105c:	f8 01       	movw	r30, r16
    105e:	40 81       	ld	r20, Z
    1060:	51 81       	ldd	r21, Z+1	; 0x01
    1062:	62 81       	ldd	r22, Z+2	; 0x02
    1064:	73 81       	ldd	r23, Z+3	; 0x03
    1066:	4f 5f       	subi	r20, 0xFF	; 255
    1068:	5f 4f       	sbci	r21, 0xFF	; 255
    106a:	6f 4f       	sbci	r22, 0xFF	; 255
    106c:	7f 4f       	sbci	r23, 0xFF	; 255
    106e:	34 96       	adiw	r30, 0x04	; 4
    1070:	80 81       	ld	r24, Z
    1072:	91 81       	ldd	r25, Z+1	; 0x01
    1074:	0e 94 5d 12 	call	0x24ba	; 0x24ba <_ZN6memory6read32Em>
    1078:	ab 01       	movw	r20, r22
    107a:	bc 01       	movw	r22, r24
    107c:	ce 01       	movw	r24, r28
    107e:	0e 94 b1 00 	call	0x162	; 0x162 <_ZN11interpreter3incEm>
    1082:	f8 01       	movw	r30, r16
    1084:	80 81       	ld	r24, Z
    1086:	91 81       	ldd	r25, Z+1	; 0x01
    1088:	a2 81       	ldd	r26, Z+2	; 0x02
    108a:	b3 81       	ldd	r27, Z+3	; 0x03
    108c:	04 96       	adiw	r24, 0x04	; 4
    108e:	a1 1d       	adc	r26, r1
    1090:	b1 1d       	adc	r27, r1
    1092:	80 83       	st	Z, r24
    1094:	91 83       	std	Z+1, r25	; 0x01
    1096:	a2 83       	std	Z+2, r26	; 0x02
    1098:	b3 83       	std	Z+3, r27	; 0x03
    109a:	0c 94 46 11 	jmp	0x228c	; 0x228c <__stack+0x118d>
    109e:	83 30       	cpi	r24, 0x03	; 3
    10a0:	19 f5       	brne	.+70     	; 0x10e8 <__DATA_REGION_LENGTH__+0xe8>
    10a2:	8e 01       	movw	r16, r28
    10a4:	05 5f       	subi	r16, 0xF5	; 245
    10a6:	1e 4f       	sbci	r17, 0xFE	; 254
    10a8:	f8 01       	movw	r30, r16
    10aa:	40 81       	ld	r20, Z
    10ac:	51 81       	ldd	r21, Z+1	; 0x01
    10ae:	62 81       	ldd	r22, Z+2	; 0x02
    10b0:	73 81       	ldd	r23, Z+3	; 0x03
    10b2:	4f 5f       	subi	r20, 0xFF	; 255
    10b4:	5f 4f       	sbci	r21, 0xFF	; 255
    10b6:	6f 4f       	sbci	r22, 0xFF	; 255
    10b8:	7f 4f       	sbci	r23, 0xFF	; 255
    10ba:	34 96       	adiw	r30, 0x04	; 4
    10bc:	80 81       	ld	r24, Z
    10be:	91 81       	ldd	r25, Z+1	; 0x01
    10c0:	0e 94 4f 12 	call	0x249e	; 0x249e <_ZN6memory4readEm>
    10c4:	68 2f       	mov	r22, r24
    10c6:	ce 01       	movw	r24, r28
    10c8:	0e 94 cf 00 	call	0x19e	; 0x19e <_ZN11interpreter3decEh>
    10cc:	f8 01       	movw	r30, r16
    10ce:	80 81       	ld	r24, Z
    10d0:	91 81       	ldd	r25, Z+1	; 0x01
    10d2:	a2 81       	ldd	r26, Z+2	; 0x02
    10d4:	b3 81       	ldd	r27, Z+3	; 0x03
    10d6:	01 96       	adiw	r24, 0x01	; 1
    10d8:	a1 1d       	adc	r26, r1
    10da:	b1 1d       	adc	r27, r1
    10dc:	80 83       	st	Z, r24
    10de:	91 83       	std	Z+1, r25	; 0x01
    10e0:	a2 83       	std	Z+2, r26	; 0x02
    10e2:	b3 83       	std	Z+3, r27	; 0x03
    10e4:	0c 94 46 11 	jmp	0x228c	; 0x228c <__stack+0x118d>
    10e8:	84 30       	cpi	r24, 0x04	; 4
    10ea:	21 f5       	brne	.+72     	; 0x1134 <__stack+0x35>
    10ec:	8e 01       	movw	r16, r28
    10ee:	05 5f       	subi	r16, 0xF5	; 245
    10f0:	1e 4f       	sbci	r17, 0xFE	; 254
    10f2:	f8 01       	movw	r30, r16
    10f4:	40 81       	ld	r20, Z
    10f6:	51 81       	ldd	r21, Z+1	; 0x01
    10f8:	62 81       	ldd	r22, Z+2	; 0x02
    10fa:	73 81       	ldd	r23, Z+3	; 0x03
    10fc:	4f 5f       	subi	r20, 0xFF	; 255
    10fe:	5f 4f       	sbci	r21, 0xFF	; 255
    1100:	6f 4f       	sbci	r22, 0xFF	; 255
    1102:	7f 4f       	sbci	r23, 0xFF	; 255
    1104:	34 96       	adiw	r30, 0x04	; 4
    1106:	80 81       	ld	r24, Z
    1108:	91 81       	ldd	r25, Z+1	; 0x01
    110a:	0e 94 5d 12 	call	0x24ba	; 0x24ba <_ZN6memory6read32Em>
    110e:	ab 01       	movw	r20, r22
    1110:	bc 01       	movw	r22, r24
    1112:	ce 01       	movw	r24, r28
    1114:	0e 94 d6 00 	call	0x1ac	; 0x1ac <_ZN11interpreter3decEm>
    1118:	f8 01       	movw	r30, r16
    111a:	80 81       	ld	r24, Z
    111c:	91 81       	ldd	r25, Z+1	; 0x01
    111e:	a2 81       	ldd	r26, Z+2	; 0x02
    1120:	b3 81       	ldd	r27, Z+3	; 0x03
    1122:	04 96       	adiw	r24, 0x04	; 4
    1124:	a1 1d       	adc	r26, r1
    1126:	b1 1d       	adc	r27, r1
    1128:	80 83       	st	Z, r24
    112a:	91 83       	std	Z+1, r25	; 0x01
    112c:	a2 83       	std	Z+2, r26	; 0x02
    112e:	b3 83       	std	Z+3, r27	; 0x03
    1130:	0c 94 46 11 	jmp	0x228c	; 0x228c <__stack+0x118d>
    1134:	85 30       	cpi	r24, 0x05	; 5
    1136:	c1 f5       	brne	.+112    	; 0x11a8 <__stack+0xa9>
    1138:	8e 01       	movw	r16, r28
    113a:	05 5f       	subi	r16, 0xF5	; 245
    113c:	1e 4f       	sbci	r17, 0xFE	; 254
    113e:	f8 01       	movw	r30, r16
    1140:	40 81       	ld	r20, Z
    1142:	51 81       	ldd	r21, Z+1	; 0x01
    1144:	62 81       	ldd	r22, Z+2	; 0x02
    1146:	73 81       	ldd	r23, Z+3	; 0x03
    1148:	4f 5f       	subi	r20, 0xFF	; 255
    114a:	5f 4f       	sbci	r21, 0xFF	; 255
    114c:	6f 4f       	sbci	r22, 0xFF	; 255
    114e:	7f 4f       	sbci	r23, 0xFF	; 255
    1150:	7e 01       	movw	r14, r28
    1152:	f1 ef       	ldi	r31, 0xF1	; 241
    1154:	ef 1a       	sub	r14, r31
    1156:	fe ef       	ldi	r31, 0xFE	; 254
    1158:	ff 0a       	sbc	r15, r31
    115a:	f7 01       	movw	r30, r14
    115c:	80 81       	ld	r24, Z
    115e:	91 81       	ldd	r25, Z+1	; 0x01
    1160:	0e 94 4f 12 	call	0x249e	; 0x249e <_ZN6memory4readEm>
    1164:	d8 2e       	mov	r13, r24
    1166:	f8 01       	movw	r30, r16
    1168:	40 81       	ld	r20, Z
    116a:	51 81       	ldd	r21, Z+1	; 0x01
    116c:	62 81       	ldd	r22, Z+2	; 0x02
    116e:	73 81       	ldd	r23, Z+3	; 0x03
    1170:	4e 5f       	subi	r20, 0xFE	; 254
    1172:	5f 4f       	sbci	r21, 0xFF	; 255
    1174:	6f 4f       	sbci	r22, 0xFF	; 255
    1176:	7f 4f       	sbci	r23, 0xFF	; 255
    1178:	f7 01       	movw	r30, r14
    117a:	80 81       	ld	r24, Z
    117c:	91 81       	ldd	r25, Z+1	; 0x01
    117e:	0e 94 4f 12 	call	0x249e	; 0x249e <_ZN6memory4readEm>
    1182:	48 2f       	mov	r20, r24
    1184:	6d 2d       	mov	r22, r13
    1186:	ce 01       	movw	r24, r28
    1188:	0e 94 f4 00 	call	0x1e8	; 0x1e8 <_ZN11interpreter3movEhh>
    118c:	f8 01       	movw	r30, r16
    118e:	80 81       	ld	r24, Z
    1190:	91 81       	ldd	r25, Z+1	; 0x01
    1192:	a2 81       	ldd	r26, Z+2	; 0x02
    1194:	b3 81       	ldd	r27, Z+3	; 0x03
    1196:	02 96       	adiw	r24, 0x02	; 2
    1198:	a1 1d       	adc	r26, r1
    119a:	b1 1d       	adc	r27, r1
    119c:	80 83       	st	Z, r24
    119e:	91 83       	std	Z+1, r25	; 0x01
    11a0:	a2 83       	std	Z+2, r26	; 0x02
    11a2:	b3 83       	std	Z+3, r27	; 0x03
    11a4:	0c 94 46 11 	jmp	0x228c	; 0x228c <__stack+0x118d>
    11a8:	86 30       	cpi	r24, 0x06	; 6
    11aa:	c9 f5       	brne	.+114    	; 0x121e <__stack+0x11f>
    11ac:	8e 01       	movw	r16, r28
    11ae:	05 5f       	subi	r16, 0xF5	; 245
    11b0:	1e 4f       	sbci	r17, 0xFE	; 254
    11b2:	f8 01       	movw	r30, r16
    11b4:	40 81       	ld	r20, Z
    11b6:	51 81       	ldd	r21, Z+1	; 0x01
    11b8:	62 81       	ldd	r22, Z+2	; 0x02
    11ba:	73 81       	ldd	r23, Z+3	; 0x03
    11bc:	4f 5f       	subi	r20, 0xFF	; 255
    11be:	5f 4f       	sbci	r21, 0xFF	; 255
    11c0:	6f 4f       	sbci	r22, 0xFF	; 255
    11c2:	7f 4f       	sbci	r23, 0xFF	; 255
    11c4:	7e 01       	movw	r14, r28
    11c6:	f1 ef       	ldi	r31, 0xF1	; 241
    11c8:	ef 1a       	sub	r14, r31
    11ca:	fe ef       	ldi	r31, 0xFE	; 254
    11cc:	ff 0a       	sbc	r15, r31
    11ce:	f7 01       	movw	r30, r14
    11d0:	80 81       	ld	r24, Z
    11d2:	91 81       	ldd	r25, Z+1	; 0x01
    11d4:	0e 94 4f 12 	call	0x249e	; 0x249e <_ZN6memory4readEm>
    11d8:	d8 2e       	mov	r13, r24
    11da:	f8 01       	movw	r30, r16
    11dc:	40 81       	ld	r20, Z
    11de:	51 81       	ldd	r21, Z+1	; 0x01
    11e0:	62 81       	ldd	r22, Z+2	; 0x02
    11e2:	73 81       	ldd	r23, Z+3	; 0x03
    11e4:	4e 5f       	subi	r20, 0xFE	; 254
    11e6:	5f 4f       	sbci	r21, 0xFF	; 255
    11e8:	6f 4f       	sbci	r22, 0xFF	; 255
    11ea:	7f 4f       	sbci	r23, 0xFF	; 255
    11ec:	f7 01       	movw	r30, r14
    11ee:	80 81       	ld	r24, Z
    11f0:	91 81       	ldd	r25, Z+1	; 0x01
    11f2:	0e 94 5d 12 	call	0x24ba	; 0x24ba <_ZN6memory6read32Em>
    11f6:	9b 01       	movw	r18, r22
    11f8:	ac 01       	movw	r20, r24
    11fa:	6d 2d       	mov	r22, r13
    11fc:	ce 01       	movw	r24, r28
    11fe:	0e 94 fd 00 	call	0x1fa	; 0x1fa <_ZN11interpreter2ldEhm>
    1202:	f8 01       	movw	r30, r16
    1204:	80 81       	ld	r24, Z
    1206:	91 81       	ldd	r25, Z+1	; 0x01
    1208:	a2 81       	ldd	r26, Z+2	; 0x02
    120a:	b3 81       	ldd	r27, Z+3	; 0x03
    120c:	05 96       	adiw	r24, 0x05	; 5
    120e:	a1 1d       	adc	r26, r1
    1210:	b1 1d       	adc	r27, r1
    1212:	80 83       	st	Z, r24
    1214:	91 83       	std	Z+1, r25	; 0x01
    1216:	a2 83       	std	Z+2, r26	; 0x02
    1218:	b3 83       	std	Z+3, r27	; 0x03
    121a:	0c 94 46 11 	jmp	0x228c	; 0x228c <__stack+0x118d>
    121e:	87 30       	cpi	r24, 0x07	; 7
    1220:	b9 f5       	brne	.+110    	; 0x1290 <__stack+0x191>
    1222:	8e 01       	movw	r16, r28
    1224:	05 5f       	subi	r16, 0xF5	; 245
    1226:	1e 4f       	sbci	r17, 0xFE	; 254
    1228:	f8 01       	movw	r30, r16
    122a:	40 81       	ld	r20, Z
    122c:	51 81       	ldd	r21, Z+1	; 0x01
    122e:	62 81       	ldd	r22, Z+2	; 0x02
    1230:	73 81       	ldd	r23, Z+3	; 0x03
    1232:	4f 5f       	subi	r20, 0xFF	; 255
    1234:	5f 4f       	sbci	r21, 0xFF	; 255
    1236:	6f 4f       	sbci	r22, 0xFF	; 255
    1238:	7f 4f       	sbci	r23, 0xFF	; 255
    123a:	7e 01       	movw	r14, r28
    123c:	f1 ef       	ldi	r31, 0xF1	; 241
    123e:	ef 1a       	sub	r14, r31
    1240:	fe ef       	ldi	r31, 0xFE	; 254
    1242:	ff 0a       	sbc	r15, r31
    1244:	f7 01       	movw	r30, r14
    1246:	80 81       	ld	r24, Z
    1248:	91 81       	ldd	r25, Z+1	; 0x01
    124a:	0e 94 4f 12 	call	0x249e	; 0x249e <_ZN6memory4readEm>
    124e:	d8 2e       	mov	r13, r24
    1250:	f8 01       	movw	r30, r16
    1252:	40 81       	ld	r20, Z
    1254:	51 81       	ldd	r21, Z+1	; 0x01
    1256:	62 81       	ldd	r22, Z+2	; 0x02
    1258:	73 81       	ldd	r23, Z+3	; 0x03
    125a:	4e 5f       	subi	r20, 0xFE	; 254
    125c:	5f 4f       	sbci	r21, 0xFF	; 255
    125e:	6f 4f       	sbci	r22, 0xFF	; 255
    1260:	7f 4f       	sbci	r23, 0xFF	; 255
    1262:	f7 01       	movw	r30, r14
    1264:	80 81       	ld	r24, Z
    1266:	91 81       	ldd	r25, Z+1	; 0x01
    1268:	0e 94 4f 12 	call	0x249e	; 0x249e <_ZN6memory4readEm>
    126c:	48 2f       	mov	r20, r24
    126e:	6d 2d       	mov	r22, r13
    1270:	ce 01       	movw	r24, r28
    1272:	0e 94 15 01 	call	0x22a	; 0x22a <_ZN11interpreter3ldiEhh>
    1276:	f8 01       	movw	r30, r16
    1278:	80 81       	ld	r24, Z
    127a:	91 81       	ldd	r25, Z+1	; 0x01
    127c:	a2 81       	ldd	r26, Z+2	; 0x02
    127e:	b3 81       	ldd	r27, Z+3	; 0x03
    1280:	02 96       	adiw	r24, 0x02	; 2
    1282:	a1 1d       	adc	r26, r1
    1284:	b1 1d       	adc	r27, r1
    1286:	80 83       	st	Z, r24
    1288:	91 83       	std	Z+1, r25	; 0x01
    128a:	a2 83       	std	Z+2, r26	; 0x02
    128c:	b3 83       	std	Z+3, r27	; 0x03
    128e:	fe c7       	rjmp	.+4092   	; 0x228c <__stack+0x118d>
    1290:	88 30       	cpi	r24, 0x08	; 8
    1292:	11 f5       	brne	.+68     	; 0x12d8 <__stack+0x1d9>
    1294:	8e 01       	movw	r16, r28
    1296:	05 5f       	subi	r16, 0xF5	; 245
    1298:	1e 4f       	sbci	r17, 0xFE	; 254
    129a:	f8 01       	movw	r30, r16
    129c:	40 81       	ld	r20, Z
    129e:	51 81       	ldd	r21, Z+1	; 0x01
    12a0:	62 81       	ldd	r22, Z+2	; 0x02
    12a2:	73 81       	ldd	r23, Z+3	; 0x03
    12a4:	4f 5f       	subi	r20, 0xFF	; 255
    12a6:	5f 4f       	sbci	r21, 0xFF	; 255
    12a8:	6f 4f       	sbci	r22, 0xFF	; 255
    12aa:	7f 4f       	sbci	r23, 0xFF	; 255
    12ac:	34 96       	adiw	r30, 0x04	; 4
    12ae:	80 81       	ld	r24, Z
    12b0:	91 81       	ldd	r25, Z+1	; 0x01
    12b2:	0e 94 4f 12 	call	0x249e	; 0x249e <_ZN6memory4readEm>
    12b6:	68 2f       	mov	r22, r24
    12b8:	ce 01       	movw	r24, r28
    12ba:	0e 94 59 01 	call	0x2b2	; 0x2b2 <_ZN11interpreter3stxEh>
    12be:	f8 01       	movw	r30, r16
    12c0:	80 81       	ld	r24, Z
    12c2:	91 81       	ldd	r25, Z+1	; 0x01
    12c4:	a2 81       	ldd	r26, Z+2	; 0x02
    12c6:	b3 81       	ldd	r27, Z+3	; 0x03
    12c8:	01 96       	adiw	r24, 0x01	; 1
    12ca:	a1 1d       	adc	r26, r1
    12cc:	b1 1d       	adc	r27, r1
    12ce:	80 83       	st	Z, r24
    12d0:	91 83       	std	Z+1, r25	; 0x01
    12d2:	a2 83       	std	Z+2, r26	; 0x02
    12d4:	b3 83       	std	Z+3, r27	; 0x03
    12d6:	da c7       	rjmp	.+4020   	; 0x228c <__stack+0x118d>
    12d8:	89 30       	cpi	r24, 0x09	; 9
    12da:	11 f5       	brne	.+68     	; 0x1320 <__stack+0x221>
    12dc:	8e 01       	movw	r16, r28
    12de:	05 5f       	subi	r16, 0xF5	; 245
    12e0:	1e 4f       	sbci	r17, 0xFE	; 254
    12e2:	f8 01       	movw	r30, r16
    12e4:	40 81       	ld	r20, Z
    12e6:	51 81       	ldd	r21, Z+1	; 0x01
    12e8:	62 81       	ldd	r22, Z+2	; 0x02
    12ea:	73 81       	ldd	r23, Z+3	; 0x03
    12ec:	4f 5f       	subi	r20, 0xFF	; 255
    12ee:	5f 4f       	sbci	r21, 0xFF	; 255
    12f0:	6f 4f       	sbci	r22, 0xFF	; 255
    12f2:	7f 4f       	sbci	r23, 0xFF	; 255
    12f4:	34 96       	adiw	r30, 0x04	; 4
    12f6:	80 81       	ld	r24, Z
    12f8:	91 81       	ldd	r25, Z+1	; 0x01
    12fa:	0e 94 4f 12 	call	0x249e	; 0x249e <_ZN6memory4readEm>
    12fe:	68 2f       	mov	r22, r24
    1300:	ce 01       	movw	r24, r28
    1302:	0e 94 7b 01 	call	0x2f6	; 0x2f6 <_ZN11interpreter3styEh>
    1306:	f8 01       	movw	r30, r16
    1308:	80 81       	ld	r24, Z
    130a:	91 81       	ldd	r25, Z+1	; 0x01
    130c:	a2 81       	ldd	r26, Z+2	; 0x02
    130e:	b3 81       	ldd	r27, Z+3	; 0x03
    1310:	01 96       	adiw	r24, 0x01	; 1
    1312:	a1 1d       	adc	r26, r1
    1314:	b1 1d       	adc	r27, r1
    1316:	80 83       	st	Z, r24
    1318:	91 83       	std	Z+1, r25	; 0x01
    131a:	a2 83       	std	Z+2, r26	; 0x02
    131c:	b3 83       	std	Z+3, r27	; 0x03
    131e:	b6 c7       	rjmp	.+3948   	; 0x228c <__stack+0x118d>
    1320:	8a 30       	cpi	r24, 0x0A	; 10
    1322:	11 f5       	brne	.+68     	; 0x1368 <__stack+0x269>
    1324:	8e 01       	movw	r16, r28
    1326:	05 5f       	subi	r16, 0xF5	; 245
    1328:	1e 4f       	sbci	r17, 0xFE	; 254
    132a:	f8 01       	movw	r30, r16
    132c:	40 81       	ld	r20, Z
    132e:	51 81       	ldd	r21, Z+1	; 0x01
    1330:	62 81       	ldd	r22, Z+2	; 0x02
    1332:	73 81       	ldd	r23, Z+3	; 0x03
    1334:	4f 5f       	subi	r20, 0xFF	; 255
    1336:	5f 4f       	sbci	r21, 0xFF	; 255
    1338:	6f 4f       	sbci	r22, 0xFF	; 255
    133a:	7f 4f       	sbci	r23, 0xFF	; 255
    133c:	34 96       	adiw	r30, 0x04	; 4
    133e:	80 81       	ld	r24, Z
    1340:	91 81       	ldd	r25, Z+1	; 0x01
    1342:	0e 94 4f 12 	call	0x249e	; 0x249e <_ZN6memory4readEm>
    1346:	68 2f       	mov	r22, r24
    1348:	ce 01       	movw	r24, r28
    134a:	0e 94 9d 01 	call	0x33a	; 0x33a <_ZN11interpreter3stzEh>
    134e:	f8 01       	movw	r30, r16
    1350:	80 81       	ld	r24, Z
    1352:	91 81       	ldd	r25, Z+1	; 0x01
    1354:	a2 81       	ldd	r26, Z+2	; 0x02
    1356:	b3 81       	ldd	r27, Z+3	; 0x03
    1358:	01 96       	adiw	r24, 0x01	; 1
    135a:	a1 1d       	adc	r26, r1
    135c:	b1 1d       	adc	r27, r1
    135e:	80 83       	st	Z, r24
    1360:	91 83       	std	Z+1, r25	; 0x01
    1362:	a2 83       	std	Z+2, r26	; 0x02
    1364:	b3 83       	std	Z+3, r27	; 0x03
    1366:	92 c7       	rjmp	.+3876   	; 0x228c <__stack+0x118d>
    1368:	8b 30       	cpi	r24, 0x0B	; 11
    136a:	c9 f5       	brne	.+114    	; 0x13de <__stack+0x2df>
    136c:	8e 01       	movw	r16, r28
    136e:	05 5f       	subi	r16, 0xF5	; 245
    1370:	1e 4f       	sbci	r17, 0xFE	; 254
    1372:	f8 01       	movw	r30, r16
    1374:	40 81       	ld	r20, Z
    1376:	51 81       	ldd	r21, Z+1	; 0x01
    1378:	62 81       	ldd	r22, Z+2	; 0x02
    137a:	73 81       	ldd	r23, Z+3	; 0x03
    137c:	4f 5f       	subi	r20, 0xFF	; 255
    137e:	5f 4f       	sbci	r21, 0xFF	; 255
    1380:	6f 4f       	sbci	r22, 0xFF	; 255
    1382:	7f 4f       	sbci	r23, 0xFF	; 255
    1384:	7e 01       	movw	r14, r28
    1386:	f1 ef       	ldi	r31, 0xF1	; 241
    1388:	ef 1a       	sub	r14, r31
    138a:	fe ef       	ldi	r31, 0xFE	; 254
    138c:	ff 0a       	sbc	r15, r31
    138e:	f7 01       	movw	r30, r14
    1390:	80 81       	ld	r24, Z
    1392:	91 81       	ldd	r25, Z+1	; 0x01
    1394:	0e 94 5d 12 	call	0x24ba	; 0x24ba <_ZN6memory6read32Em>
    1398:	4b 01       	movw	r8, r22
    139a:	5c 01       	movw	r10, r24
    139c:	f8 01       	movw	r30, r16
    139e:	40 81       	ld	r20, Z
    13a0:	51 81       	ldd	r21, Z+1	; 0x01
    13a2:	62 81       	ldd	r22, Z+2	; 0x02
    13a4:	73 81       	ldd	r23, Z+3	; 0x03
    13a6:	4b 5f       	subi	r20, 0xFB	; 251
    13a8:	5f 4f       	sbci	r21, 0xFF	; 255
    13aa:	6f 4f       	sbci	r22, 0xFF	; 255
    13ac:	7f 4f       	sbci	r23, 0xFF	; 255
    13ae:	f7 01       	movw	r30, r14
    13b0:	80 81       	ld	r24, Z
    13b2:	91 81       	ldd	r25, Z+1	; 0x01
    13b4:	0e 94 4f 12 	call	0x249e	; 0x249e <_ZN6memory4readEm>
    13b8:	28 2f       	mov	r18, r24
    13ba:	b5 01       	movw	r22, r10
    13bc:	a4 01       	movw	r20, r8
    13be:	ce 01       	movw	r24, r28
    13c0:	0e 94 bf 01 	call	0x37e	; 0x37e <_ZN11interpreter3stdEmh>
    13c4:	f8 01       	movw	r30, r16
    13c6:	80 81       	ld	r24, Z
    13c8:	91 81       	ldd	r25, Z+1	; 0x01
    13ca:	a2 81       	ldd	r26, Z+2	; 0x02
    13cc:	b3 81       	ldd	r27, Z+3	; 0x03
    13ce:	05 96       	adiw	r24, 0x05	; 5
    13d0:	a1 1d       	adc	r26, r1
    13d2:	b1 1d       	adc	r27, r1
    13d4:	80 83       	st	Z, r24
    13d6:	91 83       	std	Z+1, r25	; 0x01
    13d8:	a2 83       	std	Z+2, r26	; 0x02
    13da:	b3 83       	std	Z+3, r27	; 0x03
    13dc:	57 c7       	rjmp	.+3758   	; 0x228c <__stack+0x118d>
    13de:	8c 30       	cpi	r24, 0x0C	; 12
    13e0:	c9 f5       	brne	.+114    	; 0x1454 <__stack+0x355>
    13e2:	8e 01       	movw	r16, r28
    13e4:	05 5f       	subi	r16, 0xF5	; 245
    13e6:	1e 4f       	sbci	r17, 0xFE	; 254
    13e8:	f8 01       	movw	r30, r16
    13ea:	40 81       	ld	r20, Z
    13ec:	51 81       	ldd	r21, Z+1	; 0x01
    13ee:	62 81       	ldd	r22, Z+2	; 0x02
    13f0:	73 81       	ldd	r23, Z+3	; 0x03
    13f2:	4f 5f       	subi	r20, 0xFF	; 255
    13f4:	5f 4f       	sbci	r21, 0xFF	; 255
    13f6:	6f 4f       	sbci	r22, 0xFF	; 255
    13f8:	7f 4f       	sbci	r23, 0xFF	; 255
    13fa:	7e 01       	movw	r14, r28
    13fc:	f1 ef       	ldi	r31, 0xF1	; 241
    13fe:	ef 1a       	sub	r14, r31
    1400:	fe ef       	ldi	r31, 0xFE	; 254
    1402:	ff 0a       	sbc	r15, r31
    1404:	f7 01       	movw	r30, r14
    1406:	80 81       	ld	r24, Z
    1408:	91 81       	ldd	r25, Z+1	; 0x01
    140a:	0e 94 5d 12 	call	0x24ba	; 0x24ba <_ZN6memory6read32Em>
    140e:	4b 01       	movw	r8, r22
    1410:	5c 01       	movw	r10, r24
    1412:	f8 01       	movw	r30, r16
    1414:	40 81       	ld	r20, Z
    1416:	51 81       	ldd	r21, Z+1	; 0x01
    1418:	62 81       	ldd	r22, Z+2	; 0x02
    141a:	73 81       	ldd	r23, Z+3	; 0x03
    141c:	4b 5f       	subi	r20, 0xFB	; 251
    141e:	5f 4f       	sbci	r21, 0xFF	; 255
    1420:	6f 4f       	sbci	r22, 0xFF	; 255
    1422:	7f 4f       	sbci	r23, 0xFF	; 255
    1424:	f7 01       	movw	r30, r14
    1426:	80 81       	ld	r24, Z
    1428:	91 81       	ldd	r25, Z+1	; 0x01
    142a:	0e 94 4f 12 	call	0x249e	; 0x249e <_ZN6memory4readEm>
    142e:	28 2f       	mov	r18, r24
    1430:	b5 01       	movw	r22, r10
    1432:	a4 01       	movw	r20, r8
    1434:	ce 01       	movw	r24, r28
    1436:	0e 94 c7 01 	call	0x38e	; 0x38e <_ZN11interpreter3svdEmh>
    143a:	f8 01       	movw	r30, r16
    143c:	80 81       	ld	r24, Z
    143e:	91 81       	ldd	r25, Z+1	; 0x01
    1440:	a2 81       	ldd	r26, Z+2	; 0x02
    1442:	b3 81       	ldd	r27, Z+3	; 0x03
    1444:	05 96       	adiw	r24, 0x05	; 5
    1446:	a1 1d       	adc	r26, r1
    1448:	b1 1d       	adc	r27, r1
    144a:	80 83       	st	Z, r24
    144c:	91 83       	std	Z+1, r25	; 0x01
    144e:	a2 83       	std	Z+2, r26	; 0x02
    1450:	b3 83       	std	Z+3, r27	; 0x03
    1452:	1c c7       	rjmp	.+3640   	; 0x228c <__stack+0x118d>
    1454:	8d 30       	cpi	r24, 0x0D	; 13
    1456:	11 f5       	brne	.+68     	; 0x149c <__stack+0x39d>
    1458:	8e 01       	movw	r16, r28
    145a:	05 5f       	subi	r16, 0xF5	; 245
    145c:	1e 4f       	sbci	r17, 0xFE	; 254
    145e:	f8 01       	movw	r30, r16
    1460:	40 81       	ld	r20, Z
    1462:	51 81       	ldd	r21, Z+1	; 0x01
    1464:	62 81       	ldd	r22, Z+2	; 0x02
    1466:	73 81       	ldd	r23, Z+3	; 0x03
    1468:	4f 5f       	subi	r20, 0xFF	; 255
    146a:	5f 4f       	sbci	r21, 0xFF	; 255
    146c:	6f 4f       	sbci	r22, 0xFF	; 255
    146e:	7f 4f       	sbci	r23, 0xFF	; 255
    1470:	34 96       	adiw	r30, 0x04	; 4
    1472:	80 81       	ld	r24, Z
    1474:	91 81       	ldd	r25, Z+1	; 0x01
    1476:	0e 94 4f 12 	call	0x249e	; 0x249e <_ZN6memory4readEm>
    147a:	68 2f       	mov	r22, r24
    147c:	ce 01       	movw	r24, r28
    147e:	0e 94 cf 01 	call	0x39e	; 0x39e <_ZN11interpreter3svxEh>
    1482:	f8 01       	movw	r30, r16
    1484:	80 81       	ld	r24, Z
    1486:	91 81       	ldd	r25, Z+1	; 0x01
    1488:	a2 81       	ldd	r26, Z+2	; 0x02
    148a:	b3 81       	ldd	r27, Z+3	; 0x03
    148c:	01 96       	adiw	r24, 0x01	; 1
    148e:	a1 1d       	adc	r26, r1
    1490:	b1 1d       	adc	r27, r1
    1492:	80 83       	st	Z, r24
    1494:	91 83       	std	Z+1, r25	; 0x01
    1496:	a2 83       	std	Z+2, r26	; 0x02
    1498:	b3 83       	std	Z+3, r27	; 0x03
    149a:	f8 c6       	rjmp	.+3568   	; 0x228c <__stack+0x118d>
    149c:	8e 30       	cpi	r24, 0x0E	; 14
    149e:	11 f5       	brne	.+68     	; 0x14e4 <__stack+0x3e5>
    14a0:	8e 01       	movw	r16, r28
    14a2:	05 5f       	subi	r16, 0xF5	; 245
    14a4:	1e 4f       	sbci	r17, 0xFE	; 254
    14a6:	f8 01       	movw	r30, r16
    14a8:	40 81       	ld	r20, Z
    14aa:	51 81       	ldd	r21, Z+1	; 0x01
    14ac:	62 81       	ldd	r22, Z+2	; 0x02
    14ae:	73 81       	ldd	r23, Z+3	; 0x03
    14b0:	4f 5f       	subi	r20, 0xFF	; 255
    14b2:	5f 4f       	sbci	r21, 0xFF	; 255
    14b4:	6f 4f       	sbci	r22, 0xFF	; 255
    14b6:	7f 4f       	sbci	r23, 0xFF	; 255
    14b8:	34 96       	adiw	r30, 0x04	; 4
    14ba:	80 81       	ld	r24, Z
    14bc:	91 81       	ldd	r25, Z+1	; 0x01
    14be:	0e 94 4f 12 	call	0x249e	; 0x249e <_ZN6memory4readEm>
    14c2:	68 2f       	mov	r22, r24
    14c4:	ce 01       	movw	r24, r28
    14c6:	0e 94 ea 01 	call	0x3d4	; 0x3d4 <_ZN11interpreter3svyEh>
    14ca:	f8 01       	movw	r30, r16
    14cc:	80 81       	ld	r24, Z
    14ce:	91 81       	ldd	r25, Z+1	; 0x01
    14d0:	a2 81       	ldd	r26, Z+2	; 0x02
    14d2:	b3 81       	ldd	r27, Z+3	; 0x03
    14d4:	01 96       	adiw	r24, 0x01	; 1
    14d6:	a1 1d       	adc	r26, r1
    14d8:	b1 1d       	adc	r27, r1
    14da:	80 83       	st	Z, r24
    14dc:	91 83       	std	Z+1, r25	; 0x01
    14de:	a2 83       	std	Z+2, r26	; 0x02
    14e0:	b3 83       	std	Z+3, r27	; 0x03
    14e2:	d4 c6       	rjmp	.+3496   	; 0x228c <__stack+0x118d>
    14e4:	8f 30       	cpi	r24, 0x0F	; 15
    14e6:	11 f5       	brne	.+68     	; 0x152c <__stack+0x42d>
    14e8:	8e 01       	movw	r16, r28
    14ea:	05 5f       	subi	r16, 0xF5	; 245
    14ec:	1e 4f       	sbci	r17, 0xFE	; 254
    14ee:	f8 01       	movw	r30, r16
    14f0:	40 81       	ld	r20, Z
    14f2:	51 81       	ldd	r21, Z+1	; 0x01
    14f4:	62 81       	ldd	r22, Z+2	; 0x02
    14f6:	73 81       	ldd	r23, Z+3	; 0x03
    14f8:	4f 5f       	subi	r20, 0xFF	; 255
    14fa:	5f 4f       	sbci	r21, 0xFF	; 255
    14fc:	6f 4f       	sbci	r22, 0xFF	; 255
    14fe:	7f 4f       	sbci	r23, 0xFF	; 255
    1500:	34 96       	adiw	r30, 0x04	; 4
    1502:	80 81       	ld	r24, Z
    1504:	91 81       	ldd	r25, Z+1	; 0x01
    1506:	0e 94 4f 12 	call	0x249e	; 0x249e <_ZN6memory4readEm>
    150a:	68 2f       	mov	r22, r24
    150c:	ce 01       	movw	r24, r28
    150e:	0e 94 05 02 	call	0x40a	; 0x40a <_ZN11interpreter3svzEh>
    1512:	f8 01       	movw	r30, r16
    1514:	80 81       	ld	r24, Z
    1516:	91 81       	ldd	r25, Z+1	; 0x01
    1518:	a2 81       	ldd	r26, Z+2	; 0x02
    151a:	b3 81       	ldd	r27, Z+3	; 0x03
    151c:	01 96       	adiw	r24, 0x01	; 1
    151e:	a1 1d       	adc	r26, r1
    1520:	b1 1d       	adc	r27, r1
    1522:	80 83       	st	Z, r24
    1524:	91 83       	std	Z+1, r25	; 0x01
    1526:	a2 83       	std	Z+2, r26	; 0x02
    1528:	b3 83       	std	Z+3, r27	; 0x03
    152a:	b0 c6       	rjmp	.+3424   	; 0x228c <__stack+0x118d>
    152c:	80 31       	cpi	r24, 0x10	; 16
    152e:	21 f4       	brne	.+8      	; 0x1538 <__stack+0x439>
    1530:	ce 01       	movw	r24, r28
    1532:	0e 94 20 02 	call	0x440	; 0x440 <_ZN11interpreter3txsEv>
    1536:	aa c6       	rjmp	.+3412   	; 0x228c <__stack+0x118d>
    1538:	81 31       	cpi	r24, 0x11	; 17
    153a:	21 f4       	brne	.+8      	; 0x1544 <__stack+0x445>
    153c:	ce 01       	movw	r24, r28
    153e:	0e 94 34 02 	call	0x468	; 0x468 <_ZN11interpreter3txyEv>
    1542:	a4 c6       	rjmp	.+3400   	; 0x228c <__stack+0x118d>
    1544:	82 31       	cpi	r24, 0x12	; 18
    1546:	21 f4       	brne	.+8      	; 0x1550 <__stack+0x451>
    1548:	ce 01       	movw	r24, r28
    154a:	0e 94 51 02 	call	0x4a2	; 0x4a2 <_ZN11interpreter3txzEv>
    154e:	9e c6       	rjmp	.+3388   	; 0x228c <__stack+0x118d>
    1550:	83 31       	cpi	r24, 0x13	; 19
    1552:	21 f4       	brne	.+8      	; 0x155c <__stack+0x45d>
    1554:	ce 01       	movw	r24, r28
    1556:	0e 94 6e 02 	call	0x4dc	; 0x4dc <_ZN11interpreter3tysEv>
    155a:	98 c6       	rjmp	.+3376   	; 0x228c <__stack+0x118d>
    155c:	84 31       	cpi	r24, 0x14	; 20
    155e:	21 f4       	brne	.+8      	; 0x1568 <__stack+0x469>
    1560:	ce 01       	movw	r24, r28
    1562:	0e 94 82 02 	call	0x504	; 0x504 <_ZN11interpreter3tyxEv>
    1566:	92 c6       	rjmp	.+3364   	; 0x228c <__stack+0x118d>
    1568:	85 31       	cpi	r24, 0x15	; 21
    156a:	21 f4       	brne	.+8      	; 0x1574 <__stack+0x475>
    156c:	ce 01       	movw	r24, r28
    156e:	0e 94 9f 02 	call	0x53e	; 0x53e <_ZN11interpreter3tyzEv>
    1572:	8c c6       	rjmp	.+3352   	; 0x228c <__stack+0x118d>
    1574:	86 31       	cpi	r24, 0x16	; 22
    1576:	21 f4       	brne	.+8      	; 0x1580 <__stack+0x481>
    1578:	ce 01       	movw	r24, r28
    157a:	0e 94 bc 02 	call	0x578	; 0x578 <_ZN11interpreter3tzsEv>
    157e:	86 c6       	rjmp	.+3340   	; 0x228c <__stack+0x118d>
    1580:	87 31       	cpi	r24, 0x17	; 23
    1582:	21 f4       	brne	.+8      	; 0x158c <__stack+0x48d>
    1584:	ce 01       	movw	r24, r28
    1586:	0e 94 d0 02 	call	0x5a0	; 0x5a0 <_ZN11interpreter3tzxEv>
    158a:	80 c6       	rjmp	.+3328   	; 0x228c <__stack+0x118d>
    158c:	88 31       	cpi	r24, 0x18	; 24
    158e:	21 f4       	brne	.+8      	; 0x1598 <__stack+0x499>
    1590:	ce 01       	movw	r24, r28
    1592:	0e 94 ed 02 	call	0x5da	; 0x5da <_ZN11interpreter3tzyEv>
    1596:	7a c6       	rjmp	.+3316   	; 0x228c <__stack+0x118d>
    1598:	89 31       	cpi	r24, 0x19	; 25
    159a:	21 f4       	brne	.+8      	; 0x15a4 <__stack+0x4a5>
    159c:	ce 01       	movw	r24, r28
    159e:	0e 94 0a 03 	call	0x614	; 0x614 <_ZN11interpreter3tsxEv>
    15a2:	74 c6       	rjmp	.+3304   	; 0x228c <__stack+0x118d>
    15a4:	8a 31       	cpi	r24, 0x1A	; 26
    15a6:	21 f4       	brne	.+8      	; 0x15b0 <__stack+0x4b1>
    15a8:	ce 01       	movw	r24, r28
    15aa:	0e 94 19 03 	call	0x632	; 0x632 <_ZN11interpreter3tsyEv>
    15ae:	6e c6       	rjmp	.+3292   	; 0x228c <__stack+0x118d>
    15b0:	8b 31       	cpi	r24, 0x1B	; 27
    15b2:	21 f4       	brne	.+8      	; 0x15bc <__stack+0x4bd>
    15b4:	ce 01       	movw	r24, r28
    15b6:	0e 94 28 03 	call	0x650	; 0x650 <_ZN11interpreter3tszEv>
    15ba:	68 c6       	rjmp	.+3280   	; 0x228c <__stack+0x118d>
    15bc:	8c 31       	cpi	r24, 0x1C	; 28
    15be:	b9 f5       	brne	.+110    	; 0x162e <__stack+0x52f>
    15c0:	8e 01       	movw	r16, r28
    15c2:	05 5f       	subi	r16, 0xF5	; 245
    15c4:	1e 4f       	sbci	r17, 0xFE	; 254
    15c6:	f8 01       	movw	r30, r16
    15c8:	40 81       	ld	r20, Z
    15ca:	51 81       	ldd	r21, Z+1	; 0x01
    15cc:	62 81       	ldd	r22, Z+2	; 0x02
    15ce:	73 81       	ldd	r23, Z+3	; 0x03
    15d0:	4f 5f       	subi	r20, 0xFF	; 255
    15d2:	5f 4f       	sbci	r21, 0xFF	; 255
    15d4:	6f 4f       	sbci	r22, 0xFF	; 255
    15d6:	7f 4f       	sbci	r23, 0xFF	; 255
    15d8:	7e 01       	movw	r14, r28
    15da:	f1 ef       	ldi	r31, 0xF1	; 241
    15dc:	ef 1a       	sub	r14, r31
    15de:	fe ef       	ldi	r31, 0xFE	; 254
    15e0:	ff 0a       	sbc	r15, r31
    15e2:	f7 01       	movw	r30, r14
    15e4:	80 81       	ld	r24, Z
    15e6:	91 81       	ldd	r25, Z+1	; 0x01
    15e8:	0e 94 4f 12 	call	0x249e	; 0x249e <_ZN6memory4readEm>
    15ec:	d8 2e       	mov	r13, r24
    15ee:	f8 01       	movw	r30, r16
    15f0:	40 81       	ld	r20, Z
    15f2:	51 81       	ldd	r21, Z+1	; 0x01
    15f4:	62 81       	ldd	r22, Z+2	; 0x02
    15f6:	73 81       	ldd	r23, Z+3	; 0x03
    15f8:	4e 5f       	subi	r20, 0xFE	; 254
    15fa:	5f 4f       	sbci	r21, 0xFF	; 255
    15fc:	6f 4f       	sbci	r22, 0xFF	; 255
    15fe:	7f 4f       	sbci	r23, 0xFF	; 255
    1600:	f7 01       	movw	r30, r14
    1602:	80 81       	ld	r24, Z
    1604:	91 81       	ldd	r25, Z+1	; 0x01
    1606:	0e 94 4f 12 	call	0x249e	; 0x249e <_ZN6memory4readEm>
    160a:	48 2f       	mov	r20, r24
    160c:	6d 2d       	mov	r22, r13
    160e:	ce 01       	movw	r24, r28
    1610:	0e 94 37 03 	call	0x66e	; 0x66e <_ZN11interpreter3cmpEhh>
    1614:	f8 01       	movw	r30, r16
    1616:	80 81       	ld	r24, Z
    1618:	91 81       	ldd	r25, Z+1	; 0x01
    161a:	a2 81       	ldd	r26, Z+2	; 0x02
    161c:	b3 81       	ldd	r27, Z+3	; 0x03
    161e:	02 96       	adiw	r24, 0x02	; 2
    1620:	a1 1d       	adc	r26, r1
    1622:	b1 1d       	adc	r27, r1
    1624:	80 83       	st	Z, r24
    1626:	91 83       	std	Z+1, r25	; 0x01
    1628:	a2 83       	std	Z+2, r26	; 0x02
    162a:	b3 83       	std	Z+3, r27	; 0x03
    162c:	2f c6       	rjmp	.+3166   	; 0x228c <__stack+0x118d>
    162e:	8d 31       	cpi	r24, 0x1D	; 29
    1630:	b9 f5       	brne	.+110    	; 0x16a0 <__stack+0x5a1>
    1632:	8e 01       	movw	r16, r28
    1634:	05 5f       	subi	r16, 0xF5	; 245
    1636:	1e 4f       	sbci	r17, 0xFE	; 254
    1638:	f8 01       	movw	r30, r16
    163a:	40 81       	ld	r20, Z
    163c:	51 81       	ldd	r21, Z+1	; 0x01
    163e:	62 81       	ldd	r22, Z+2	; 0x02
    1640:	73 81       	ldd	r23, Z+3	; 0x03
    1642:	4f 5f       	subi	r20, 0xFF	; 255
    1644:	5f 4f       	sbci	r21, 0xFF	; 255
    1646:	6f 4f       	sbci	r22, 0xFF	; 255
    1648:	7f 4f       	sbci	r23, 0xFF	; 255
    164a:	7e 01       	movw	r14, r28
    164c:	f1 ef       	ldi	r31, 0xF1	; 241
    164e:	ef 1a       	sub	r14, r31
    1650:	fe ef       	ldi	r31, 0xFE	; 254
    1652:	ff 0a       	sbc	r15, r31
    1654:	f7 01       	movw	r30, r14
    1656:	80 81       	ld	r24, Z
    1658:	91 81       	ldd	r25, Z+1	; 0x01
    165a:	0e 94 4f 12 	call	0x249e	; 0x249e <_ZN6memory4readEm>
    165e:	d8 2e       	mov	r13, r24
    1660:	f8 01       	movw	r30, r16
    1662:	40 81       	ld	r20, Z
    1664:	51 81       	ldd	r21, Z+1	; 0x01
    1666:	62 81       	ldd	r22, Z+2	; 0x02
    1668:	73 81       	ldd	r23, Z+3	; 0x03
    166a:	4e 5f       	subi	r20, 0xFE	; 254
    166c:	5f 4f       	sbci	r21, 0xFF	; 255
    166e:	6f 4f       	sbci	r22, 0xFF	; 255
    1670:	7f 4f       	sbci	r23, 0xFF	; 255
    1672:	f7 01       	movw	r30, r14
    1674:	80 81       	ld	r24, Z
    1676:	91 81       	ldd	r25, Z+1	; 0x01
    1678:	0e 94 4f 12 	call	0x249e	; 0x249e <_ZN6memory4readEm>
    167c:	48 2f       	mov	r20, r24
    167e:	6d 2d       	mov	r22, r13
    1680:	ce 01       	movw	r24, r28
    1682:	0e 94 50 03 	call	0x6a0	; 0x6a0 <_ZN11interpreter3cpiEhh>
    1686:	f8 01       	movw	r30, r16
    1688:	80 81       	ld	r24, Z
    168a:	91 81       	ldd	r25, Z+1	; 0x01
    168c:	a2 81       	ldd	r26, Z+2	; 0x02
    168e:	b3 81       	ldd	r27, Z+3	; 0x03
    1690:	02 96       	adiw	r24, 0x02	; 2
    1692:	a1 1d       	adc	r26, r1
    1694:	b1 1d       	adc	r27, r1
    1696:	80 83       	st	Z, r24
    1698:	91 83       	std	Z+1, r25	; 0x01
    169a:	a2 83       	std	Z+2, r26	; 0x02
    169c:	b3 83       	std	Z+3, r27	; 0x03
    169e:	f6 c5       	rjmp	.+3052   	; 0x228c <__stack+0x118d>
    16a0:	8e 31       	cpi	r24, 0x1E	; 30
    16a2:	11 f5       	brne	.+68     	; 0x16e8 <__stack+0x5e9>
    16a4:	8e 01       	movw	r16, r28
    16a6:	05 5f       	subi	r16, 0xF5	; 245
    16a8:	1e 4f       	sbci	r17, 0xFE	; 254
    16aa:	f8 01       	movw	r30, r16
    16ac:	40 81       	ld	r20, Z
    16ae:	51 81       	ldd	r21, Z+1	; 0x01
    16b0:	62 81       	ldd	r22, Z+2	; 0x02
    16b2:	73 81       	ldd	r23, Z+3	; 0x03
    16b4:	4f 5f       	subi	r20, 0xFF	; 255
    16b6:	5f 4f       	sbci	r21, 0xFF	; 255
    16b8:	6f 4f       	sbci	r22, 0xFF	; 255
    16ba:	7f 4f       	sbci	r23, 0xFF	; 255
    16bc:	34 96       	adiw	r30, 0x04	; 4
    16be:	80 81       	ld	r24, Z
    16c0:	91 81       	ldd	r25, Z+1	; 0x01
    16c2:	0e 94 4f 12 	call	0x249e	; 0x249e <_ZN6memory4readEm>
    16c6:	68 2f       	mov	r22, r24
    16c8:	ce 01       	movw	r24, r28
    16ca:	0e 94 d3 03 	call	0x7a6	; 0x7a6 <_ZN11interpreter3rorEh>
    16ce:	f8 01       	movw	r30, r16
    16d0:	80 81       	ld	r24, Z
    16d2:	91 81       	ldd	r25, Z+1	; 0x01
    16d4:	a2 81       	ldd	r26, Z+2	; 0x02
    16d6:	b3 81       	ldd	r27, Z+3	; 0x03
    16d8:	01 96       	adiw	r24, 0x01	; 1
    16da:	a1 1d       	adc	r26, r1
    16dc:	b1 1d       	adc	r27, r1
    16de:	80 83       	st	Z, r24
    16e0:	91 83       	std	Z+1, r25	; 0x01
    16e2:	a2 83       	std	Z+2, r26	; 0x02
    16e4:	b3 83       	std	Z+3, r27	; 0x03
    16e6:	d2 c5       	rjmp	.+2980   	; 0x228c <__stack+0x118d>
    16e8:	8f 31       	cpi	r24, 0x1F	; 31
    16ea:	11 f5       	brne	.+68     	; 0x1730 <__stack+0x631>
    16ec:	8e 01       	movw	r16, r28
    16ee:	05 5f       	subi	r16, 0xF5	; 245
    16f0:	1e 4f       	sbci	r17, 0xFE	; 254
    16f2:	f8 01       	movw	r30, r16
    16f4:	40 81       	ld	r20, Z
    16f6:	51 81       	ldd	r21, Z+1	; 0x01
    16f8:	62 81       	ldd	r22, Z+2	; 0x02
    16fa:	73 81       	ldd	r23, Z+3	; 0x03
    16fc:	4f 5f       	subi	r20, 0xFF	; 255
    16fe:	5f 4f       	sbci	r21, 0xFF	; 255
    1700:	6f 4f       	sbci	r22, 0xFF	; 255
    1702:	7f 4f       	sbci	r23, 0xFF	; 255
    1704:	34 96       	adiw	r30, 0x04	; 4
    1706:	80 81       	ld	r24, Z
    1708:	91 81       	ldd	r25, Z+1	; 0x01
    170a:	0e 94 4f 12 	call	0x249e	; 0x249e <_ZN6memory4readEm>
    170e:	68 2f       	mov	r22, r24
    1710:	ce 01       	movw	r24, r28
    1712:	0e 94 dc 03 	call	0x7b8	; 0x7b8 <_ZN11interpreter3rolEh>
    1716:	f8 01       	movw	r30, r16
    1718:	80 81       	ld	r24, Z
    171a:	91 81       	ldd	r25, Z+1	; 0x01
    171c:	a2 81       	ldd	r26, Z+2	; 0x02
    171e:	b3 81       	ldd	r27, Z+3	; 0x03
    1720:	01 96       	adiw	r24, 0x01	; 1
    1722:	a1 1d       	adc	r26, r1
    1724:	b1 1d       	adc	r27, r1
    1726:	80 83       	st	Z, r24
    1728:	91 83       	std	Z+1, r25	; 0x01
    172a:	a2 83       	std	Z+2, r26	; 0x02
    172c:	b3 83       	std	Z+3, r27	; 0x03
    172e:	ae c5       	rjmp	.+2908   	; 0x228c <__stack+0x118d>
    1730:	80 32       	cpi	r24, 0x20	; 32
    1732:	f9 f4       	brne	.+62     	; 0x1772 <__stack+0x673>
    1734:	8e 01       	movw	r16, r28
    1736:	05 5f       	subi	r16, 0xF5	; 245
    1738:	1e 4f       	sbci	r17, 0xFE	; 254
    173a:	f8 01       	movw	r30, r16
    173c:	40 81       	ld	r20, Z
    173e:	51 81       	ldd	r21, Z+1	; 0x01
    1740:	62 81       	ldd	r22, Z+2	; 0x02
    1742:	73 81       	ldd	r23, Z+3	; 0x03
    1744:	34 96       	adiw	r30, 0x04	; 4
    1746:	80 81       	ld	r24, Z
    1748:	91 81       	ldd	r25, Z+1	; 0x01
    174a:	0e 94 5d 12 	call	0x24ba	; 0x24ba <_ZN6memory6read32Em>
    174e:	ab 01       	movw	r20, r22
    1750:	bc 01       	movw	r22, r24
    1752:	ce 01       	movw	r24, r28
    1754:	0e 94 f2 03 	call	0x7e4	; 0x7e4 <_ZN11interpreter4breqEm>
    1758:	f8 01       	movw	r30, r16
    175a:	80 81       	ld	r24, Z
    175c:	91 81       	ldd	r25, Z+1	; 0x01
    175e:	a2 81       	ldd	r26, Z+2	; 0x02
    1760:	b3 81       	ldd	r27, Z+3	; 0x03
    1762:	04 96       	adiw	r24, 0x04	; 4
    1764:	a1 1d       	adc	r26, r1
    1766:	b1 1d       	adc	r27, r1
    1768:	80 83       	st	Z, r24
    176a:	91 83       	std	Z+1, r25	; 0x01
    176c:	a2 83       	std	Z+2, r26	; 0x02
    176e:	b3 83       	std	Z+3, r27	; 0x03
    1770:	8d c5       	rjmp	.+2842   	; 0x228c <__stack+0x118d>
    1772:	81 32       	cpi	r24, 0x21	; 33
    1774:	41 f5       	brne	.+80     	; 0x17c6 <__stack+0x6c7>
    1776:	8e 01       	movw	r16, r28
    1778:	05 5f       	subi	r16, 0xF5	; 245
    177a:	1e 4f       	sbci	r17, 0xFE	; 254
    177c:	f8 01       	movw	r30, r16
    177e:	40 81       	ld	r20, Z
    1780:	51 81       	ldd	r21, Z+1	; 0x01
    1782:	62 81       	ldd	r22, Z+2	; 0x02
    1784:	73 81       	ldd	r23, Z+3	; 0x03
    1786:	34 96       	adiw	r30, 0x04	; 4
    1788:	80 81       	ld	r24, Z
    178a:	91 81       	ldd	r25, Z+1	; 0x01
    178c:	0e 94 5d 12 	call	0x24ba	; 0x24ba <_ZN6memory6read32Em>
    1790:	f8 01       	movw	r30, r16
    1792:	80 80       	ld	r8, Z
    1794:	91 80       	ldd	r9, Z+1	; 0x01
    1796:	a2 80       	ldd	r10, Z+2	; 0x02
    1798:	b3 80       	ldd	r11, Z+3	; 0x03
    179a:	ab 01       	movw	r20, r22
    179c:	bc 01       	movw	r22, r24
    179e:	48 0d       	add	r20, r8
    17a0:	59 1d       	adc	r21, r9
    17a2:	6a 1d       	adc	r22, r10
    17a4:	7b 1d       	adc	r23, r11
    17a6:	ce 01       	movw	r24, r28
    17a8:	0e 94 01 04 	call	0x802	; 0x802 <_ZN11interpreter7breqpcfEm>
    17ac:	f8 01       	movw	r30, r16
    17ae:	80 81       	ld	r24, Z
    17b0:	91 81       	ldd	r25, Z+1	; 0x01
    17b2:	a2 81       	ldd	r26, Z+2	; 0x02
    17b4:	b3 81       	ldd	r27, Z+3	; 0x03
    17b6:	04 96       	adiw	r24, 0x04	; 4
    17b8:	a1 1d       	adc	r26, r1
    17ba:	b1 1d       	adc	r27, r1
    17bc:	80 83       	st	Z, r24
    17be:	91 83       	std	Z+1, r25	; 0x01
    17c0:	a2 83       	std	Z+2, r26	; 0x02
    17c2:	b3 83       	std	Z+3, r27	; 0x03
    17c4:	63 c5       	rjmp	.+2758   	; 0x228c <__stack+0x118d>
    17c6:	82 32       	cpi	r24, 0x22	; 34
    17c8:	51 f5       	brne	.+84     	; 0x181e <__stack+0x71f>
    17ca:	8e 01       	movw	r16, r28
    17cc:	05 5f       	subi	r16, 0xF5	; 245
    17ce:	1e 4f       	sbci	r17, 0xFE	; 254
    17d0:	f8 01       	movw	r30, r16
    17d2:	40 81       	ld	r20, Z
    17d4:	51 81       	ldd	r21, Z+1	; 0x01
    17d6:	62 81       	ldd	r22, Z+2	; 0x02
    17d8:	73 81       	ldd	r23, Z+3	; 0x03
    17da:	34 96       	adiw	r30, 0x04	; 4
    17dc:	80 81       	ld	r24, Z
    17de:	91 81       	ldd	r25, Z+1	; 0x01
    17e0:	0e 94 5d 12 	call	0x24ba	; 0x24ba <_ZN6memory6read32Em>
    17e4:	f8 01       	movw	r30, r16
    17e6:	80 80       	ld	r8, Z
    17e8:	91 80       	ldd	r9, Z+1	; 0x01
    17ea:	a2 80       	ldd	r10, Z+2	; 0x02
    17ec:	b3 80       	ldd	r11, Z+3	; 0x03
    17ee:	75 01       	movw	r14, r10
    17f0:	64 01       	movw	r12, r8
    17f2:	c6 1a       	sub	r12, r22
    17f4:	d7 0a       	sbc	r13, r23
    17f6:	e8 0a       	sbc	r14, r24
    17f8:	f9 0a       	sbc	r15, r25
    17fa:	b7 01       	movw	r22, r14
    17fc:	a6 01       	movw	r20, r12
    17fe:	ce 01       	movw	r24, r28
    1800:	0e 94 1e 04 	call	0x83c	; 0x83c <_ZN11interpreter7breqpcbEm>
    1804:	f8 01       	movw	r30, r16
    1806:	80 81       	ld	r24, Z
    1808:	91 81       	ldd	r25, Z+1	; 0x01
    180a:	a2 81       	ldd	r26, Z+2	; 0x02
    180c:	b3 81       	ldd	r27, Z+3	; 0x03
    180e:	04 96       	adiw	r24, 0x04	; 4
    1810:	a1 1d       	adc	r26, r1
    1812:	b1 1d       	adc	r27, r1
    1814:	80 83       	st	Z, r24
    1816:	91 83       	std	Z+1, r25	; 0x01
    1818:	a2 83       	std	Z+2, r26	; 0x02
    181a:	b3 83       	std	Z+3, r27	; 0x03
    181c:	37 c5       	rjmp	.+2670   	; 0x228c <__stack+0x118d>
    181e:	83 32       	cpi	r24, 0x23	; 35
    1820:	f9 f4       	brne	.+62     	; 0x1860 <__stack+0x761>
    1822:	8e 01       	movw	r16, r28
    1824:	05 5f       	subi	r16, 0xF5	; 245
    1826:	1e 4f       	sbci	r17, 0xFE	; 254
    1828:	f8 01       	movw	r30, r16
    182a:	40 81       	ld	r20, Z
    182c:	51 81       	ldd	r21, Z+1	; 0x01
    182e:	62 81       	ldd	r22, Z+2	; 0x02
    1830:	73 81       	ldd	r23, Z+3	; 0x03
    1832:	34 96       	adiw	r30, 0x04	; 4
    1834:	80 81       	ld	r24, Z
    1836:	91 81       	ldd	r25, Z+1	; 0x01
    1838:	0e 94 5d 12 	call	0x24ba	; 0x24ba <_ZN6memory6read32Em>
    183c:	ab 01       	movw	r20, r22
    183e:	bc 01       	movw	r22, r24
    1840:	ce 01       	movw	r24, r28
    1842:	0e 94 47 04 	call	0x88e	; 0x88e <_ZN11interpreter4brneEm>
    1846:	f8 01       	movw	r30, r16
    1848:	80 81       	ld	r24, Z
    184a:	91 81       	ldd	r25, Z+1	; 0x01
    184c:	a2 81       	ldd	r26, Z+2	; 0x02
    184e:	b3 81       	ldd	r27, Z+3	; 0x03
    1850:	04 96       	adiw	r24, 0x04	; 4
    1852:	a1 1d       	adc	r26, r1
    1854:	b1 1d       	adc	r27, r1
    1856:	80 83       	st	Z, r24
    1858:	91 83       	std	Z+1, r25	; 0x01
    185a:	a2 83       	std	Z+2, r26	; 0x02
    185c:	b3 83       	std	Z+3, r27	; 0x03
    185e:	16 c5       	rjmp	.+2604   	; 0x228c <__stack+0x118d>
    1860:	84 32       	cpi	r24, 0x24	; 36
    1862:	41 f5       	brne	.+80     	; 0x18b4 <__stack+0x7b5>
    1864:	8e 01       	movw	r16, r28
    1866:	05 5f       	subi	r16, 0xF5	; 245
    1868:	1e 4f       	sbci	r17, 0xFE	; 254
    186a:	f8 01       	movw	r30, r16
    186c:	40 81       	ld	r20, Z
    186e:	51 81       	ldd	r21, Z+1	; 0x01
    1870:	62 81       	ldd	r22, Z+2	; 0x02
    1872:	73 81       	ldd	r23, Z+3	; 0x03
    1874:	34 96       	adiw	r30, 0x04	; 4
    1876:	80 81       	ld	r24, Z
    1878:	91 81       	ldd	r25, Z+1	; 0x01
    187a:	0e 94 5d 12 	call	0x24ba	; 0x24ba <_ZN6memory6read32Em>
    187e:	f8 01       	movw	r30, r16
    1880:	80 80       	ld	r8, Z
    1882:	91 80       	ldd	r9, Z+1	; 0x01
    1884:	a2 80       	ldd	r10, Z+2	; 0x02
    1886:	b3 80       	ldd	r11, Z+3	; 0x03
    1888:	ab 01       	movw	r20, r22
    188a:	bc 01       	movw	r22, r24
    188c:	48 0d       	add	r20, r8
    188e:	59 1d       	adc	r21, r9
    1890:	6a 1d       	adc	r22, r10
    1892:	7b 1d       	adc	r23, r11
    1894:	ce 01       	movw	r24, r28
    1896:	0e 94 6b 04 	call	0x8d6	; 0x8d6 <_ZN11interpreter7brnepcfEm>
    189a:	f8 01       	movw	r30, r16
    189c:	80 81       	ld	r24, Z
    189e:	91 81       	ldd	r25, Z+1	; 0x01
    18a0:	a2 81       	ldd	r26, Z+2	; 0x02
    18a2:	b3 81       	ldd	r27, Z+3	; 0x03
    18a4:	04 96       	adiw	r24, 0x04	; 4
    18a6:	a1 1d       	adc	r26, r1
    18a8:	b1 1d       	adc	r27, r1
    18aa:	80 83       	st	Z, r24
    18ac:	91 83       	std	Z+1, r25	; 0x01
    18ae:	a2 83       	std	Z+2, r26	; 0x02
    18b0:	b3 83       	std	Z+3, r27	; 0x03
    18b2:	ec c4       	rjmp	.+2520   	; 0x228c <__stack+0x118d>
    18b4:	85 32       	cpi	r24, 0x25	; 37
    18b6:	51 f5       	brne	.+84     	; 0x190c <__stack+0x80d>
    18b8:	8e 01       	movw	r16, r28
    18ba:	05 5f       	subi	r16, 0xF5	; 245
    18bc:	1e 4f       	sbci	r17, 0xFE	; 254
    18be:	f8 01       	movw	r30, r16
    18c0:	40 81       	ld	r20, Z
    18c2:	51 81       	ldd	r21, Z+1	; 0x01
    18c4:	62 81       	ldd	r22, Z+2	; 0x02
    18c6:	73 81       	ldd	r23, Z+3	; 0x03
    18c8:	34 96       	adiw	r30, 0x04	; 4
    18ca:	80 81       	ld	r24, Z
    18cc:	91 81       	ldd	r25, Z+1	; 0x01
    18ce:	0e 94 5d 12 	call	0x24ba	; 0x24ba <_ZN6memory6read32Em>
    18d2:	f8 01       	movw	r30, r16
    18d4:	80 80       	ld	r8, Z
    18d6:	91 80       	ldd	r9, Z+1	; 0x01
    18d8:	a2 80       	ldd	r10, Z+2	; 0x02
    18da:	b3 80       	ldd	r11, Z+3	; 0x03
    18dc:	75 01       	movw	r14, r10
    18de:	64 01       	movw	r12, r8
    18e0:	c6 1a       	sub	r12, r22
    18e2:	d7 0a       	sbc	r13, r23
    18e4:	e8 0a       	sbc	r14, r24
    18e6:	f9 0a       	sbc	r15, r25
    18e8:	b7 01       	movw	r22, r14
    18ea:	a6 01       	movw	r20, r12
    18ec:	ce 01       	movw	r24, r28
    18ee:	0e 94 9f 04 	call	0x93e	; 0x93e <_ZN11interpreter7brnepcbEm>
    18f2:	f8 01       	movw	r30, r16
    18f4:	80 81       	ld	r24, Z
    18f6:	91 81       	ldd	r25, Z+1	; 0x01
    18f8:	a2 81       	ldd	r26, Z+2	; 0x02
    18fa:	b3 81       	ldd	r27, Z+3	; 0x03
    18fc:	04 96       	adiw	r24, 0x04	; 4
    18fe:	a1 1d       	adc	r26, r1
    1900:	b1 1d       	adc	r27, r1
    1902:	80 83       	st	Z, r24
    1904:	91 83       	std	Z+1, r25	; 0x01
    1906:	a2 83       	std	Z+2, r26	; 0x02
    1908:	b3 83       	std	Z+3, r27	; 0x03
    190a:	c0 c4       	rjmp	.+2432   	; 0x228c <__stack+0x118d>
    190c:	86 32       	cpi	r24, 0x26	; 38
    190e:	f9 f4       	brne	.+62     	; 0x194e <__stack+0x84f>
    1910:	8e 01       	movw	r16, r28
    1912:	05 5f       	subi	r16, 0xF5	; 245
    1914:	1e 4f       	sbci	r17, 0xFE	; 254
    1916:	f8 01       	movw	r30, r16
    1918:	40 81       	ld	r20, Z
    191a:	51 81       	ldd	r21, Z+1	; 0x01
    191c:	62 81       	ldd	r22, Z+2	; 0x02
    191e:	73 81       	ldd	r23, Z+3	; 0x03
    1920:	34 96       	adiw	r30, 0x04	; 4
    1922:	80 81       	ld	r24, Z
    1924:	91 81       	ldd	r25, Z+1	; 0x01
    1926:	0e 94 5d 12 	call	0x24ba	; 0x24ba <_ZN6memory6read32Em>
    192a:	ab 01       	movw	r20, r22
    192c:	bc 01       	movw	r22, r24
    192e:	ce 01       	movw	r24, r28
    1930:	0e 94 df 04 	call	0x9be	; 0x9be <_ZN11interpreter4brgeEm>
    1934:	f8 01       	movw	r30, r16
    1936:	80 81       	ld	r24, Z
    1938:	91 81       	ldd	r25, Z+1	; 0x01
    193a:	a2 81       	ldd	r26, Z+2	; 0x02
    193c:	b3 81       	ldd	r27, Z+3	; 0x03
    193e:	04 96       	adiw	r24, 0x04	; 4
    1940:	a1 1d       	adc	r26, r1
    1942:	b1 1d       	adc	r27, r1
    1944:	80 83       	st	Z, r24
    1946:	91 83       	std	Z+1, r25	; 0x01
    1948:	a2 83       	std	Z+2, r26	; 0x02
    194a:	b3 83       	std	Z+3, r27	; 0x03
    194c:	9f c4       	rjmp	.+2366   	; 0x228c <__stack+0x118d>
    194e:	87 32       	cpi	r24, 0x27	; 39
    1950:	41 f5       	brne	.+80     	; 0x19a2 <__stack+0x8a3>
    1952:	8e 01       	movw	r16, r28
    1954:	05 5f       	subi	r16, 0xF5	; 245
    1956:	1e 4f       	sbci	r17, 0xFE	; 254
    1958:	f8 01       	movw	r30, r16
    195a:	40 81       	ld	r20, Z
    195c:	51 81       	ldd	r21, Z+1	; 0x01
    195e:	62 81       	ldd	r22, Z+2	; 0x02
    1960:	73 81       	ldd	r23, Z+3	; 0x03
    1962:	34 96       	adiw	r30, 0x04	; 4
    1964:	80 81       	ld	r24, Z
    1966:	91 81       	ldd	r25, Z+1	; 0x01
    1968:	0e 94 5d 12 	call	0x24ba	; 0x24ba <_ZN6memory6read32Em>
    196c:	f8 01       	movw	r30, r16
    196e:	80 80       	ld	r8, Z
    1970:	91 80       	ldd	r9, Z+1	; 0x01
    1972:	a2 80       	ldd	r10, Z+2	; 0x02
    1974:	b3 80       	ldd	r11, Z+3	; 0x03
    1976:	ab 01       	movw	r20, r22
    1978:	bc 01       	movw	r22, r24
    197a:	48 0d       	add	r20, r8
    197c:	59 1d       	adc	r21, r9
    197e:	6a 1d       	adc	r22, r10
    1980:	7b 1d       	adc	r23, r11
    1982:	ce 01       	movw	r24, r28
    1984:	0e 94 fa 04 	call	0x9f4	; 0x9f4 <_ZN11interpreter7brgepcfEm>
    1988:	f8 01       	movw	r30, r16
    198a:	80 81       	ld	r24, Z
    198c:	91 81       	ldd	r25, Z+1	; 0x01
    198e:	a2 81       	ldd	r26, Z+2	; 0x02
    1990:	b3 81       	ldd	r27, Z+3	; 0x03
    1992:	04 96       	adiw	r24, 0x04	; 4
    1994:	a1 1d       	adc	r26, r1
    1996:	b1 1d       	adc	r27, r1
    1998:	80 83       	st	Z, r24
    199a:	91 83       	std	Z+1, r25	; 0x01
    199c:	a2 83       	std	Z+2, r26	; 0x02
    199e:	b3 83       	std	Z+3, r27	; 0x03
    19a0:	75 c4       	rjmp	.+2282   	; 0x228c <__stack+0x118d>
    19a2:	88 32       	cpi	r24, 0x28	; 40
    19a4:	51 f5       	brne	.+84     	; 0x19fa <__stack+0x8fb>
    19a6:	8e 01       	movw	r16, r28
    19a8:	05 5f       	subi	r16, 0xF5	; 245
    19aa:	1e 4f       	sbci	r17, 0xFE	; 254
    19ac:	f8 01       	movw	r30, r16
    19ae:	40 81       	ld	r20, Z
    19b0:	51 81       	ldd	r21, Z+1	; 0x01
    19b2:	62 81       	ldd	r22, Z+2	; 0x02
    19b4:	73 81       	ldd	r23, Z+3	; 0x03
    19b6:	34 96       	adiw	r30, 0x04	; 4
    19b8:	80 81       	ld	r24, Z
    19ba:	91 81       	ldd	r25, Z+1	; 0x01
    19bc:	0e 94 5d 12 	call	0x24ba	; 0x24ba <_ZN6memory6read32Em>
    19c0:	f8 01       	movw	r30, r16
    19c2:	80 80       	ld	r8, Z
    19c4:	91 80       	ldd	r9, Z+1	; 0x01
    19c6:	a2 80       	ldd	r10, Z+2	; 0x02
    19c8:	b3 80       	ldd	r11, Z+3	; 0x03
    19ca:	75 01       	movw	r14, r10
    19cc:	64 01       	movw	r12, r8
    19ce:	c6 1a       	sub	r12, r22
    19d0:	d7 0a       	sbc	r13, r23
    19d2:	e8 0a       	sbc	r14, r24
    19d4:	f9 0a       	sbc	r15, r25
    19d6:	b7 01       	movw	r22, r14
    19d8:	a6 01       	movw	r20, r12
    19da:	ce 01       	movw	r24, r28
    19dc:	0e 94 25 05 	call	0xa4a	; 0xa4a <_ZN11interpreter7brgepcbEm>
    19e0:	f8 01       	movw	r30, r16
    19e2:	80 81       	ld	r24, Z
    19e4:	91 81       	ldd	r25, Z+1	; 0x01
    19e6:	a2 81       	ldd	r26, Z+2	; 0x02
    19e8:	b3 81       	ldd	r27, Z+3	; 0x03
    19ea:	04 96       	adiw	r24, 0x04	; 4
    19ec:	a1 1d       	adc	r26, r1
    19ee:	b1 1d       	adc	r27, r1
    19f0:	80 83       	st	Z, r24
    19f2:	91 83       	std	Z+1, r25	; 0x01
    19f4:	a2 83       	std	Z+2, r26	; 0x02
    19f6:	b3 83       	std	Z+3, r27	; 0x03
    19f8:	49 c4       	rjmp	.+2194   	; 0x228c <__stack+0x118d>
    19fa:	89 32       	cpi	r24, 0x29	; 41
    19fc:	f9 f4       	brne	.+62     	; 0x1a3c <__stack+0x93d>
    19fe:	8e 01       	movw	r16, r28
    1a00:	05 5f       	subi	r16, 0xF5	; 245
    1a02:	1e 4f       	sbci	r17, 0xFE	; 254
    1a04:	f8 01       	movw	r30, r16
    1a06:	40 81       	ld	r20, Z
    1a08:	51 81       	ldd	r21, Z+1	; 0x01
    1a0a:	62 81       	ldd	r22, Z+2	; 0x02
    1a0c:	73 81       	ldd	r23, Z+3	; 0x03
    1a0e:	34 96       	adiw	r30, 0x04	; 4
    1a10:	80 81       	ld	r24, Z
    1a12:	91 81       	ldd	r25, Z+1	; 0x01
    1a14:	0e 94 5d 12 	call	0x24ba	; 0x24ba <_ZN6memory6read32Em>
    1a18:	ab 01       	movw	r20, r22
    1a1a:	bc 01       	movw	r22, r24
    1a1c:	ce 01       	movw	r24, r28
    1a1e:	0e 94 5c 05 	call	0xab8	; 0xab8 <_ZN11interpreter4brleEm>
    1a22:	f8 01       	movw	r30, r16
    1a24:	80 81       	ld	r24, Z
    1a26:	91 81       	ldd	r25, Z+1	; 0x01
    1a28:	a2 81       	ldd	r26, Z+2	; 0x02
    1a2a:	b3 81       	ldd	r27, Z+3	; 0x03
    1a2c:	04 96       	adiw	r24, 0x04	; 4
    1a2e:	a1 1d       	adc	r26, r1
    1a30:	b1 1d       	adc	r27, r1
    1a32:	80 83       	st	Z, r24
    1a34:	91 83       	std	Z+1, r25	; 0x01
    1a36:	a2 83       	std	Z+2, r26	; 0x02
    1a38:	b3 83       	std	Z+3, r27	; 0x03
    1a3a:	28 c4       	rjmp	.+2128   	; 0x228c <__stack+0x118d>
    1a3c:	8a 32       	cpi	r24, 0x2A	; 42
    1a3e:	41 f5       	brne	.+80     	; 0x1a90 <__stack+0x991>
    1a40:	8e 01       	movw	r16, r28
    1a42:	05 5f       	subi	r16, 0xF5	; 245
    1a44:	1e 4f       	sbci	r17, 0xFE	; 254
    1a46:	f8 01       	movw	r30, r16
    1a48:	40 81       	ld	r20, Z
    1a4a:	51 81       	ldd	r21, Z+1	; 0x01
    1a4c:	62 81       	ldd	r22, Z+2	; 0x02
    1a4e:	73 81       	ldd	r23, Z+3	; 0x03
    1a50:	34 96       	adiw	r30, 0x04	; 4
    1a52:	80 81       	ld	r24, Z
    1a54:	91 81       	ldd	r25, Z+1	; 0x01
    1a56:	0e 94 5d 12 	call	0x24ba	; 0x24ba <_ZN6memory6read32Em>
    1a5a:	f8 01       	movw	r30, r16
    1a5c:	80 80       	ld	r8, Z
    1a5e:	91 80       	ldd	r9, Z+1	; 0x01
    1a60:	a2 80       	ldd	r10, Z+2	; 0x02
    1a62:	b3 80       	ldd	r11, Z+3	; 0x03
    1a64:	ab 01       	movw	r20, r22
    1a66:	bc 01       	movw	r22, r24
    1a68:	48 0d       	add	r20, r8
    1a6a:	59 1d       	adc	r21, r9
    1a6c:	6a 1d       	adc	r22, r10
    1a6e:	7b 1d       	adc	r23, r11
    1a70:	ce 01       	movw	r24, r28
    1a72:	0e 94 79 05 	call	0xaf2	; 0xaf2 <_ZN11interpreter7brlepcfEm>
    1a76:	f8 01       	movw	r30, r16
    1a78:	80 81       	ld	r24, Z
    1a7a:	91 81       	ldd	r25, Z+1	; 0x01
    1a7c:	a2 81       	ldd	r26, Z+2	; 0x02
    1a7e:	b3 81       	ldd	r27, Z+3	; 0x03
    1a80:	04 96       	adiw	r24, 0x04	; 4
    1a82:	a1 1d       	adc	r26, r1
    1a84:	b1 1d       	adc	r27, r1
    1a86:	80 83       	st	Z, r24
    1a88:	91 83       	std	Z+1, r25	; 0x01
    1a8a:	a2 83       	std	Z+2, r26	; 0x02
    1a8c:	b3 83       	std	Z+3, r27	; 0x03
    1a8e:	fe c3       	rjmp	.+2044   	; 0x228c <__stack+0x118d>
    1a90:	8b 32       	cpi	r24, 0x2B	; 43
    1a92:	51 f5       	brne	.+84     	; 0x1ae8 <__stack+0x9e9>
    1a94:	8e 01       	movw	r16, r28
    1a96:	05 5f       	subi	r16, 0xF5	; 245
    1a98:	1e 4f       	sbci	r17, 0xFE	; 254
    1a9a:	f8 01       	movw	r30, r16
    1a9c:	40 81       	ld	r20, Z
    1a9e:	51 81       	ldd	r21, Z+1	; 0x01
    1aa0:	62 81       	ldd	r22, Z+2	; 0x02
    1aa2:	73 81       	ldd	r23, Z+3	; 0x03
    1aa4:	34 96       	adiw	r30, 0x04	; 4
    1aa6:	80 81       	ld	r24, Z
    1aa8:	91 81       	ldd	r25, Z+1	; 0x01
    1aaa:	0e 94 5d 12 	call	0x24ba	; 0x24ba <_ZN6memory6read32Em>
    1aae:	f8 01       	movw	r30, r16
    1ab0:	80 80       	ld	r8, Z
    1ab2:	91 80       	ldd	r9, Z+1	; 0x01
    1ab4:	a2 80       	ldd	r10, Z+2	; 0x02
    1ab6:	b3 80       	ldd	r11, Z+3	; 0x03
    1ab8:	75 01       	movw	r14, r10
    1aba:	64 01       	movw	r12, r8
    1abc:	c6 1a       	sub	r12, r22
    1abe:	d7 0a       	sbc	r13, r23
    1ac0:	e8 0a       	sbc	r14, r24
    1ac2:	f9 0a       	sbc	r15, r25
    1ac4:	b7 01       	movw	r22, r14
    1ac6:	a6 01       	movw	r20, r12
    1ac8:	ce 01       	movw	r24, r28
    1aca:	0e 94 a6 05 	call	0xb4c	; 0xb4c <_ZN11interpreter7brlepcbEm>
    1ace:	f8 01       	movw	r30, r16
    1ad0:	80 81       	ld	r24, Z
    1ad2:	91 81       	ldd	r25, Z+1	; 0x01
    1ad4:	a2 81       	ldd	r26, Z+2	; 0x02
    1ad6:	b3 81       	ldd	r27, Z+3	; 0x03
    1ad8:	04 96       	adiw	r24, 0x04	; 4
    1ada:	a1 1d       	adc	r26, r1
    1adc:	b1 1d       	adc	r27, r1
    1ade:	80 83       	st	Z, r24
    1ae0:	91 83       	std	Z+1, r25	; 0x01
    1ae2:	a2 83       	std	Z+2, r26	; 0x02
    1ae4:	b3 83       	std	Z+3, r27	; 0x03
    1ae6:	d2 c3       	rjmp	.+1956   	; 0x228c <__stack+0x118d>
    1ae8:	8c 32       	cpi	r24, 0x2C	; 44
    1aea:	f9 f4       	brne	.+62     	; 0x1b2a <__stack+0xa2b>
    1aec:	8e 01       	movw	r16, r28
    1aee:	05 5f       	subi	r16, 0xF5	; 245
    1af0:	1e 4f       	sbci	r17, 0xFE	; 254
    1af2:	f8 01       	movw	r30, r16
    1af4:	40 81       	ld	r20, Z
    1af6:	51 81       	ldd	r21, Z+1	; 0x01
    1af8:	62 81       	ldd	r22, Z+2	; 0x02
    1afa:	73 81       	ldd	r23, Z+3	; 0x03
    1afc:	34 96       	adiw	r30, 0x04	; 4
    1afe:	80 81       	ld	r24, Z
    1b00:	91 81       	ldd	r25, Z+1	; 0x01
    1b02:	0e 94 5d 12 	call	0x24ba	; 0x24ba <_ZN6memory6read32Em>
    1b06:	ab 01       	movw	r20, r22
    1b08:	bc 01       	movw	r22, r24
    1b0a:	ce 01       	movw	r24, r28
    1b0c:	0e 94 df 05 	call	0xbbe	; 0xbbe <_ZN11interpreter3brgEm>
    1b10:	f8 01       	movw	r30, r16
    1b12:	80 81       	ld	r24, Z
    1b14:	91 81       	ldd	r25, Z+1	; 0x01
    1b16:	a2 81       	ldd	r26, Z+2	; 0x02
    1b18:	b3 81       	ldd	r27, Z+3	; 0x03
    1b1a:	04 96       	adiw	r24, 0x04	; 4
    1b1c:	a1 1d       	adc	r26, r1
    1b1e:	b1 1d       	adc	r27, r1
    1b20:	80 83       	st	Z, r24
    1b22:	91 83       	std	Z+1, r25	; 0x01
    1b24:	a2 83       	std	Z+2, r26	; 0x02
    1b26:	b3 83       	std	Z+3, r27	; 0x03
    1b28:	b1 c3       	rjmp	.+1890   	; 0x228c <__stack+0x118d>
    1b2a:	8d 32       	cpi	r24, 0x2D	; 45
    1b2c:	41 f5       	brne	.+80     	; 0x1b7e <__stack+0xa7f>
    1b2e:	8e 01       	movw	r16, r28
    1b30:	05 5f       	subi	r16, 0xF5	; 245
    1b32:	1e 4f       	sbci	r17, 0xFE	; 254
    1b34:	f8 01       	movw	r30, r16
    1b36:	40 81       	ld	r20, Z
    1b38:	51 81       	ldd	r21, Z+1	; 0x01
    1b3a:	62 81       	ldd	r22, Z+2	; 0x02
    1b3c:	73 81       	ldd	r23, Z+3	; 0x03
    1b3e:	34 96       	adiw	r30, 0x04	; 4
    1b40:	80 81       	ld	r24, Z
    1b42:	91 81       	ldd	r25, Z+1	; 0x01
    1b44:	0e 94 5d 12 	call	0x24ba	; 0x24ba <_ZN6memory6read32Em>
    1b48:	f8 01       	movw	r30, r16
    1b4a:	80 80       	ld	r8, Z
    1b4c:	91 80       	ldd	r9, Z+1	; 0x01
    1b4e:	a2 80       	ldd	r10, Z+2	; 0x02
    1b50:	b3 80       	ldd	r11, Z+3	; 0x03
    1b52:	ab 01       	movw	r20, r22
    1b54:	bc 01       	movw	r22, r24
    1b56:	48 0d       	add	r20, r8
    1b58:	59 1d       	adc	r21, r9
    1b5a:	6a 1d       	adc	r22, r10
    1b5c:	7b 1d       	adc	r23, r11
    1b5e:	ce 01       	movw	r24, r28
    1b60:	0e 94 fa 05 	call	0xbf4	; 0xbf4 <_ZN11interpreter6brgpcfEm>
    1b64:	f8 01       	movw	r30, r16
    1b66:	80 81       	ld	r24, Z
    1b68:	91 81       	ldd	r25, Z+1	; 0x01
    1b6a:	a2 81       	ldd	r26, Z+2	; 0x02
    1b6c:	b3 81       	ldd	r27, Z+3	; 0x03
    1b6e:	04 96       	adiw	r24, 0x04	; 4
    1b70:	a1 1d       	adc	r26, r1
    1b72:	b1 1d       	adc	r27, r1
    1b74:	80 83       	st	Z, r24
    1b76:	91 83       	std	Z+1, r25	; 0x01
    1b78:	a2 83       	std	Z+2, r26	; 0x02
    1b7a:	b3 83       	std	Z+3, r27	; 0x03
    1b7c:	87 c3       	rjmp	.+1806   	; 0x228c <__stack+0x118d>
    1b7e:	8e 32       	cpi	r24, 0x2E	; 46
    1b80:	51 f5       	brne	.+84     	; 0x1bd6 <__stack+0xad7>
    1b82:	8e 01       	movw	r16, r28
    1b84:	05 5f       	subi	r16, 0xF5	; 245
    1b86:	1e 4f       	sbci	r17, 0xFE	; 254
    1b88:	f8 01       	movw	r30, r16
    1b8a:	40 81       	ld	r20, Z
    1b8c:	51 81       	ldd	r21, Z+1	; 0x01
    1b8e:	62 81       	ldd	r22, Z+2	; 0x02
    1b90:	73 81       	ldd	r23, Z+3	; 0x03
    1b92:	34 96       	adiw	r30, 0x04	; 4
    1b94:	80 81       	ld	r24, Z
    1b96:	91 81       	ldd	r25, Z+1	; 0x01
    1b98:	0e 94 5d 12 	call	0x24ba	; 0x24ba <_ZN6memory6read32Em>
    1b9c:	f8 01       	movw	r30, r16
    1b9e:	80 80       	ld	r8, Z
    1ba0:	91 80       	ldd	r9, Z+1	; 0x01
    1ba2:	a2 80       	ldd	r10, Z+2	; 0x02
    1ba4:	b3 80       	ldd	r11, Z+3	; 0x03
    1ba6:	75 01       	movw	r14, r10
    1ba8:	64 01       	movw	r12, r8
    1baa:	c6 1a       	sub	r12, r22
    1bac:	d7 0a       	sbc	r13, r23
    1bae:	e8 0a       	sbc	r14, r24
    1bb0:	f9 0a       	sbc	r15, r25
    1bb2:	b7 01       	movw	r22, r14
    1bb4:	a6 01       	movw	r20, r12
    1bb6:	ce 01       	movw	r24, r28
    1bb8:	0e 94 25 06 	call	0xc4a	; 0xc4a <_ZN11interpreter6brgpcbEm>
    1bbc:	f8 01       	movw	r30, r16
    1bbe:	80 81       	ld	r24, Z
    1bc0:	91 81       	ldd	r25, Z+1	; 0x01
    1bc2:	a2 81       	ldd	r26, Z+2	; 0x02
    1bc4:	b3 81       	ldd	r27, Z+3	; 0x03
    1bc6:	04 96       	adiw	r24, 0x04	; 4
    1bc8:	a1 1d       	adc	r26, r1
    1bca:	b1 1d       	adc	r27, r1
    1bcc:	80 83       	st	Z, r24
    1bce:	91 83       	std	Z+1, r25	; 0x01
    1bd0:	a2 83       	std	Z+2, r26	; 0x02
    1bd2:	b3 83       	std	Z+3, r27	; 0x03
    1bd4:	5b c3       	rjmp	.+1718   	; 0x228c <__stack+0x118d>
    1bd6:	8f 32       	cpi	r24, 0x2F	; 47
    1bd8:	f9 f4       	brne	.+62     	; 0x1c18 <__stack+0xb19>
    1bda:	8e 01       	movw	r16, r28
    1bdc:	05 5f       	subi	r16, 0xF5	; 245
    1bde:	1e 4f       	sbci	r17, 0xFE	; 254
    1be0:	f8 01       	movw	r30, r16
    1be2:	40 81       	ld	r20, Z
    1be4:	51 81       	ldd	r21, Z+1	; 0x01
    1be6:	62 81       	ldd	r22, Z+2	; 0x02
    1be8:	73 81       	ldd	r23, Z+3	; 0x03
    1bea:	34 96       	adiw	r30, 0x04	; 4
    1bec:	80 81       	ld	r24, Z
    1bee:	91 81       	ldd	r25, Z+1	; 0x01
    1bf0:	0e 94 5d 12 	call	0x24ba	; 0x24ba <_ZN6memory6read32Em>
    1bf4:	ab 01       	movw	r20, r22
    1bf6:	bc 01       	movw	r22, r24
    1bf8:	ce 01       	movw	r24, r28
    1bfa:	0e 94 5c 06 	call	0xcb8	; 0xcb8 <_ZN11interpreter3brlEm>
    1bfe:	f8 01       	movw	r30, r16
    1c00:	80 81       	ld	r24, Z
    1c02:	91 81       	ldd	r25, Z+1	; 0x01
    1c04:	a2 81       	ldd	r26, Z+2	; 0x02
    1c06:	b3 81       	ldd	r27, Z+3	; 0x03
    1c08:	04 96       	adiw	r24, 0x04	; 4
    1c0a:	a1 1d       	adc	r26, r1
    1c0c:	b1 1d       	adc	r27, r1
    1c0e:	80 83       	st	Z, r24
    1c10:	91 83       	std	Z+1, r25	; 0x01
    1c12:	a2 83       	std	Z+2, r26	; 0x02
    1c14:	b3 83       	std	Z+3, r27	; 0x03
    1c16:	3a c3       	rjmp	.+1652   	; 0x228c <__stack+0x118d>
    1c18:	80 33       	cpi	r24, 0x30	; 48
    1c1a:	41 f5       	brne	.+80     	; 0x1c6c <__stack+0xb6d>
    1c1c:	8e 01       	movw	r16, r28
    1c1e:	05 5f       	subi	r16, 0xF5	; 245
    1c20:	1e 4f       	sbci	r17, 0xFE	; 254
    1c22:	f8 01       	movw	r30, r16
    1c24:	40 81       	ld	r20, Z
    1c26:	51 81       	ldd	r21, Z+1	; 0x01
    1c28:	62 81       	ldd	r22, Z+2	; 0x02
    1c2a:	73 81       	ldd	r23, Z+3	; 0x03
    1c2c:	34 96       	adiw	r30, 0x04	; 4
    1c2e:	80 81       	ld	r24, Z
    1c30:	91 81       	ldd	r25, Z+1	; 0x01
    1c32:	0e 94 5d 12 	call	0x24ba	; 0x24ba <_ZN6memory6read32Em>
    1c36:	f8 01       	movw	r30, r16
    1c38:	80 80       	ld	r8, Z
    1c3a:	91 80       	ldd	r9, Z+1	; 0x01
    1c3c:	a2 80       	ldd	r10, Z+2	; 0x02
    1c3e:	b3 80       	ldd	r11, Z+3	; 0x03
    1c40:	ab 01       	movw	r20, r22
    1c42:	bc 01       	movw	r22, r24
    1c44:	48 0d       	add	r20, r8
    1c46:	59 1d       	adc	r21, r9
    1c48:	6a 1d       	adc	r22, r10
    1c4a:	7b 1d       	adc	r23, r11
    1c4c:	ce 01       	movw	r24, r28
    1c4e:	0e 94 79 06 	call	0xcf2	; 0xcf2 <_ZN11interpreter6brlpcfEm>
    1c52:	f8 01       	movw	r30, r16
    1c54:	80 81       	ld	r24, Z
    1c56:	91 81       	ldd	r25, Z+1	; 0x01
    1c58:	a2 81       	ldd	r26, Z+2	; 0x02
    1c5a:	b3 81       	ldd	r27, Z+3	; 0x03
    1c5c:	04 96       	adiw	r24, 0x04	; 4
    1c5e:	a1 1d       	adc	r26, r1
    1c60:	b1 1d       	adc	r27, r1
    1c62:	80 83       	st	Z, r24
    1c64:	91 83       	std	Z+1, r25	; 0x01
    1c66:	a2 83       	std	Z+2, r26	; 0x02
    1c68:	b3 83       	std	Z+3, r27	; 0x03
    1c6a:	10 c3       	rjmp	.+1568   	; 0x228c <__stack+0x118d>
    1c6c:	81 33       	cpi	r24, 0x31	; 49
    1c6e:	51 f5       	brne	.+84     	; 0x1cc4 <__stack+0xbc5>
    1c70:	8e 01       	movw	r16, r28
    1c72:	05 5f       	subi	r16, 0xF5	; 245
    1c74:	1e 4f       	sbci	r17, 0xFE	; 254
    1c76:	f8 01       	movw	r30, r16
    1c78:	40 81       	ld	r20, Z
    1c7a:	51 81       	ldd	r21, Z+1	; 0x01
    1c7c:	62 81       	ldd	r22, Z+2	; 0x02
    1c7e:	73 81       	ldd	r23, Z+3	; 0x03
    1c80:	34 96       	adiw	r30, 0x04	; 4
    1c82:	80 81       	ld	r24, Z
    1c84:	91 81       	ldd	r25, Z+1	; 0x01
    1c86:	0e 94 5d 12 	call	0x24ba	; 0x24ba <_ZN6memory6read32Em>
    1c8a:	f8 01       	movw	r30, r16
    1c8c:	80 80       	ld	r8, Z
    1c8e:	91 80       	ldd	r9, Z+1	; 0x01
    1c90:	a2 80       	ldd	r10, Z+2	; 0x02
    1c92:	b3 80       	ldd	r11, Z+3	; 0x03
    1c94:	75 01       	movw	r14, r10
    1c96:	64 01       	movw	r12, r8
    1c98:	c6 1a       	sub	r12, r22
    1c9a:	d7 0a       	sbc	r13, r23
    1c9c:	e8 0a       	sbc	r14, r24
    1c9e:	f9 0a       	sbc	r15, r25
    1ca0:	b7 01       	movw	r22, r14
    1ca2:	a6 01       	movw	r20, r12
    1ca4:	ce 01       	movw	r24, r28
    1ca6:	0e 94 a6 06 	call	0xd4c	; 0xd4c <_ZN11interpreter6brlpcbEm>
    1caa:	f8 01       	movw	r30, r16
    1cac:	80 81       	ld	r24, Z
    1cae:	91 81       	ldd	r25, Z+1	; 0x01
    1cb0:	a2 81       	ldd	r26, Z+2	; 0x02
    1cb2:	b3 81       	ldd	r27, Z+3	; 0x03
    1cb4:	04 96       	adiw	r24, 0x04	; 4
    1cb6:	a1 1d       	adc	r26, r1
    1cb8:	b1 1d       	adc	r27, r1
    1cba:	80 83       	st	Z, r24
    1cbc:	91 83       	std	Z+1, r25	; 0x01
    1cbe:	a2 83       	std	Z+2, r26	; 0x02
    1cc0:	b3 83       	std	Z+3, r27	; 0x03
    1cc2:	e4 c2       	rjmp	.+1480   	; 0x228c <__stack+0x118d>
    1cc4:	82 33       	cpi	r24, 0x32	; 50
    1cc6:	11 f5       	brne	.+68     	; 0x1d0c <__stack+0xc0d>
    1cc8:	8e 01       	movw	r16, r28
    1cca:	05 5f       	subi	r16, 0xF5	; 245
    1ccc:	1e 4f       	sbci	r17, 0xFE	; 254
    1cce:	f8 01       	movw	r30, r16
    1cd0:	40 81       	ld	r20, Z
    1cd2:	51 81       	ldd	r21, Z+1	; 0x01
    1cd4:	62 81       	ldd	r22, Z+2	; 0x02
    1cd6:	73 81       	ldd	r23, Z+3	; 0x03
    1cd8:	4f 5f       	subi	r20, 0xFF	; 255
    1cda:	5f 4f       	sbci	r21, 0xFF	; 255
    1cdc:	6f 4f       	sbci	r22, 0xFF	; 255
    1cde:	7f 4f       	sbci	r23, 0xFF	; 255
    1ce0:	34 96       	adiw	r30, 0x04	; 4
    1ce2:	80 81       	ld	r24, Z
    1ce4:	91 81       	ldd	r25, Z+1	; 0x01
    1ce6:	0e 94 4f 12 	call	0x249e	; 0x249e <_ZN6memory4readEm>
    1cea:	68 2f       	mov	r22, r24
    1cec:	ce 01       	movw	r24, r28
    1cee:	0e 94 e3 03 	call	0x7c6	; 0x7c6 <_ZN11interpreter3clrEh>
    1cf2:	f8 01       	movw	r30, r16
    1cf4:	80 81       	ld	r24, Z
    1cf6:	91 81       	ldd	r25, Z+1	; 0x01
    1cf8:	a2 81       	ldd	r26, Z+2	; 0x02
    1cfa:	b3 81       	ldd	r27, Z+3	; 0x03
    1cfc:	01 96       	adiw	r24, 0x01	; 1
    1cfe:	a1 1d       	adc	r26, r1
    1d00:	b1 1d       	adc	r27, r1
    1d02:	80 83       	st	Z, r24
    1d04:	91 83       	std	Z+1, r25	; 0x01
    1d06:	a2 83       	std	Z+2, r26	; 0x02
    1d08:	b3 83       	std	Z+3, r27	; 0x03
    1d0a:	c0 c2       	rjmp	.+1408   	; 0x228c <__stack+0x118d>
    1d0c:	83 33       	cpi	r24, 0x33	; 51
    1d0e:	21 f4       	brne	.+8      	; 0x1d18 <__stack+0xc19>
    1d10:	ce 01       	movw	r24, r28
    1d12:	0e 94 7c 07 	call	0xef8	; 0xef8 <_ZN11interpreter3clfEv>
    1d16:	ba c2       	rjmp	.+1396   	; 0x228c <__stack+0x118d>
    1d18:	84 33       	cpi	r24, 0x34	; 52
    1d1a:	11 f5       	brne	.+68     	; 0x1d60 <__stack+0xc61>
    1d1c:	8e 01       	movw	r16, r28
    1d1e:	05 5f       	subi	r16, 0xF5	; 245
    1d20:	1e 4f       	sbci	r17, 0xFE	; 254
    1d22:	f8 01       	movw	r30, r16
    1d24:	40 81       	ld	r20, Z
    1d26:	51 81       	ldd	r21, Z+1	; 0x01
    1d28:	62 81       	ldd	r22, Z+2	; 0x02
    1d2a:	73 81       	ldd	r23, Z+3	; 0x03
    1d2c:	4f 5f       	subi	r20, 0xFF	; 255
    1d2e:	5f 4f       	sbci	r21, 0xFF	; 255
    1d30:	6f 4f       	sbci	r22, 0xFF	; 255
    1d32:	7f 4f       	sbci	r23, 0xFF	; 255
    1d34:	34 96       	adiw	r30, 0x04	; 4
    1d36:	80 81       	ld	r24, Z
    1d38:	91 81       	ldd	r25, Z+1	; 0x01
    1d3a:	0e 94 4f 12 	call	0x249e	; 0x249e <_ZN6memory4readEm>
    1d3e:	68 2f       	mov	r22, r24
    1d40:	ce 01       	movw	r24, r28
    1d42:	0e 94 59 07 	call	0xeb2	; 0xeb2 <_ZN11interpreter4swapEh>
    1d46:	f8 01       	movw	r30, r16
    1d48:	80 81       	ld	r24, Z
    1d4a:	91 81       	ldd	r25, Z+1	; 0x01
    1d4c:	a2 81       	ldd	r26, Z+2	; 0x02
    1d4e:	b3 81       	ldd	r27, Z+3	; 0x03
    1d50:	01 96       	adiw	r24, 0x01	; 1
    1d52:	a1 1d       	adc	r26, r1
    1d54:	b1 1d       	adc	r27, r1
    1d56:	80 83       	st	Z, r24
    1d58:	91 83       	std	Z+1, r25	; 0x01
    1d5a:	a2 83       	std	Z+2, r26	; 0x02
    1d5c:	b3 83       	std	Z+3, r27	; 0x03
    1d5e:	96 c2       	rjmp	.+1324   	; 0x228c <__stack+0x118d>
    1d60:	85 33       	cpi	r24, 0x35	; 53
    1d62:	11 f5       	brne	.+68     	; 0x1da8 <__stack+0xca9>
    1d64:	8e 01       	movw	r16, r28
    1d66:	05 5f       	subi	r16, 0xF5	; 245
    1d68:	1e 4f       	sbci	r17, 0xFE	; 254
    1d6a:	f8 01       	movw	r30, r16
    1d6c:	40 81       	ld	r20, Z
    1d6e:	51 81       	ldd	r21, Z+1	; 0x01
    1d70:	62 81       	ldd	r22, Z+2	; 0x02
    1d72:	73 81       	ldd	r23, Z+3	; 0x03
    1d74:	4f 5f       	subi	r20, 0xFF	; 255
    1d76:	5f 4f       	sbci	r21, 0xFF	; 255
    1d78:	6f 4f       	sbci	r22, 0xFF	; 255
    1d7a:	7f 4f       	sbci	r23, 0xFF	; 255
    1d7c:	34 96       	adiw	r30, 0x04	; 4
    1d7e:	80 81       	ld	r24, Z
    1d80:	91 81       	ldd	r25, Z+1	; 0x01
    1d82:	0e 94 4f 12 	call	0x249e	; 0x249e <_ZN6memory4readEm>
    1d86:	68 2f       	mov	r22, r24
    1d88:	ce 01       	movw	r24, r28
    1d8a:	0e 94 48 07 	call	0xe90	; 0xe90 <_ZN11interpreter3popEh>
    1d8e:	f8 01       	movw	r30, r16
    1d90:	80 81       	ld	r24, Z
    1d92:	91 81       	ldd	r25, Z+1	; 0x01
    1d94:	a2 81       	ldd	r26, Z+2	; 0x02
    1d96:	b3 81       	ldd	r27, Z+3	; 0x03
    1d98:	01 96       	adiw	r24, 0x01	; 1
    1d9a:	a1 1d       	adc	r26, r1
    1d9c:	b1 1d       	adc	r27, r1
    1d9e:	80 83       	st	Z, r24
    1da0:	91 83       	std	Z+1, r25	; 0x01
    1da2:	a2 83       	std	Z+2, r26	; 0x02
    1da4:	b3 83       	std	Z+3, r27	; 0x03
    1da6:	72 c2       	rjmp	.+1252   	; 0x228c <__stack+0x118d>
    1da8:	86 33       	cpi	r24, 0x36	; 54
    1daa:	11 f5       	brne	.+68     	; 0x1df0 <__stack+0xcf1>
    1dac:	8e 01       	movw	r16, r28
    1dae:	05 5f       	subi	r16, 0xF5	; 245
    1db0:	1e 4f       	sbci	r17, 0xFE	; 254
    1db2:	f8 01       	movw	r30, r16
    1db4:	40 81       	ld	r20, Z
    1db6:	51 81       	ldd	r21, Z+1	; 0x01
    1db8:	62 81       	ldd	r22, Z+2	; 0x02
    1dba:	73 81       	ldd	r23, Z+3	; 0x03
    1dbc:	4f 5f       	subi	r20, 0xFF	; 255
    1dbe:	5f 4f       	sbci	r21, 0xFF	; 255
    1dc0:	6f 4f       	sbci	r22, 0xFF	; 255
    1dc2:	7f 4f       	sbci	r23, 0xFF	; 255
    1dc4:	34 96       	adiw	r30, 0x04	; 4
    1dc6:	80 81       	ld	r24, Z
    1dc8:	91 81       	ldd	r25, Z+1	; 0x01
    1dca:	0e 94 4f 12 	call	0x249e	; 0x249e <_ZN6memory4readEm>
    1dce:	68 2f       	mov	r22, r24
    1dd0:	ce 01       	movw	r24, r28
    1dd2:	0e 94 df 06 	call	0xdbe	; 0xdbe <_ZN11interpreter4pushEh>
    1dd6:	f8 01       	movw	r30, r16
    1dd8:	80 81       	ld	r24, Z
    1dda:	91 81       	ldd	r25, Z+1	; 0x01
    1ddc:	a2 81       	ldd	r26, Z+2	; 0x02
    1dde:	b3 81       	ldd	r27, Z+3	; 0x03
    1de0:	01 96       	adiw	r24, 0x01	; 1
    1de2:	a1 1d       	adc	r26, r1
    1de4:	b1 1d       	adc	r27, r1
    1de6:	80 83       	st	Z, r24
    1de8:	91 83       	std	Z+1, r25	; 0x01
    1dea:	a2 83       	std	Z+2, r26	; 0x02
    1dec:	b3 83       	std	Z+3, r27	; 0x03
    1dee:	4e c2       	rjmp	.+1180   	; 0x228c <__stack+0x118d>
    1df0:	87 33       	cpi	r24, 0x37	; 55
    1df2:	d9 f5       	brne	.+118    	; 0x1e6a <__stack+0xd6b>
    1df4:	8e 01       	movw	r16, r28
    1df6:	05 5f       	subi	r16, 0xF5	; 245
    1df8:	1e 4f       	sbci	r17, 0xFE	; 254
    1dfa:	f8 01       	movw	r30, r16
    1dfc:	40 81       	ld	r20, Z
    1dfe:	51 81       	ldd	r21, Z+1	; 0x01
    1e00:	62 81       	ldd	r22, Z+2	; 0x02
    1e02:	73 81       	ldd	r23, Z+3	; 0x03
    1e04:	4f 5f       	subi	r20, 0xFF	; 255
    1e06:	5f 4f       	sbci	r21, 0xFF	; 255
    1e08:	6f 4f       	sbci	r22, 0xFF	; 255
    1e0a:	7f 4f       	sbci	r23, 0xFF	; 255
    1e0c:	34 96       	adiw	r30, 0x04	; 4
    1e0e:	80 81       	ld	r24, Z
    1e10:	91 81       	ldd	r25, Z+1	; 0x01
    1e12:	0e 94 4f 12 	call	0x249e	; 0x249e <_ZN6memory4readEm>
    1e16:	e8 2f       	mov	r30, r24
    1e18:	f0 e0       	ldi	r31, 0x00	; 0
    1e1a:	ee 0f       	add	r30, r30
    1e1c:	ff 1f       	adc	r31, r31
    1e1e:	ec 0f       	add	r30, r28
    1e20:	fd 1f       	adc	r31, r29
    1e22:	eb 5e       	subi	r30, 0xEB	; 235
    1e24:	fe 4f       	sbci	r31, 0xFE	; 254
    1e26:	01 90       	ld	r0, Z+
    1e28:	f0 81       	ld	r31, Z
    1e2a:	e0 2d       	mov	r30, r0
    1e2c:	a2 81       	ldd	r26, Z+2	; 0x02
    1e2e:	b3 81       	ldd	r27, Z+3	; 0x03
    1e30:	6c 91       	ld	r22, X
    1e32:	70 e0       	ldi	r23, 0x00	; 0
    1e34:	76 2f       	mov	r23, r22
    1e36:	66 27       	eor	r22, r22
    1e38:	01 90       	ld	r0, Z+
    1e3a:	f0 81       	ld	r31, Z
    1e3c:	e0 2d       	mov	r30, r0
    1e3e:	80 81       	ld	r24, Z
    1e40:	68 2b       	or	r22, r24
    1e42:	07 2e       	mov	r0, r23
    1e44:	00 0c       	add	r0, r0
    1e46:	88 0b       	sbc	r24, r24
    1e48:	99 0b       	sbc	r25, r25
    1e4a:	ce 01       	movw	r24, r28
    1e4c:	0e 94 df 06 	call	0xdbe	; 0xdbe <_ZN11interpreter4pushEh>
    1e50:	f8 01       	movw	r30, r16
    1e52:	80 81       	ld	r24, Z
    1e54:	91 81       	ldd	r25, Z+1	; 0x01
    1e56:	a2 81       	ldd	r26, Z+2	; 0x02
    1e58:	b3 81       	ldd	r27, Z+3	; 0x03
    1e5a:	01 96       	adiw	r24, 0x01	; 1
    1e5c:	a1 1d       	adc	r26, r1
    1e5e:	b1 1d       	adc	r27, r1
    1e60:	80 83       	st	Z, r24
    1e62:	91 83       	std	Z+1, r25	; 0x01
    1e64:	a2 83       	std	Z+2, r26	; 0x02
    1e66:	b3 83       	std	Z+3, r27	; 0x03
    1e68:	11 c2       	rjmp	.+1058   	; 0x228c <__stack+0x118d>
    1e6a:	88 33       	cpi	r24, 0x38	; 56
    1e6c:	11 f5       	brne	.+68     	; 0x1eb2 <__stack+0xdb3>
    1e6e:	8e 01       	movw	r16, r28
    1e70:	05 5f       	subi	r16, 0xF5	; 245
    1e72:	1e 4f       	sbci	r17, 0xFE	; 254
    1e74:	f8 01       	movw	r30, r16
    1e76:	40 81       	ld	r20, Z
    1e78:	51 81       	ldd	r21, Z+1	; 0x01
    1e7a:	62 81       	ldd	r22, Z+2	; 0x02
    1e7c:	73 81       	ldd	r23, Z+3	; 0x03
    1e7e:	4f 5f       	subi	r20, 0xFF	; 255
    1e80:	5f 4f       	sbci	r21, 0xFF	; 255
    1e82:	6f 4f       	sbci	r22, 0xFF	; 255
    1e84:	7f 4f       	sbci	r23, 0xFF	; 255
    1e86:	34 96       	adiw	r30, 0x04	; 4
    1e88:	80 81       	ld	r24, Z
    1e8a:	91 81       	ldd	r25, Z+1	; 0x01
    1e8c:	0e 94 4f 12 	call	0x249e	; 0x249e <_ZN6memory4readEm>
    1e90:	68 2f       	mov	r22, r24
    1e92:	ce 01       	movw	r24, r28
    1e94:	0e 94 16 07 	call	0xe2c	; 0xe2c <_ZN11interpreter5pushiEh>
    1e98:	f8 01       	movw	r30, r16
    1e9a:	80 81       	ld	r24, Z
    1e9c:	91 81       	ldd	r25, Z+1	; 0x01
    1e9e:	a2 81       	ldd	r26, Z+2	; 0x02
    1ea0:	b3 81       	ldd	r27, Z+3	; 0x03
    1ea2:	01 96       	adiw	r24, 0x01	; 1
    1ea4:	a1 1d       	adc	r26, r1
    1ea6:	b1 1d       	adc	r27, r1
    1ea8:	80 83       	st	Z, r24
    1eaa:	91 83       	std	Z+1, r25	; 0x01
    1eac:	a2 83       	std	Z+2, r26	; 0x02
    1eae:	b3 83       	std	Z+3, r27	; 0x03
    1eb0:	ed c1       	rjmp	.+986    	; 0x228c <__stack+0x118d>
    1eb2:	89 33       	cpi	r24, 0x39	; 57
    1eb4:	11 f5       	brne	.+68     	; 0x1efa <__stack+0xdfb>
    1eb6:	8e 01       	movw	r16, r28
    1eb8:	05 5f       	subi	r16, 0xF5	; 245
    1eba:	1e 4f       	sbci	r17, 0xFE	; 254
    1ebc:	f8 01       	movw	r30, r16
    1ebe:	40 81       	ld	r20, Z
    1ec0:	51 81       	ldd	r21, Z+1	; 0x01
    1ec2:	62 81       	ldd	r22, Z+2	; 0x02
    1ec4:	73 81       	ldd	r23, Z+3	; 0x03
    1ec6:	4f 5f       	subi	r20, 0xFF	; 255
    1ec8:	5f 4f       	sbci	r21, 0xFF	; 255
    1eca:	6f 4f       	sbci	r22, 0xFF	; 255
    1ecc:	7f 4f       	sbci	r23, 0xFF	; 255
    1ece:	34 96       	adiw	r30, 0x04	; 4
    1ed0:	80 81       	ld	r24, Z
    1ed2:	91 81       	ldd	r25, Z+1	; 0x01
    1ed4:	0e 94 4f 12 	call	0x249e	; 0x249e <_ZN6memory4readEm>
    1ed8:	68 2f       	mov	r22, r24
    1eda:	ce 01       	movw	r24, r28
    1edc:	0e 94 1a 01 	call	0x234	; 0x234 <_ZN11interpreter3ldxEh>
    1ee0:	f8 01       	movw	r30, r16
    1ee2:	80 81       	ld	r24, Z
    1ee4:	91 81       	ldd	r25, Z+1	; 0x01
    1ee6:	a2 81       	ldd	r26, Z+2	; 0x02
    1ee8:	b3 81       	ldd	r27, Z+3	; 0x03
    1eea:	01 96       	adiw	r24, 0x01	; 1
    1eec:	a1 1d       	adc	r26, r1
    1eee:	b1 1d       	adc	r27, r1
    1ef0:	80 83       	st	Z, r24
    1ef2:	91 83       	std	Z+1, r25	; 0x01
    1ef4:	a2 83       	std	Z+2, r26	; 0x02
    1ef6:	b3 83       	std	Z+3, r27	; 0x03
    1ef8:	c9 c1       	rjmp	.+914    	; 0x228c <__stack+0x118d>
    1efa:	8a 33       	cpi	r24, 0x3A	; 58
    1efc:	11 f5       	brne	.+68     	; 0x1f42 <__stack+0xe43>
    1efe:	8e 01       	movw	r16, r28
    1f00:	05 5f       	subi	r16, 0xF5	; 245
    1f02:	1e 4f       	sbci	r17, 0xFE	; 254
    1f04:	f8 01       	movw	r30, r16
    1f06:	40 81       	ld	r20, Z
    1f08:	51 81       	ldd	r21, Z+1	; 0x01
    1f0a:	62 81       	ldd	r22, Z+2	; 0x02
    1f0c:	73 81       	ldd	r23, Z+3	; 0x03
    1f0e:	4f 5f       	subi	r20, 0xFF	; 255
    1f10:	5f 4f       	sbci	r21, 0xFF	; 255
    1f12:	6f 4f       	sbci	r22, 0xFF	; 255
    1f14:	7f 4f       	sbci	r23, 0xFF	; 255
    1f16:	34 96       	adiw	r30, 0x04	; 4
    1f18:	80 81       	ld	r24, Z
    1f1a:	91 81       	ldd	r25, Z+1	; 0x01
    1f1c:	0e 94 4f 12 	call	0x249e	; 0x249e <_ZN6memory4readEm>
    1f20:	68 2f       	mov	r22, r24
    1f22:	ce 01       	movw	r24, r28
    1f24:	0e 94 2f 01 	call	0x25e	; 0x25e <_ZN11interpreter3ldyEh>
    1f28:	f8 01       	movw	r30, r16
    1f2a:	80 81       	ld	r24, Z
    1f2c:	91 81       	ldd	r25, Z+1	; 0x01
    1f2e:	a2 81       	ldd	r26, Z+2	; 0x02
    1f30:	b3 81       	ldd	r27, Z+3	; 0x03
    1f32:	01 96       	adiw	r24, 0x01	; 1
    1f34:	a1 1d       	adc	r26, r1
    1f36:	b1 1d       	adc	r27, r1
    1f38:	80 83       	st	Z, r24
    1f3a:	91 83       	std	Z+1, r25	; 0x01
    1f3c:	a2 83       	std	Z+2, r26	; 0x02
    1f3e:	b3 83       	std	Z+3, r27	; 0x03
    1f40:	a5 c1       	rjmp	.+842    	; 0x228c <__stack+0x118d>
    1f42:	8b 33       	cpi	r24, 0x3B	; 59
    1f44:	11 f5       	brne	.+68     	; 0x1f8a <__stack+0xe8b>
    1f46:	8e 01       	movw	r16, r28
    1f48:	05 5f       	subi	r16, 0xF5	; 245
    1f4a:	1e 4f       	sbci	r17, 0xFE	; 254
    1f4c:	f8 01       	movw	r30, r16
    1f4e:	40 81       	ld	r20, Z
    1f50:	51 81       	ldd	r21, Z+1	; 0x01
    1f52:	62 81       	ldd	r22, Z+2	; 0x02
    1f54:	73 81       	ldd	r23, Z+3	; 0x03
    1f56:	4f 5f       	subi	r20, 0xFF	; 255
    1f58:	5f 4f       	sbci	r21, 0xFF	; 255
    1f5a:	6f 4f       	sbci	r22, 0xFF	; 255
    1f5c:	7f 4f       	sbci	r23, 0xFF	; 255
    1f5e:	34 96       	adiw	r30, 0x04	; 4
    1f60:	80 81       	ld	r24, Z
    1f62:	91 81       	ldd	r25, Z+1	; 0x01
    1f64:	0e 94 4f 12 	call	0x249e	; 0x249e <_ZN6memory4readEm>
    1f68:	68 2f       	mov	r22, r24
    1f6a:	ce 01       	movw	r24, r28
    1f6c:	0e 94 44 01 	call	0x288	; 0x288 <_ZN11interpreter3ldzEh>
    1f70:	f8 01       	movw	r30, r16
    1f72:	80 81       	ld	r24, Z
    1f74:	91 81       	ldd	r25, Z+1	; 0x01
    1f76:	a2 81       	ldd	r26, Z+2	; 0x02
    1f78:	b3 81       	ldd	r27, Z+3	; 0x03
    1f7a:	01 96       	adiw	r24, 0x01	; 1
    1f7c:	a1 1d       	adc	r26, r1
    1f7e:	b1 1d       	adc	r27, r1
    1f80:	80 83       	st	Z, r24
    1f82:	91 83       	std	Z+1, r25	; 0x01
    1f84:	a2 83       	std	Z+2, r26	; 0x02
    1f86:	b3 83       	std	Z+3, r27	; 0x03
    1f88:	81 c1       	rjmp	.+770    	; 0x228c <__stack+0x118d>
    1f8a:	8c 33       	cpi	r24, 0x3C	; 60
    1f8c:	21 f4       	brne	.+8      	; 0x1f96 <__stack+0xe97>
    1f8e:	ce 01       	movw	r24, r28
    1f90:	0e 94 81 07 	call	0xf02	; 0xf02 <_ZN11interpreter3retEv>
    1f94:	7b c1       	rjmp	.+758    	; 0x228c <__stack+0x118d>
    1f96:	8d 33       	cpi	r24, 0x3D	; 61
    1f98:	f9 f4       	brne	.+62     	; 0x1fd8 <__stack+0xed9>
    1f9a:	8e 01       	movw	r16, r28
    1f9c:	05 5f       	subi	r16, 0xF5	; 245
    1f9e:	1e 4f       	sbci	r17, 0xFE	; 254
    1fa0:	f8 01       	movw	r30, r16
    1fa2:	40 81       	ld	r20, Z
    1fa4:	51 81       	ldd	r21, Z+1	; 0x01
    1fa6:	62 81       	ldd	r22, Z+2	; 0x02
    1fa8:	73 81       	ldd	r23, Z+3	; 0x03
    1faa:	34 96       	adiw	r30, 0x04	; 4
    1fac:	80 81       	ld	r24, Z
    1fae:	91 81       	ldd	r25, Z+1	; 0x01
    1fb0:	0e 94 5d 12 	call	0x24ba	; 0x24ba <_ZN6memory6read32Em>
    1fb4:	ab 01       	movw	r20, r22
    1fb6:	bc 01       	movw	r22, r24
    1fb8:	ce 01       	movw	r24, r28
    1fba:	0e 94 ea 03 	call	0x7d4	; 0x7d4 <_ZN11interpreter3jmpEm>
    1fbe:	f8 01       	movw	r30, r16
    1fc0:	80 81       	ld	r24, Z
    1fc2:	91 81       	ldd	r25, Z+1	; 0x01
    1fc4:	a2 81       	ldd	r26, Z+2	; 0x02
    1fc6:	b3 81       	ldd	r27, Z+3	; 0x03
    1fc8:	04 96       	adiw	r24, 0x04	; 4
    1fca:	a1 1d       	adc	r26, r1
    1fcc:	b1 1d       	adc	r27, r1
    1fce:	80 83       	st	Z, r24
    1fd0:	91 83       	std	Z+1, r25	; 0x01
    1fd2:	a2 83       	std	Z+2, r26	; 0x02
    1fd4:	b3 83       	std	Z+3, r27	; 0x03
    1fd6:	5a c1       	rjmp	.+692    	; 0x228c <__stack+0x118d>
    1fd8:	8e 33       	cpi	r24, 0x3E	; 62
    1fda:	f9 f4       	brne	.+62     	; 0x201a <__stack+0xf1b>
    1fdc:	8e 01       	movw	r16, r28
    1fde:	05 5f       	subi	r16, 0xF5	; 245
    1fe0:	1e 4f       	sbci	r17, 0xFE	; 254
    1fe2:	f8 01       	movw	r30, r16
    1fe4:	40 81       	ld	r20, Z
    1fe6:	51 81       	ldd	r21, Z+1	; 0x01
    1fe8:	62 81       	ldd	r22, Z+2	; 0x02
    1fea:	73 81       	ldd	r23, Z+3	; 0x03
    1fec:	34 96       	adiw	r30, 0x04	; 4
    1fee:	80 81       	ld	r24, Z
    1ff0:	91 81       	ldd	r25, Z+1	; 0x01
    1ff2:	0e 94 5d 12 	call	0x24ba	; 0x24ba <_ZN6memory6read32Em>
    1ff6:	ab 01       	movw	r20, r22
    1ff8:	bc 01       	movw	r22, r24
    1ffa:	ce 01       	movw	r24, r28
    1ffc:	0e 94 fb 06 	call	0xdf6	; 0xdf6 <_ZN11interpreter4callEm>
    2000:	f8 01       	movw	r30, r16
    2002:	80 81       	ld	r24, Z
    2004:	91 81       	ldd	r25, Z+1	; 0x01
    2006:	a2 81       	ldd	r26, Z+2	; 0x02
    2008:	b3 81       	ldd	r27, Z+3	; 0x03
    200a:	04 96       	adiw	r24, 0x04	; 4
    200c:	a1 1d       	adc	r26, r1
    200e:	b1 1d       	adc	r27, r1
    2010:	80 83       	st	Z, r24
    2012:	91 83       	std	Z+1, r25	; 0x01
    2014:	a2 83       	std	Z+2, r26	; 0x02
    2016:	b3 83       	std	Z+3, r27	; 0x03
    2018:	39 c1       	rjmp	.+626    	; 0x228c <__stack+0x118d>
    201a:	8f 33       	cpi	r24, 0x3F	; 63
    201c:	c1 f5       	brne	.+112    	; 0x208e <__stack+0xf8f>
    201e:	8e 01       	movw	r16, r28
    2020:	05 5f       	subi	r16, 0xF5	; 245
    2022:	1e 4f       	sbci	r17, 0xFE	; 254
    2024:	f8 01       	movw	r30, r16
    2026:	40 81       	ld	r20, Z
    2028:	51 81       	ldd	r21, Z+1	; 0x01
    202a:	62 81       	ldd	r22, Z+2	; 0x02
    202c:	73 81       	ldd	r23, Z+3	; 0x03
    202e:	4f 5f       	subi	r20, 0xFF	; 255
    2030:	5f 4f       	sbci	r21, 0xFF	; 255
    2032:	6f 4f       	sbci	r22, 0xFF	; 255
    2034:	7f 4f       	sbci	r23, 0xFF	; 255
    2036:	7e 01       	movw	r14, r28
    2038:	f1 ef       	ldi	r31, 0xF1	; 241
    203a:	ef 1a       	sub	r14, r31
    203c:	fe ef       	ldi	r31, 0xFE	; 254
    203e:	ff 0a       	sbc	r15, r31
    2040:	f7 01       	movw	r30, r14
    2042:	80 81       	ld	r24, Z
    2044:	91 81       	ldd	r25, Z+1	; 0x01
    2046:	0e 94 4f 12 	call	0x249e	; 0x249e <_ZN6memory4readEm>
    204a:	d8 2e       	mov	r13, r24
    204c:	f8 01       	movw	r30, r16
    204e:	40 81       	ld	r20, Z
    2050:	51 81       	ldd	r21, Z+1	; 0x01
    2052:	62 81       	ldd	r22, Z+2	; 0x02
    2054:	73 81       	ldd	r23, Z+3	; 0x03
    2056:	4e 5f       	subi	r20, 0xFE	; 254
    2058:	5f 4f       	sbci	r21, 0xFF	; 255
    205a:	6f 4f       	sbci	r22, 0xFF	; 255
    205c:	7f 4f       	sbci	r23, 0xFF	; 255
    205e:	f7 01       	movw	r30, r14
    2060:	80 81       	ld	r24, Z
    2062:	91 81       	ldd	r25, Z+1	; 0x01
    2064:	0e 94 5d 12 	call	0x24ba	; 0x24ba <_ZN6memory6read32Em>
    2068:	9b 01       	movw	r18, r22
    206a:	ac 01       	movw	r20, r24
    206c:	6d 2d       	mov	r22, r13
    206e:	ce 01       	movw	r24, r28
    2070:	0e 94 69 03 	call	0x6d2	; 0x6d2 <_ZN11interpreter3cpmEhm>
    2074:	f8 01       	movw	r30, r16
    2076:	80 81       	ld	r24, Z
    2078:	91 81       	ldd	r25, Z+1	; 0x01
    207a:	a2 81       	ldd	r26, Z+2	; 0x02
    207c:	b3 81       	ldd	r27, Z+3	; 0x03
    207e:	05 96       	adiw	r24, 0x05	; 5
    2080:	a1 1d       	adc	r26, r1
    2082:	b1 1d       	adc	r27, r1
    2084:	80 83       	st	Z, r24
    2086:	91 83       	std	Z+1, r25	; 0x01
    2088:	a2 83       	std	Z+2, r26	; 0x02
    208a:	b3 83       	std	Z+3, r27	; 0x03
    208c:	ff c0       	rjmp	.+510    	; 0x228c <__stack+0x118d>
    208e:	80 34       	cpi	r24, 0x40	; 64
    2090:	d1 f5       	brne	.+116    	; 0x2106 <__stack+0x1007>
    2092:	7e 01       	movw	r14, r28
    2094:	f5 ef       	ldi	r31, 0xF5	; 245
    2096:	ef 1a       	sub	r14, r31
    2098:	fe ef       	ldi	r31, 0xFE	; 254
    209a:	ff 0a       	sbc	r15, r31
    209c:	f7 01       	movw	r30, r14
    209e:	40 81       	ld	r20, Z
    20a0:	51 81       	ldd	r21, Z+1	; 0x01
    20a2:	62 81       	ldd	r22, Z+2	; 0x02
    20a4:	73 81       	ldd	r23, Z+3	; 0x03
    20a6:	4f 5f       	subi	r20, 0xFF	; 255
    20a8:	5f 4f       	sbci	r21, 0xFF	; 255
    20aa:	6f 4f       	sbci	r22, 0xFF	; 255
    20ac:	7f 4f       	sbci	r23, 0xFF	; 255
    20ae:	8e 01       	movw	r16, r28
    20b0:	01 5f       	subi	r16, 0xF1	; 241
    20b2:	1e 4f       	sbci	r17, 0xFE	; 254
    20b4:	f8 01       	movw	r30, r16
    20b6:	80 81       	ld	r24, Z
    20b8:	91 81       	ldd	r25, Z+1	; 0x01
    20ba:	0e 94 5d 12 	call	0x24ba	; 0x24ba <_ZN6memory6read32Em>
    20be:	4b 01       	movw	r8, r22
    20c0:	5c 01       	movw	r10, r24
    20c2:	f7 01       	movw	r30, r14
    20c4:	40 81       	ld	r20, Z
    20c6:	51 81       	ldd	r21, Z+1	; 0x01
    20c8:	62 81       	ldd	r22, Z+2	; 0x02
    20ca:	73 81       	ldd	r23, Z+3	; 0x03
    20cc:	4b 5f       	subi	r20, 0xFB	; 251
    20ce:	5f 4f       	sbci	r21, 0xFF	; 255
    20d0:	6f 4f       	sbci	r22, 0xFF	; 255
    20d2:	7f 4f       	sbci	r23, 0xFF	; 255
    20d4:	f8 01       	movw	r30, r16
    20d6:	80 81       	ld	r24, Z
    20d8:	91 81       	ldd	r25, Z+1	; 0x01
    20da:	0e 94 5d 12 	call	0x24ba	; 0x24ba <_ZN6memory6read32Em>
    20de:	8b 01       	movw	r16, r22
    20e0:	9c 01       	movw	r18, r24
    20e2:	b5 01       	movw	r22, r10
    20e4:	a4 01       	movw	r20, r8
    20e6:	ce 01       	movw	r24, r28
    20e8:	0e 94 92 03 	call	0x724	; 0x724 <_ZN11interpreter3cpmEmm>
    20ec:	f7 01       	movw	r30, r14
    20ee:	80 81       	ld	r24, Z
    20f0:	91 81       	ldd	r25, Z+1	; 0x01
    20f2:	a2 81       	ldd	r26, Z+2	; 0x02
    20f4:	b3 81       	ldd	r27, Z+3	; 0x03
    20f6:	08 96       	adiw	r24, 0x08	; 8
    20f8:	a1 1d       	adc	r26, r1
    20fa:	b1 1d       	adc	r27, r1
    20fc:	80 83       	st	Z, r24
    20fe:	91 83       	std	Z+1, r25	; 0x01
    2100:	a2 83       	std	Z+2, r26	; 0x02
    2102:	b3 83       	std	Z+3, r27	; 0x03
    2104:	c3 c0       	rjmp	.+390    	; 0x228c <__stack+0x118d>
    2106:	81 34       	cpi	r24, 0x41	; 65
    2108:	79 f4       	brne	.+30     	; 0x2128 <__stack+0x1029>
    210a:	fe 01       	movw	r30, r28
    210c:	e5 5f       	subi	r30, 0xF5	; 245
    210e:	fe 4f       	sbci	r31, 0xFE	; 254
    2110:	80 81       	ld	r24, Z
    2112:	91 81       	ldd	r25, Z+1	; 0x01
    2114:	a2 81       	ldd	r26, Z+2	; 0x02
    2116:	b3 81       	ldd	r27, Z+3	; 0x03
    2118:	02 96       	adiw	r24, 0x02	; 2
    211a:	a1 1d       	adc	r26, r1
    211c:	b1 1d       	adc	r27, r1
    211e:	80 83       	st	Z, r24
    2120:	91 83       	std	Z+1, r25	; 0x01
    2122:	a2 83       	std	Z+2, r26	; 0x02
    2124:	b3 83       	std	Z+3, r27	; 0x03
    2126:	b2 c0       	rjmp	.+356    	; 0x228c <__stack+0x118d>
    2128:	82 34       	cpi	r24, 0x42	; 66
    212a:	b9 f5       	brne	.+110    	; 0x219a <__stack+0x109b>
    212c:	8e 01       	movw	r16, r28
    212e:	05 5f       	subi	r16, 0xF5	; 245
    2130:	1e 4f       	sbci	r17, 0xFE	; 254
    2132:	f8 01       	movw	r30, r16
    2134:	40 81       	ld	r20, Z
    2136:	51 81       	ldd	r21, Z+1	; 0x01
    2138:	62 81       	ldd	r22, Z+2	; 0x02
    213a:	73 81       	ldd	r23, Z+3	; 0x03
    213c:	4e 5f       	subi	r20, 0xFE	; 254
    213e:	5f 4f       	sbci	r21, 0xFF	; 255
    2140:	6f 4f       	sbci	r22, 0xFF	; 255
    2142:	7f 4f       	sbci	r23, 0xFF	; 255
    2144:	7e 01       	movw	r14, r28
    2146:	f1 ef       	ldi	r31, 0xF1	; 241
    2148:	ef 1a       	sub	r14, r31
    214a:	fe ef       	ldi	r31, 0xFE	; 254
    214c:	ff 0a       	sbc	r15, r31
    214e:	f7 01       	movw	r30, r14
    2150:	80 81       	ld	r24, Z
    2152:	91 81       	ldd	r25, Z+1	; 0x01
    2154:	0e 94 4f 12 	call	0x249e	; 0x249e <_ZN6memory4readEm>
    2158:	d8 2e       	mov	r13, r24
    215a:	f8 01       	movw	r30, r16
    215c:	40 81       	ld	r20, Z
    215e:	51 81       	ldd	r21, Z+1	; 0x01
    2160:	62 81       	ldd	r22, Z+2	; 0x02
    2162:	73 81       	ldd	r23, Z+3	; 0x03
    2164:	4f 5f       	subi	r20, 0xFF	; 255
    2166:	5f 4f       	sbci	r21, 0xFF	; 255
    2168:	6f 4f       	sbci	r22, 0xFF	; 255
    216a:	7f 4f       	sbci	r23, 0xFF	; 255
    216c:	f7 01       	movw	r30, r14
    216e:	80 81       	ld	r24, Z
    2170:	91 81       	ldd	r25, Z+1	; 0x01
    2172:	0e 94 4f 12 	call	0x249e	; 0x249e <_ZN6memory4readEm>
    2176:	4d 2d       	mov	r20, r13
    2178:	68 2f       	mov	r22, r24
    217a:	ce 01       	movw	r24, r28
    217c:	0e 94 b7 07 	call	0xf6e	; 0xf6e <_ZN11interpreter5andrrEhh>
    2180:	f8 01       	movw	r30, r16
    2182:	80 81       	ld	r24, Z
    2184:	91 81       	ldd	r25, Z+1	; 0x01
    2186:	a2 81       	ldd	r26, Z+2	; 0x02
    2188:	b3 81       	ldd	r27, Z+3	; 0x03
    218a:	02 96       	adiw	r24, 0x02	; 2
    218c:	a1 1d       	adc	r26, r1
    218e:	b1 1d       	adc	r27, r1
    2190:	80 83       	st	Z, r24
    2192:	91 83       	std	Z+1, r25	; 0x01
    2194:	a2 83       	std	Z+2, r26	; 0x02
    2196:	b3 83       	std	Z+3, r27	; 0x03
    2198:	79 c0       	rjmp	.+242    	; 0x228c <__stack+0x118d>
    219a:	83 34       	cpi	r24, 0x43	; 67
    219c:	b9 f5       	brne	.+110    	; 0x220c <__stack+0x110d>
    219e:	8e 01       	movw	r16, r28
    21a0:	05 5f       	subi	r16, 0xF5	; 245
    21a2:	1e 4f       	sbci	r17, 0xFE	; 254
    21a4:	f8 01       	movw	r30, r16
    21a6:	40 81       	ld	r20, Z
    21a8:	51 81       	ldd	r21, Z+1	; 0x01
    21aa:	62 81       	ldd	r22, Z+2	; 0x02
    21ac:	73 81       	ldd	r23, Z+3	; 0x03
    21ae:	4e 5f       	subi	r20, 0xFE	; 254
    21b0:	5f 4f       	sbci	r21, 0xFF	; 255
    21b2:	6f 4f       	sbci	r22, 0xFF	; 255
    21b4:	7f 4f       	sbci	r23, 0xFF	; 255
    21b6:	7e 01       	movw	r14, r28
    21b8:	f1 ef       	ldi	r31, 0xF1	; 241
    21ba:	ef 1a       	sub	r14, r31
    21bc:	fe ef       	ldi	r31, 0xFE	; 254
    21be:	ff 0a       	sbc	r15, r31
    21c0:	f7 01       	movw	r30, r14
    21c2:	80 81       	ld	r24, Z
    21c4:	91 81       	ldd	r25, Z+1	; 0x01
    21c6:	0e 94 4f 12 	call	0x249e	; 0x249e <_ZN6memory4readEm>
    21ca:	d8 2e       	mov	r13, r24
    21cc:	f8 01       	movw	r30, r16
    21ce:	40 81       	ld	r20, Z
    21d0:	51 81       	ldd	r21, Z+1	; 0x01
    21d2:	62 81       	ldd	r22, Z+2	; 0x02
    21d4:	73 81       	ldd	r23, Z+3	; 0x03
    21d6:	4f 5f       	subi	r20, 0xFF	; 255
    21d8:	5f 4f       	sbci	r21, 0xFF	; 255
    21da:	6f 4f       	sbci	r22, 0xFF	; 255
    21dc:	7f 4f       	sbci	r23, 0xFF	; 255
    21de:	f7 01       	movw	r30, r14
    21e0:	80 81       	ld	r24, Z
    21e2:	91 81       	ldd	r25, Z+1	; 0x01
    21e4:	0e 94 4f 12 	call	0x249e	; 0x249e <_ZN6memory4readEm>
    21e8:	4d 2d       	mov	r20, r13
    21ea:	68 2f       	mov	r22, r24
    21ec:	ce 01       	movw	r24, r28
    21ee:	0e 94 c2 07 	call	0xf84	; 0xf84 <_ZN11interpreter4andiEhh>
    21f2:	f8 01       	movw	r30, r16
    21f4:	80 81       	ld	r24, Z
    21f6:	91 81       	ldd	r25, Z+1	; 0x01
    21f8:	a2 81       	ldd	r26, Z+2	; 0x02
    21fa:	b3 81       	ldd	r27, Z+3	; 0x03
    21fc:	02 96       	adiw	r24, 0x02	; 2
    21fe:	a1 1d       	adc	r26, r1
    2200:	b1 1d       	adc	r27, r1
    2202:	80 83       	st	Z, r24
    2204:	91 83       	std	Z+1, r25	; 0x01
    2206:	a2 83       	std	Z+2, r26	; 0x02
    2208:	b3 83       	std	Z+3, r27	; 0x03
    220a:	40 c0       	rjmp	.+128    	; 0x228c <__stack+0x118d>
    220c:	84 34       	cpi	r24, 0x44	; 68
    220e:	c9 f5       	brne	.+114    	; 0x2282 <__stack+0x1183>
    2210:	8e 01       	movw	r16, r28
    2212:	05 5f       	subi	r16, 0xF5	; 245
    2214:	1e 4f       	sbci	r17, 0xFE	; 254
    2216:	f8 01       	movw	r30, r16
    2218:	40 81       	ld	r20, Z
    221a:	51 81       	ldd	r21, Z+1	; 0x01
    221c:	62 81       	ldd	r22, Z+2	; 0x02
    221e:	73 81       	ldd	r23, Z+3	; 0x03
    2220:	4e 5f       	subi	r20, 0xFE	; 254
    2222:	5f 4f       	sbci	r21, 0xFF	; 255
    2224:	6f 4f       	sbci	r22, 0xFF	; 255
    2226:	7f 4f       	sbci	r23, 0xFF	; 255
    2228:	7e 01       	movw	r14, r28
    222a:	f1 ef       	ldi	r31, 0xF1	; 241
    222c:	ef 1a       	sub	r14, r31
    222e:	fe ef       	ldi	r31, 0xFE	; 254
    2230:	ff 0a       	sbc	r15, r31
    2232:	f7 01       	movw	r30, r14
    2234:	80 81       	ld	r24, Z
    2236:	91 81       	ldd	r25, Z+1	; 0x01
    2238:	0e 94 5d 12 	call	0x24ba	; 0x24ba <_ZN6memory6read32Em>
    223c:	4b 01       	movw	r8, r22
    223e:	5c 01       	movw	r10, r24
    2240:	f8 01       	movw	r30, r16
    2242:	40 81       	ld	r20, Z
    2244:	51 81       	ldd	r21, Z+1	; 0x01
    2246:	62 81       	ldd	r22, Z+2	; 0x02
    2248:	73 81       	ldd	r23, Z+3	; 0x03
    224a:	4f 5f       	subi	r20, 0xFF	; 255
    224c:	5f 4f       	sbci	r21, 0xFF	; 255
    224e:	6f 4f       	sbci	r22, 0xFF	; 255
    2250:	7f 4f       	sbci	r23, 0xFF	; 255
    2252:	f7 01       	movw	r30, r14
    2254:	80 81       	ld	r24, Z
    2256:	91 81       	ldd	r25, Z+1	; 0x01
    2258:	0e 94 4f 12 	call	0x249e	; 0x249e <_ZN6memory4readEm>
    225c:	a5 01       	movw	r20, r10
    225e:	94 01       	movw	r18, r8
    2260:	68 2f       	mov	r22, r24
    2262:	ce 01       	movw	r24, r28
    2264:	0e 94 c9 07 	call	0xf92	; 0xf92 <_ZN11interpreter5andrmEhm>
    2268:	f8 01       	movw	r30, r16
    226a:	80 81       	ld	r24, Z
    226c:	91 81       	ldd	r25, Z+1	; 0x01
    226e:	a2 81       	ldd	r26, Z+2	; 0x02
    2270:	b3 81       	ldd	r27, Z+3	; 0x03
    2272:	05 96       	adiw	r24, 0x05	; 5
    2274:	a1 1d       	adc	r26, r1
    2276:	b1 1d       	adc	r27, r1
    2278:	80 83       	st	Z, r24
    227a:	91 83       	std	Z+1, r25	; 0x01
    227c:	a2 83       	std	Z+2, r26	; 0x02
    227e:	b3 83       	std	Z+3, r27	; 0x03
    2280:	05 c0       	rjmp	.+10     	; 0x228c <__stack+0x118d>
    2282:	8f 3f       	cpi	r24, 0xFF	; 255
    2284:	19 f4       	brne	.+6      	; 0x228c <__stack+0x118d>
    2286:	ce 01       	movw	r24, r28
    2288:	0e 94 e8 03 	call	0x7d0	; 0x7d0 <_ZN11interpreter3nopEv>
    228c:	fe 01       	movw	r30, r28
    228e:	e5 5f       	subi	r30, 0xF5	; 245
    2290:	fe 4f       	sbci	r31, 0xFE	; 254
    2292:	80 81       	ld	r24, Z
    2294:	91 81       	ldd	r25, Z+1	; 0x01
    2296:	a2 81       	ldd	r26, Z+2	; 0x02
    2298:	b3 81       	ldd	r27, Z+3	; 0x03
    229a:	01 96       	adiw	r24, 0x01	; 1
    229c:	a1 1d       	adc	r26, r1
    229e:	b1 1d       	adc	r27, r1
    22a0:	80 83       	st	Z, r24
    22a2:	91 83       	std	Z+1, r25	; 0x01
    22a4:	a2 83       	std	Z+2, r26	; 0x02
    22a6:	b3 83       	std	Z+3, r27	; 0x03
    22a8:	0c 94 ed 07 	jmp	0xfda	; 0xfda <_ZN11interpreter3runEv+0x1a>
    22ac:	c5 5f       	subi	r28, 0xF5	; 245
    22ae:	de 4f       	sbci	r29, 0xFE	; 254
    22b0:	18 82       	st	Y, r1
    22b2:	19 82       	std	Y+1, r1	; 0x01
    22b4:	1a 82       	std	Y+2, r1	; 0x02
    22b6:	1b 82       	std	Y+3, r1	; 0x03
    22b8:	85 e6       	ldi	r24, 0x65	; 101
    22ba:	01 c0       	rjmp	.+2      	; 0x22be <__stack+0x11bf>
    22bc:	82 e6       	ldi	r24, 0x62	; 98
    22be:	df 91       	pop	r29
    22c0:	cf 91       	pop	r28
    22c2:	1f 91       	pop	r17
    22c4:	0f 91       	pop	r16
    22c6:	ff 90       	pop	r15
    22c8:	ef 90       	pop	r14
    22ca:	df 90       	pop	r13
    22cc:	cf 90       	pop	r12
    22ce:	bf 90       	pop	r11
    22d0:	af 90       	pop	r10
    22d2:	9f 90       	pop	r9
    22d4:	8f 90       	pop	r8
    22d6:	08 95       	ret

000022d8 <_ZN11interpreter3zarEv>:
}


void interpreter::zar()
{
	for (unsigned int i =0;i<sizeof(registers);i++)
    22d8:	20 e0       	ldi	r18, 0x00	; 0
    22da:	30 e0       	ldi	r19, 0x00	; 0
    22dc:	2f 3f       	cpi	r18, 0xFF	; 255
    22de:	31 05       	cpc	r19, r1
    22e0:	38 f4       	brcc	.+14     	; 0x22f0 <_ZN11interpreter3zarEv+0x18>
	{
		registers[i]=0;
    22e2:	fc 01       	movw	r30, r24
    22e4:	e2 0f       	add	r30, r18
    22e6:	f3 1f       	adc	r31, r19
    22e8:	10 82       	st	Z, r1
}


void interpreter::zar()
{
	for (unsigned int i =0;i<sizeof(registers);i++)
    22ea:	2f 5f       	subi	r18, 0xFF	; 255
    22ec:	3f 4f       	sbci	r19, 0xFF	; 255
    22ee:	f6 cf       	rjmp	.-20     	; 0x22dc <_ZN11interpreter3zarEv+0x4>
    22f0:	08 95       	ret

000022f2 <_ZN11interpreterD1Ev>:
	}
}
// default destructor
interpreter::~interpreter()
{
	ram=NULL;
    22f2:	fc 01       	movw	r30, r24
    22f4:	e1 5f       	subi	r30, 0xF1	; 241
    22f6:	fe 4f       	sbci	r31, 0xFE	; 254
    22f8:	11 82       	std	Z+1, r1	; 0x01
    22fa:	10 82       	st	Z, r1
	videoram = NULL;
    22fc:	32 96       	adiw	r30, 0x02	; 2
    22fe:	11 82       	std	Z+1, r1	; 0x01
    2300:	10 82       	st	Z, r1
    2302:	08 95       	ret

00002304 <_ZN14portcontrollerC1Ev>:
	{
		PORTD|=(1<<pin);
	}
	else
	{
		PORTD&=~(1<<pin);
    2304:	08 95       	ret

00002306 <_ZN14portcontroller9readportdEv>:
    2306:	89 b1       	in	r24, 0x09	; 9
    2308:	08 95       	ret

0000230a <_ZN14portcontroller10writeportcEc>:
    230a:	68 b9       	out	0x08, r22	; 8
    230c:	08 95       	ret

0000230e <_ZN14portcontroller9writeddraEc>:
    230e:	61 b9       	out	0x01, r22	; 1
    2310:	08 95       	ret

00002312 <_ZN14portcontroller9writeddrbEc>:
    2312:	64 b9       	out	0x04, r22	; 4
    2314:	08 95       	ret

00002316 <_ZN14portcontroller9writeddrcEc>:
    2316:	67 b9       	out	0x07, r22	; 7
    2318:	08 95       	ret

0000231a <_ZN14portcontroller9writeddrdEc>:
    231a:	6a b9       	out	0x0a, r22	; 10
    231c:	08 95       	ret

0000231e <_ZN14portcontroller13digitalwriteaEhb>:
    231e:	44 23       	and	r20, r20
    2320:	59 f0       	breq	.+22     	; 0x2338 <_ZN14portcontroller13digitalwriteaEhb+0x1a>
    2322:	22 b1       	in	r18, 0x02	; 2
    2324:	81 e0       	ldi	r24, 0x01	; 1
    2326:	90 e0       	ldi	r25, 0x00	; 0
    2328:	02 c0       	rjmp	.+4      	; 0x232e <_ZN14portcontroller13digitalwriteaEhb+0x10>
    232a:	88 0f       	add	r24, r24
    232c:	99 1f       	adc	r25, r25
    232e:	6a 95       	dec	r22
    2330:	e2 f7       	brpl	.-8      	; 0x232a <_ZN14portcontroller13digitalwriteaEhb+0xc>
    2332:	82 2b       	or	r24, r18
    2334:	82 b9       	out	0x02, r24	; 2
    2336:	08 95       	ret
    2338:	22 b1       	in	r18, 0x02	; 2
    233a:	81 e0       	ldi	r24, 0x01	; 1
    233c:	90 e0       	ldi	r25, 0x00	; 0
    233e:	02 c0       	rjmp	.+4      	; 0x2344 <_ZN14portcontroller13digitalwriteaEhb+0x26>
    2340:	88 0f       	add	r24, r24
    2342:	99 1f       	adc	r25, r25
    2344:	6a 95       	dec	r22
    2346:	e2 f7       	brpl	.-8      	; 0x2340 <_ZN14portcontroller13digitalwriteaEhb+0x22>
    2348:	80 95       	com	r24
    234a:	82 23       	and	r24, r18
    234c:	82 b9       	out	0x02, r24	; 2
    234e:	08 95       	ret

00002350 <_ZN14portcontroller12digitalwriteEhb>:
    2350:	9c 01       	movw	r18, r24
    2352:	9f ef       	ldi	r25, 0xFF	; 255
    2354:	96 0f       	add	r25, r22
    2356:	98 30       	cpi	r25, 0x08	; 8
    2358:	28 f4       	brcc	.+10     	; 0x2364 <_ZN14portcontroller12digitalwriteEhb+0x14>
    235a:	69 2f       	mov	r22, r25
    235c:	c9 01       	movw	r24, r18
    235e:	0e 94 8f 11 	call	0x231e	; 0x231e <_ZN14portcontroller13digitalwriteaEhb>
    2362:	08 95       	ret
    2364:	82 ef       	ldi	r24, 0xF2	; 242
    2366:	86 0f       	add	r24, r22
    2368:	88 30       	cpi	r24, 0x08	; 8
    236a:	28 f4       	brcc	.+10     	; 0x2376 <_ZN14portcontroller12digitalwriteEhb+0x26>
    236c:	6d 50       	subi	r22, 0x0D	; 13
    236e:	c9 01       	movw	r24, r18
    2370:	0e 94 8f 11 	call	0x231e	; 0x231e <_ZN14portcontroller13digitalwriteaEhb>
    2374:	08 95       	ret
    2376:	8a ee       	ldi	r24, 0xEA	; 234
    2378:	86 0f       	add	r24, r22
    237a:	88 30       	cpi	r24, 0x08	; 8
    237c:	28 f4       	brcc	.+10     	; 0x2388 <_ZN14portcontroller12digitalwriteEhb+0x38>
    237e:	65 51       	subi	r22, 0x15	; 21
    2380:	c9 01       	movw	r24, r18
    2382:	0e 94 8f 11 	call	0x231e	; 0x231e <_ZN14portcontroller13digitalwriteaEhb>
    2386:	08 95       	ret
    2388:	8f ed       	ldi	r24, 0xDF	; 223
    238a:	86 0f       	add	r24, r22
    238c:	88 30       	cpi	r24, 0x08	; 8
    238e:	20 f4       	brcc	.+8      	; 0x2398 <_ZN14portcontroller12digitalwriteEhb+0x48>
    2390:	60 52       	subi	r22, 0x20	; 32
    2392:	c9 01       	movw	r24, r18
    2394:	0e 94 8f 11 	call	0x231e	; 0x231e <_ZN14portcontroller13digitalwriteaEhb>
    2398:	08 95       	ret

0000239a <_ZN14portcontrollerD1Ev>:
	}
*/
}

// default destructor
portcontroller::~portcontroller()
    239a:	08 95       	ret

0000239c <_ZN8shiftregC1EhhhP14portcontroller>:
	}
	port->digitalwrite(latchclkpin,true);

	port->digitalwrite(latchclkpin,false);

}
    239c:	0f 93       	push	r16
    239e:	1f 93       	push	r17
    23a0:	fc 01       	movw	r30, r24
    23a2:	60 83       	st	Z, r22
    23a4:	41 83       	std	Z+1, r20	; 0x01
    23a6:	22 83       	std	Z+2, r18	; 0x02
    23a8:	14 87       	std	Z+12, r17	; 0x0c
    23aa:	03 87       	std	Z+11, r16	; 0x0b
    23ac:	13 82       	std	Z+3, r1	; 0x03
    23ae:	14 82       	std	Z+4, r1	; 0x04
    23b0:	15 82       	std	Z+5, r1	; 0x05
    23b2:	16 82       	std	Z+6, r1	; 0x06
    23b4:	17 82       	std	Z+7, r1	; 0x07
    23b6:	10 86       	std	Z+8, r1	; 0x08
    23b8:	11 86       	std	Z+9, r1	; 0x09
    23ba:	12 86       	std	Z+10, r1	; 0x0a
    23bc:	1f 91       	pop	r17
    23be:	0f 91       	pop	r16
    23c0:	08 95       	ret

000023c2 <_ZN8shiftreg10shiftout32Em>:
    23c2:	cf 92       	push	r12
    23c4:	df 92       	push	r13
    23c6:	ef 92       	push	r14
    23c8:	ff 92       	push	r15
    23ca:	1f 93       	push	r17
    23cc:	cf 93       	push	r28
    23ce:	df 93       	push	r29
    23d0:	ec 01       	movw	r28, r24
    23d2:	6a 01       	movw	r12, r20
    23d4:	7b 01       	movw	r14, r22
    23d6:	10 e0       	ldi	r17, 0x00	; 0
    23d8:	10 32       	cpi	r17, 0x20	; 32
    23da:	68 f5       	brcc	.+90     	; 0x2436 <_ZN8shiftreg10shiftout32Em+0x74>
    23dc:	8f e1       	ldi	r24, 0x1F	; 31
    23de:	90 e0       	ldi	r25, 0x00	; 0
    23e0:	81 1b       	sub	r24, r17
    23e2:	91 09       	sbc	r25, r1
    23e4:	a7 01       	movw	r20, r14
    23e6:	96 01       	movw	r18, r12
    23e8:	04 c0       	rjmp	.+8      	; 0x23f2 <_ZN8shiftreg10shiftout32Em+0x30>
    23ea:	56 95       	lsr	r21
    23ec:	47 95       	ror	r20
    23ee:	37 95       	ror	r19
    23f0:	27 95       	ror	r18
    23f2:	8a 95       	dec	r24
    23f4:	d2 f7       	brpl	.-12     	; 0x23ea <_ZN8shiftreg10shiftout32Em+0x28>
    23f6:	21 30       	cpi	r18, 0x01	; 1
    23f8:	31 05       	cpc	r19, r1
    23fa:	41 05       	cpc	r20, r1
    23fc:	51 05       	cpc	r21, r1
    23fe:	39 f4       	brne	.+14     	; 0x240e <_ZN8shiftreg10shiftout32Em+0x4c>
    2400:	68 81       	ld	r22, Y
    2402:	41 e0       	ldi	r20, 0x01	; 1
    2404:	8b 85       	ldd	r24, Y+11	; 0x0b
    2406:	9c 85       	ldd	r25, Y+12	; 0x0c
    2408:	0e 94 a8 11 	call	0x2350	; 0x2350 <_ZN14portcontroller12digitalwriteEhb>
    240c:	06 c0       	rjmp	.+12     	; 0x241a <_ZN8shiftreg10shiftout32Em+0x58>
    240e:	68 81       	ld	r22, Y
    2410:	40 e0       	ldi	r20, 0x00	; 0
    2412:	8b 85       	ldd	r24, Y+11	; 0x0b
    2414:	9c 85       	ldd	r25, Y+12	; 0x0c
    2416:	0e 94 a8 11 	call	0x2350	; 0x2350 <_ZN14portcontroller12digitalwriteEhb>
    241a:	69 81       	ldd	r22, Y+1	; 0x01
    241c:	41 e0       	ldi	r20, 0x01	; 1
    241e:	8b 85       	ldd	r24, Y+11	; 0x0b
    2420:	9c 85       	ldd	r25, Y+12	; 0x0c
    2422:	0e 94 a8 11 	call	0x2350	; 0x2350 <_ZN14portcontroller12digitalwriteEhb>
    2426:	69 81       	ldd	r22, Y+1	; 0x01
    2428:	40 e0       	ldi	r20, 0x00	; 0
    242a:	8b 85       	ldd	r24, Y+11	; 0x0b
    242c:	9c 85       	ldd	r25, Y+12	; 0x0c
    242e:	0e 94 a8 11 	call	0x2350	; 0x2350 <_ZN14portcontroller12digitalwriteEhb>
    2432:	1f 5f       	subi	r17, 0xFF	; 255
    2434:	d1 cf       	rjmp	.-94     	; 0x23d8 <_ZN8shiftreg10shiftout32Em+0x16>
    2436:	6a 81       	ldd	r22, Y+2	; 0x02
    2438:	41 e0       	ldi	r20, 0x01	; 1
    243a:	8b 85       	ldd	r24, Y+11	; 0x0b
    243c:	9c 85       	ldd	r25, Y+12	; 0x0c
    243e:	0e 94 a8 11 	call	0x2350	; 0x2350 <_ZN14portcontroller12digitalwriteEhb>
    2442:	6a 81       	ldd	r22, Y+2	; 0x02
    2444:	40 e0       	ldi	r20, 0x00	; 0
    2446:	8b 85       	ldd	r24, Y+11	; 0x0b
    2448:	9c 85       	ldd	r25, Y+12	; 0x0c
    244a:	0e 94 a8 11 	call	0x2350	; 0x2350 <_ZN14portcontroller12digitalwriteEhb>
    244e:	df 91       	pop	r29
    2450:	cf 91       	pop	r28
    2452:	1f 91       	pop	r17
    2454:	ff 90       	pop	r15
    2456:	ef 90       	pop	r14
    2458:	df 90       	pop	r13
    245a:	cf 90       	pop	r12
    245c:	08 95       	ret

0000245e <_ZN8shiftregD1Ev>:
// default destructor
shiftreg::~shiftreg()
    245e:	08 95       	ret

00002460 <_ZN6memoryC1Ev>:
{
	portcon = a;
	addressreg = b;
}
void memory::write(uint32_t address, uint32_t data)
{
    2460:	08 95       	ret

00002462 <_ZN6memory5writeEmh>:
	
}
void memory::write(uint32_t address, uint8_t data)
{
    2462:	1f 93       	push	r17
    2464:	cf 93       	push	r28
    2466:	df 93       	push	r29
    2468:	ec 01       	movw	r28, r24
    246a:	12 2f       	mov	r17, r18
	addressreg->shiftout32(address);
    246c:	8a 81       	ldd	r24, Y+2	; 0x02
    246e:	9b 81       	ldd	r25, Y+3	; 0x03
    2470:	0e 94 e1 11 	call	0x23c2	; 0x23c2 <_ZN8shiftreg10shiftout32Em>
	portcon->writeportc(data);
    2474:	61 2f       	mov	r22, r17
    2476:	88 81       	ld	r24, Y
    2478:	99 81       	ldd	r25, Y+1	; 0x01
    247a:	0e 94 85 11 	call	0x230a	; 0x230a <_ZN14portcontroller10writeportcEc>
	portcon->digitalwrite(wepin,true);
    247e:	68 85       	ldd	r22, Y+8	; 0x08
    2480:	41 e0       	ldi	r20, 0x01	; 1
    2482:	88 81       	ld	r24, Y
    2484:	99 81       	ldd	r25, Y+1	; 0x01
    2486:	0e 94 a8 11 	call	0x2350	; 0x2350 <_ZN14portcontroller12digitalwriteEhb>
	portcon->digitalwrite(wepin,false);
    248a:	68 85       	ldd	r22, Y+8	; 0x08
    248c:	40 e0       	ldi	r20, 0x00	; 0
    248e:	88 81       	ld	r24, Y
    2490:	99 81       	ldd	r25, Y+1	; 0x01
    2492:	0e 94 a8 11 	call	0x2350	; 0x2350 <_ZN14portcontroller12digitalwriteEhb>
	
}
    2496:	df 91       	pop	r29
    2498:	cf 91       	pop	r28
    249a:	1f 91       	pop	r17
    249c:	08 95       	ret

0000249e <_ZN6memory4readEm>:
uint8_t memory::read(uint32_t address)
{
    249e:	cf 93       	push	r28
    24a0:	df 93       	push	r29
    24a2:	ec 01       	movw	r28, r24
	addressreg->shiftout32(address);
    24a4:	8a 81       	ldd	r24, Y+2	; 0x02
    24a6:	9b 81       	ldd	r25, Y+3	; 0x03
    24a8:	0e 94 e1 11 	call	0x23c2	; 0x23c2 <_ZN8shiftreg10shiftout32Em>
	return portcon->readportd();
    24ac:	88 81       	ld	r24, Y
    24ae:	99 81       	ldd	r25, Y+1	; 0x01
    24b0:	0e 94 83 11 	call	0x2306	; 0x2306 <_ZN14portcontroller9readportdEv>
}
    24b4:	df 91       	pop	r29
    24b6:	cf 91       	pop	r28
    24b8:	08 95       	ret

000024ba <_ZN6memory6read32Em>:
uint32_t memory::read32(uint32_t address)
{
    24ba:	4f 92       	push	r4
    24bc:	5f 92       	push	r5
    24be:	6f 92       	push	r6
    24c0:	7f 92       	push	r7
    24c2:	8f 92       	push	r8
    24c4:	9f 92       	push	r9
    24c6:	af 92       	push	r10
    24c8:	bf 92       	push	r11
    24ca:	cf 92       	push	r12
    24cc:	df 92       	push	r13
    24ce:	ef 92       	push	r14
    24d0:	ff 92       	push	r15
    24d2:	cf 93       	push	r28
    24d4:	df 93       	push	r29
    24d6:	00 d0       	rcall	.+0      	; 0x24d8 <_ZN6memory6read32Em+0x1e>
    24d8:	00 d0       	rcall	.+0      	; 0x24da <_ZN6memory6read32Em+0x20>
    24da:	00 d0       	rcall	.+0      	; 0x24dc <_ZN6memory6read32Em+0x22>
    24dc:	cd b7       	in	r28, 0x3d	; 61
    24de:	de b7       	in	r29, 0x3e	; 62
    24e0:	9e 83       	std	Y+6, r25	; 0x06
    24e2:	8d 83       	std	Y+5, r24	; 0x05
    24e4:	2a 01       	movw	r4, r20
    24e6:	3b 01       	movw	r6, r22
	//msb first
	uint32_t a,b,c,d;
	addressreg->shiftout32(address+3);
    24e8:	6a 01       	movw	r12, r20
    24ea:	7b 01       	movw	r14, r22
    24ec:	23 e0       	ldi	r18, 0x03	; 3
    24ee:	c2 0e       	add	r12, r18
    24f0:	d1 1c       	adc	r13, r1
    24f2:	e1 1c       	adc	r14, r1
    24f4:	f1 1c       	adc	r15, r1
    24f6:	b7 01       	movw	r22, r14
    24f8:	a6 01       	movw	r20, r12
    24fa:	fc 01       	movw	r30, r24
    24fc:	82 81       	ldd	r24, Z+2	; 0x02
    24fe:	93 81       	ldd	r25, Z+3	; 0x03
    2500:	0e 94 e1 11 	call	0x23c2	; 0x23c2 <_ZN8shiftreg10shiftout32Em>
	a = read(address+3);
    2504:	b7 01       	movw	r22, r14
    2506:	a6 01       	movw	r20, r12
    2508:	8d 81       	ldd	r24, Y+5	; 0x05
    250a:	9e 81       	ldd	r25, Y+6	; 0x06
    250c:	0e 94 4f 12 	call	0x249e	; 0x249e <_ZN6memory4readEm>
    2510:	28 2f       	mov	r18, r24
    2512:	30 e0       	ldi	r19, 0x00	; 0
    2514:	40 e0       	ldi	r20, 0x00	; 0
    2516:	50 e0       	ldi	r21, 0x00	; 0
    2518:	29 83       	std	Y+1, r18	; 0x01
    251a:	3a 83       	std	Y+2, r19	; 0x02
    251c:	4b 83       	std	Y+3, r20	; 0x03
    251e:	5c 83       	std	Y+4, r21	; 0x04
	addressreg->shiftout32(address+2);
    2520:	73 01       	movw	r14, r6
    2522:	62 01       	movw	r12, r4
    2524:	32 e0       	ldi	r19, 0x02	; 2
    2526:	c3 0e       	add	r12, r19
    2528:	d1 1c       	adc	r13, r1
    252a:	e1 1c       	adc	r14, r1
    252c:	f1 1c       	adc	r15, r1
    252e:	b7 01       	movw	r22, r14
    2530:	a6 01       	movw	r20, r12
    2532:	ed 81       	ldd	r30, Y+5	; 0x05
    2534:	fe 81       	ldd	r31, Y+6	; 0x06
    2536:	82 81       	ldd	r24, Z+2	; 0x02
    2538:	93 81       	ldd	r25, Z+3	; 0x03
    253a:	0e 94 e1 11 	call	0x23c2	; 0x23c2 <_ZN8shiftreg10shiftout32Em>
	b = read(address+2);
    253e:	b7 01       	movw	r22, r14
    2540:	a6 01       	movw	r20, r12
    2542:	8d 81       	ldd	r24, Y+5	; 0x05
    2544:	9e 81       	ldd	r25, Y+6	; 0x06
    2546:	0e 94 4f 12 	call	0x249e	; 0x249e <_ZN6memory4readEm>
    254a:	c8 2e       	mov	r12, r24
    254c:	d1 2c       	mov	r13, r1
    254e:	e1 2c       	mov	r14, r1
    2550:	f1 2c       	mov	r15, r1
	addressreg->shiftout32(address+1);
    2552:	53 01       	movw	r10, r6
    2554:	42 01       	movw	r8, r4
    2556:	ff ef       	ldi	r31, 0xFF	; 255
    2558:	8f 1a       	sub	r8, r31
    255a:	9f 0a       	sbc	r9, r31
    255c:	af 0a       	sbc	r10, r31
    255e:	bf 0a       	sbc	r11, r31
    2560:	b5 01       	movw	r22, r10
    2562:	a4 01       	movw	r20, r8
    2564:	ed 81       	ldd	r30, Y+5	; 0x05
    2566:	fe 81       	ldd	r31, Y+6	; 0x06
    2568:	82 81       	ldd	r24, Z+2	; 0x02
    256a:	93 81       	ldd	r25, Z+3	; 0x03
    256c:	0e 94 e1 11 	call	0x23c2	; 0x23c2 <_ZN8shiftreg10shiftout32Em>
	c = read(address+1);
    2570:	b5 01       	movw	r22, r10
    2572:	a4 01       	movw	r20, r8
    2574:	8d 81       	ldd	r24, Y+5	; 0x05
    2576:	9e 81       	ldd	r25, Y+6	; 0x06
    2578:	0e 94 4f 12 	call	0x249e	; 0x249e <_ZN6memory4readEm>
    257c:	88 2e       	mov	r8, r24
    257e:	91 2c       	mov	r9, r1
    2580:	a1 2c       	mov	r10, r1
    2582:	b1 2c       	mov	r11, r1
	addressreg->shiftout32(address);
    2584:	b3 01       	movw	r22, r6
    2586:	a2 01       	movw	r20, r4
    2588:	ed 81       	ldd	r30, Y+5	; 0x05
    258a:	fe 81       	ldd	r31, Y+6	; 0x06
    258c:	82 81       	ldd	r24, Z+2	; 0x02
    258e:	93 81       	ldd	r25, Z+3	; 0x03
    2590:	0e 94 e1 11 	call	0x23c2	; 0x23c2 <_ZN8shiftreg10shiftout32Em>
	d = read(address);
    2594:	b3 01       	movw	r22, r6
    2596:	a2 01       	movw	r20, r4
    2598:	8d 81       	ldd	r24, Y+5	; 0x05
    259a:	9e 81       	ldd	r25, Y+6	; 0x06
    259c:	0e 94 4f 12 	call	0x249e	; 0x249e <_ZN6memory4readEm>
    25a0:	90 e0       	ldi	r25, 0x00	; 0
    25a2:	a0 e0       	ldi	r26, 0x00	; 0
    25a4:	b0 e0       	ldi	r27, 0x00	; 0
	return (uint32_t)((d<<24)|(c<<16)|(b<<8)|(a<<0));
    25a6:	b8 2f       	mov	r27, r24
    25a8:	aa 27       	eor	r26, r26
    25aa:	99 27       	eor	r25, r25
    25ac:	88 27       	eor	r24, r24
    25ae:	54 01       	movw	r10, r8
    25b0:	99 24       	eor	r9, r9
    25b2:	88 24       	eor	r8, r8
    25b4:	88 29       	or	r24, r8
    25b6:	99 29       	or	r25, r9
    25b8:	aa 29       	or	r26, r10
    25ba:	bb 29       	or	r27, r11
    25bc:	fe 2c       	mov	r15, r14
    25be:	ed 2c       	mov	r14, r13
    25c0:	dc 2c       	mov	r13, r12
    25c2:	cc 24       	eor	r12, r12
    25c4:	8c 29       	or	r24, r12
    25c6:	9d 29       	or	r25, r13
    25c8:	ae 29       	or	r26, r14
    25ca:	bf 29       	or	r27, r15
    25cc:	29 81       	ldd	r18, Y+1	; 0x01
    25ce:	3a 81       	ldd	r19, Y+2	; 0x02
    25d0:	4b 81       	ldd	r20, Y+3	; 0x03
    25d2:	5c 81       	ldd	r21, Y+4	; 0x04
    25d4:	28 2b       	or	r18, r24
    25d6:	39 2b       	or	r19, r25
    25d8:	4a 2b       	or	r20, r26
    25da:	5b 2b       	or	r21, r27
    25dc:	ca 01       	movw	r24, r20
    25de:	b9 01       	movw	r22, r18
}
    25e0:	26 96       	adiw	r28, 0x06	; 6
    25e2:	0f b6       	in	r0, 0x3f	; 63
    25e4:	f8 94       	cli
    25e6:	de bf       	out	0x3e, r29	; 62
    25e8:	0f be       	out	0x3f, r0	; 63
    25ea:	cd bf       	out	0x3d, r28	; 61
    25ec:	df 91       	pop	r29
    25ee:	cf 91       	pop	r28
    25f0:	ff 90       	pop	r15
    25f2:	ef 90       	pop	r14
    25f4:	df 90       	pop	r13
    25f6:	cf 90       	pop	r12
    25f8:	bf 90       	pop	r11
    25fa:	af 90       	pop	r10
    25fc:	9f 90       	pop	r9
    25fe:	8f 90       	pop	r8
    2600:	7f 90       	pop	r7
    2602:	6f 90       	pop	r6
    2604:	5f 90       	pop	r5
    2606:	4f 90       	pop	r4
    2608:	08 95       	ret

0000260a <_ZN6memoryD1Ev>:
// default destructor
memory::~memory()
    260a:	08 95       	ret

0000260c <_ZN9video_memC1Ev>:


#include "video_mem.h"

// default constructor
video_mem::video_mem()
    260c:	08 95       	ret

0000260e <_ZN9video_memD1Ev>:
{
} //video_mem

// default destructor
video_mem::~video_mem()
    260e:	08 95       	ret

00002610 <_ZN6SerialC1EP8shiftregP14portcontrollerccc>:
	csreg->shiftout8(cs);
	char r=0;
	send(reqid,cs);
	r=recive(cs);
	return r;
}
    2610:	ef 92       	push	r14
    2612:	0f 93       	push	r16
    2614:	fc 01       	movw	r30, r24
    2616:	73 83       	std	Z+3, r23	; 0x03
    2618:	62 83       	std	Z+2, r22	; 0x02
    261a:	51 83       	std	Z+1, r21	; 0x01
    261c:	40 83       	st	Z, r20
    261e:	25 83       	std	Z+5, r18	; 0x05
    2620:	06 83       	std	Z+6, r16	; 0x06
    2622:	e7 82       	std	Z+7, r14	; 0x07
    2624:	0f 91       	pop	r16
    2626:	ef 90       	pop	r14
    2628:	08 95       	ret

0000262a <_ZN6SerialD1Ev>:
// default destructor
Serial::~Serial()
    262a:	08 95       	ret

0000262c <_Z41__static_initialization_and_destruction_0ii>:
inline void loadbios()
{
	interpreter_main.addressptr = bios_address_start;	
}
void loados()
{
    262c:	cf 92       	push	r12
    262e:	df 92       	push	r13
    2630:	ef 92       	push	r14
    2632:	0f 93       	push	r16
    2634:	1f 93       	push	r17
    2636:	cf 93       	push	r28
    2638:	df 93       	push	r29
    263a:	ec 01       	movw	r28, r24
    263c:	6b 01       	movw	r12, r22
    263e:	01 97       	sbiw	r24, 0x01	; 1
    2640:	81 f5       	brne	.+96     	; 0x26a2 <_Z41__static_initialization_and_destruction_0ii+0x76>
    2642:	6f 3f       	cpi	r22, 0xFF	; 255
    2644:	7f 4f       	sbci	r23, 0xFF	; 255
    2646:	69 f5       	brne	.+90     	; 0x26a2 <_Z41__static_initialization_and_destruction_0ii+0x76>
    2648:	80 e5       	ldi	r24, 0x50	; 80
    264a:	92 e0       	ldi	r25, 0x02	; 2
    264c:	0e 94 82 11 	call	0x2304	; 0x2304 <_ZN14portcontrollerC1Ev>
    2650:	00 e5       	ldi	r16, 0x50	; 80
    2652:	12 e0       	ldi	r17, 0x02	; 2
    2654:	26 e2       	ldi	r18, 0x26	; 38
    2656:	47 e2       	ldi	r20, 0x27	; 39
    2658:	68 e2       	ldi	r22, 0x28	; 40
    265a:	83 e4       	ldi	r24, 0x43	; 67
    265c:	92 e0       	ldi	r25, 0x02	; 2
    265e:	0e 94 ce 11 	call	0x239c	; 0x239c <_ZN8shiftregC1EhhhP14portcontroller>
    2662:	23 e2       	ldi	r18, 0x23	; 35
    2664:	44 e2       	ldi	r20, 0x24	; 36
    2666:	65 e2       	ldi	r22, 0x25	; 37
    2668:	86 e3       	ldi	r24, 0x36	; 54
    266a:	92 e0       	ldi	r25, 0x02	; 2
    266c:	0e 94 ce 11 	call	0x239c	; 0x239c <_ZN8shiftregC1EhhhP14portcontroller>
    2670:	68 94       	set
    2672:	ee 24       	eor	r14, r14
    2674:	e2 f8       	bld	r14, 2
    2676:	0e e1       	ldi	r16, 0x1E	; 30
    2678:	2e e1       	ldi	r18, 0x1E	; 30
    267a:	40 e5       	ldi	r20, 0x50	; 80
    267c:	52 e0       	ldi	r21, 0x02	; 2
    267e:	66 e3       	ldi	r22, 0x36	; 54
    2680:	72 e0       	ldi	r23, 0x02	; 2
    2682:	8e e2       	ldi	r24, 0x2E	; 46
    2684:	92 e0       	ldi	r25, 0x02	; 2
    2686:	0e 94 08 13 	call	0x2610	; 0x2610 <_ZN6SerialC1EP8shiftregP14portcontrollerccc>
    268a:	82 e1       	ldi	r24, 0x12	; 18
    268c:	91 e0       	ldi	r25, 0x01	; 1
    268e:	0e 94 5f 00 	call	0xbe	; 0xbe <_ZN11interpreterC1Ev>
    2692:	89 e0       	ldi	r24, 0x09	; 9
    2694:	91 e0       	ldi	r25, 0x01	; 1
    2696:	0e 94 30 12 	call	0x2460	; 0x2460 <_ZN6memoryC1Ev>
    269a:	80 e0       	ldi	r24, 0x00	; 0
    269c:	91 e0       	ldi	r25, 0x01	; 1
    269e:	0e 94 06 13 	call	0x260c	; 0x260c <_ZN9video_memC1Ev>
    26a2:	cd 2b       	or	r28, r29
    26a4:	f9 f4       	brne	.+62     	; 0x26e4 <_Z41__static_initialization_and_destruction_0ii+0xb8>
    26a6:	cd 20       	and	r12, r13
    26a8:	c0 94       	com	r12
    26aa:	e1 f4       	brne	.+56     	; 0x26e4 <_Z41__static_initialization_and_destruction_0ii+0xb8>
    26ac:	80 e0       	ldi	r24, 0x00	; 0
    26ae:	91 e0       	ldi	r25, 0x01	; 1
    26b0:	0e 94 07 13 	call	0x260e	; 0x260e <_ZN9video_memD1Ev>
    26b4:	89 e0       	ldi	r24, 0x09	; 9
    26b6:	91 e0       	ldi	r25, 0x01	; 1
    26b8:	0e 94 05 13 	call	0x260a	; 0x260a <_ZN6memoryD1Ev>
    26bc:	82 e1       	ldi	r24, 0x12	; 18
    26be:	91 e0       	ldi	r25, 0x01	; 1
    26c0:	0e 94 79 11 	call	0x22f2	; 0x22f2 <_ZN11interpreterD1Ev>
    26c4:	8e e2       	ldi	r24, 0x2E	; 46
    26c6:	92 e0       	ldi	r25, 0x02	; 2
    26c8:	0e 94 15 13 	call	0x262a	; 0x262a <_ZN6SerialD1Ev>
    26cc:	86 e3       	ldi	r24, 0x36	; 54
    26ce:	92 e0       	ldi	r25, 0x02	; 2
    26d0:	0e 94 2f 12 	call	0x245e	; 0x245e <_ZN8shiftregD1Ev>
    26d4:	83 e4       	ldi	r24, 0x43	; 67
    26d6:	92 e0       	ldi	r25, 0x02	; 2
    26d8:	0e 94 2f 12 	call	0x245e	; 0x245e <_ZN8shiftregD1Ev>
    26dc:	80 e5       	ldi	r24, 0x50	; 80
    26de:	92 e0       	ldi	r25, 0x02	; 2
    26e0:	0e 94 cd 11 	call	0x239a	; 0x239a <_ZN14portcontrollerD1Ev>
    26e4:	df 91       	pop	r29
    26e6:	cf 91       	pop	r28
    26e8:	1f 91       	pop	r17
    26ea:	0f 91       	pop	r16
    26ec:	ef 90       	pop	r14
    26ee:	df 90       	pop	r13
    26f0:	cf 90       	pop	r12
    26f2:	08 95       	ret

000026f4 <_Z15syscall_handlerv>:
	// rn >r0 is data
	/*
		0-  sleep 1 ms
		
	*/
	if (interpreter_main.registers[0]==0)
    26f4:	80 91 12 01 	lds	r24, 0x0112	; 0x800112 <_ZL16interpreter_main>
    26f8:	81 11       	cpse	r24, r1
    26fa:	0e c0       	rjmp	.+28     	; 0x2718 <_Z15syscall_handlerv+0x24>
	{
		//sleep
		int i = interpreter_main.registers[1];
    26fc:	80 91 13 01 	lds	r24, 0x0113	; 0x800113 <_ZL16interpreter_main+0x1>
    2700:	90 e0       	ldi	r25, 0x00	; 0
	#else
		//round up by default
		__ticks_dc = (uint32_t)(ceil(fabs(__tmp)));
	#endif

	__builtin_avr_delay_cycles(__ticks_dc);
    2702:	e9 ef       	ldi	r30, 0xF9	; 249
    2704:	f0 e0       	ldi	r31, 0x00	; 0
    2706:	31 97       	sbiw	r30, 0x01	; 1
    2708:	f1 f7       	brne	.-4      	; 0x2706 <_Z15syscall_handlerv+0x12>
    270a:	00 c0       	rjmp	.+0      	; 0x270c <_Z15syscall_handlerv+0x18>
    270c:	00 00       	nop
		do 
		{
			_delay_ms(1);
			i--;	
    270e:	01 97       	sbiw	r24, 0x01	; 1
		} while (i>0);	
    2710:	18 16       	cp	r1, r24
    2712:	19 06       	cpc	r1, r25
    2714:	b4 f3       	brlt	.-20     	; 0x2702 <_Z15syscall_handlerv+0xe>
    2716:	08 95       	ret
	}
	/*
		
	*/
	else if (interpreter_main.registers[0]==1)
    2718:	81 30       	cpi	r24, 0x01	; 1
    271a:	91 f4       	brne	.+36     	; 0x2740 <_Z15syscall_handlerv+0x4c>
	{
		//multiply 
		if (interpreter_main.registers[1]==0||interpreter_main.registers[2]==0)
    271c:	80 91 13 01 	lds	r24, 0x0113	; 0x800113 <_ZL16interpreter_main+0x1>
    2720:	88 23       	and	r24, r24
    2722:	21 f0       	breq	.+8      	; 0x272c <_Z15syscall_handlerv+0x38>
    2724:	90 91 14 01 	lds	r25, 0x0114	; 0x800114 <_ZL16interpreter_main+0x2>
    2728:	91 11       	cpse	r25, r1
    272a:	04 c0       	rjmp	.+8      	; 0x2734 <_Z15syscall_handlerv+0x40>
		{
			interpreter_main.registers[3]=1;
    272c:	81 e0       	ldi	r24, 0x01	; 1
    272e:	80 93 15 01 	sts	0x0115, r24	; 0x800115 <_ZL16interpreter_main+0x3>
    2732:	08 95       	ret
		}
		else
		{
			interpreter_main.registers[3]=interpreter_main.registers[1]*interpreter_main.registers[2];
    2734:	89 9f       	mul	r24, r25
    2736:	80 2d       	mov	r24, r0
    2738:	11 24       	eor	r1, r1
    273a:	80 93 15 01 	sts	0x0115, r24	; 0x800115 <_ZL16interpreter_main+0x3>
    273e:	08 95       	ret
		}
	}
	else if (interpreter_main.registers[0]==2)
    2740:	82 30       	cpi	r24, 0x02	; 2
    2742:	89 f4       	brne	.+34     	; 0x2766 <_Z15syscall_handlerv+0x72>
		//int divide
		// reg 1 neumerator
		//reg 2 denemonator
		//reg 3 result
		// reg 4 error
		if(interpreter_main.registers[2]==0)
    2744:	60 91 14 01 	lds	r22, 0x0114	; 0x800114 <_ZL16interpreter_main+0x2>
    2748:	61 11       	cpse	r22, r1
    274a:	06 c0       	rjmp	.+12     	; 0x2758 <_Z15syscall_handlerv+0x64>
		{
			interpreter_main.registers[3]=0;
    274c:	e2 e1       	ldi	r30, 0x12	; 18
    274e:	f1 e0       	ldi	r31, 0x01	; 1
    2750:	13 82       	std	Z+3, r1	; 0x03
			interpreter_main.registers[4]=1;
    2752:	81 e0       	ldi	r24, 0x01	; 1
    2754:	84 83       	std	Z+4, r24	; 0x04
    2756:	08 95       	ret
		}
		else
		{
			interpreter_main.registers[3]=interpreter_main.registers[1]/interpreter_main.registers[2];
    2758:	e2 e1       	ldi	r30, 0x12	; 18
    275a:	f1 e0       	ldi	r31, 0x01	; 1
    275c:	81 81       	ldd	r24, Z+1	; 0x01
    275e:	0e 94 f2 13 	call	0x27e4	; 0x27e4 <__udivmodqi4>
    2762:	83 83       	std	Z+3, r24	; 0x03
			interpreter_main.registers[4]=0;                                                                                                                 
    2764:	14 82       	std	Z+4, r1	; 0x04
    2766:	08 95       	ret

00002768 <main>:
	
}
int main(void)
{
	char intrepreter_return=0;
	port.writeddra(0xff);
    2768:	6f ef       	ldi	r22, 0xFF	; 255
    276a:	80 e5       	ldi	r24, 0x50	; 80
    276c:	92 e0       	ldi	r25, 0x02	; 2
    276e:	0e 94 87 11 	call	0x230e	; 0x230e <_ZN14portcontroller9writeddraEc>
	port.writeddrb(0b00001000);	
    2772:	68 e0       	ldi	r22, 0x08	; 8
    2774:	80 e5       	ldi	r24, 0x50	; 80
    2776:	92 e0       	ldi	r25, 0x02	; 2
    2778:	0e 94 89 11 	call	0x2312	; 0x2312 <_ZN14portcontroller9writeddrbEc>
	port.writeddrc(0xff);
    277c:	6f ef       	ldi	r22, 0xFF	; 255
    277e:	80 e5       	ldi	r24, 0x50	; 80
    2780:	92 e0       	ldi	r25, 0x02	; 2
    2782:	0e 94 8b 11 	call	0x2316	; 0x2316 <_ZN14portcontroller9writeddrcEc>
	port.writeddrd(0x00);
    2786:	60 e0       	ldi	r22, 0x00	; 0
    2788:	80 e5       	ldi	r24, 0x50	; 80
    278a:	92 e0       	ldi	r25, 0x02	; 2
    278c:	0e 94 8d 11 	call	0x231a	; 0x231a <_ZN14portcontroller9writeddrdEc>
static interpreter interpreter_main = interpreter();
static memory mainmemory = memory();
static video_mem videomemory = video_mem();
inline void loadbios()
{
	interpreter_main.addressptr = bios_address_start;	
    2790:	80 e0       	ldi	r24, 0x00	; 0
    2792:	90 e0       	ldi	r25, 0x00	; 0
    2794:	af ef       	ldi	r26, 0xFF	; 255
    2796:	bf ef       	ldi	r27, 0xFF	; 255
    2798:	80 93 1d 02 	sts	0x021D, r24	; 0x80021d <_ZL16interpreter_main+0x10b>
    279c:	90 93 1e 02 	sts	0x021E, r25	; 0x80021e <_ZL16interpreter_main+0x10c>
    27a0:	a0 93 1f 02 	sts	0x021F, r26	; 0x80021f <_ZL16interpreter_main+0x10d>
    27a4:	b0 93 20 02 	sts	0x0220, r27	; 0x800220 <_ZL16interpreter_main+0x10e>
		PORTD = b;
		PORTD = c;
		PORTD = d;
		*/
		
		intrepreter_return = interpreter_main.run();
    27a8:	82 e1       	ldi	r24, 0x12	; 18
    27aa:	91 e0       	ldi	r25, 0x01	; 1
    27ac:	0e 94 e0 07 	call	0xfc0	; 0xfc0 <_ZN11interpreter3runEv>
		if (intrepreter_return == 'b')
    27b0:	82 36       	cpi	r24, 0x62	; 98
    27b2:	19 f4       	brne	.+6      	; 0x27ba <main+0x52>
		{
			syscall_handler();		
    27b4:	0e 94 7a 13 	call	0x26f4	; 0x26f4 <_Z15syscall_handlerv>
    27b8:	f7 cf       	rjmp	.-18     	; 0x27a8 <main+0x40>
		} 
		else if (intrepreter_return == 'e')
    27ba:	85 36       	cpi	r24, 0x65	; 101
    27bc:	a9 f7       	brne	.-22     	; 0x27a8 <main+0x40>
		{
			interpreter_main.zar();
    27be:	82 e1       	ldi	r24, 0x12	; 18
    27c0:	91 e0       	ldi	r25, 0x01	; 1
    27c2:	0e 94 6c 11 	call	0x22d8	; 0x22d8 <_ZN11interpreter3zarEv>
    27c6:	f0 cf       	rjmp	.-32     	; 0x27a8 <main+0x40>

000027c8 <_GLOBAL__sub_I__Z6loadosv>:
		}
		
	}
    27c8:	6f ef       	ldi	r22, 0xFF	; 255
    27ca:	7f ef       	ldi	r23, 0xFF	; 255
    27cc:	81 e0       	ldi	r24, 0x01	; 1
    27ce:	90 e0       	ldi	r25, 0x00	; 0
    27d0:	0e 94 16 13 	call	0x262c	; 0x262c <_Z41__static_initialization_and_destruction_0ii>
    27d4:	08 95       	ret

000027d6 <_GLOBAL__sub_D__Z6loadosv>:
    27d6:	6f ef       	ldi	r22, 0xFF	; 255
    27d8:	7f ef       	ldi	r23, 0xFF	; 255
    27da:	80 e0       	ldi	r24, 0x00	; 0
    27dc:	90 e0       	ldi	r25, 0x00	; 0
    27de:	0e 94 16 13 	call	0x262c	; 0x262c <_Z41__static_initialization_and_destruction_0ii>
    27e2:	08 95       	ret

000027e4 <__udivmodqi4>:
    27e4:	99 1b       	sub	r25, r25
    27e6:	79 e0       	ldi	r23, 0x09	; 9
    27e8:	04 c0       	rjmp	.+8      	; 0x27f2 <__udivmodqi4_ep>

000027ea <__udivmodqi4_loop>:
    27ea:	99 1f       	adc	r25, r25
    27ec:	96 17       	cp	r25, r22
    27ee:	08 f0       	brcs	.+2      	; 0x27f2 <__udivmodqi4_ep>
    27f0:	96 1b       	sub	r25, r22

000027f2 <__udivmodqi4_ep>:
    27f2:	88 1f       	adc	r24, r24
    27f4:	7a 95       	dec	r23
    27f6:	c9 f7       	brne	.-14     	; 0x27ea <__udivmodqi4_loop>
    27f8:	80 95       	com	r24
    27fa:	08 95       	ret

000027fc <__tablejump2__>:
    27fc:	ee 0f       	add	r30, r30
    27fe:	ff 1f       	adc	r31, r31
    2800:	05 90       	lpm	r0, Z+
    2802:	f4 91       	lpm	r31, Z
    2804:	e0 2d       	mov	r30, r0
    2806:	09 94       	ijmp

00002808 <__do_global_dtors>:
    2808:	10 e0       	ldi	r17, 0x00	; 0
    280a:	cf e3       	ldi	r28, 0x3F	; 63
    280c:	d0 e0       	ldi	r29, 0x00	; 0
    280e:	04 c0       	rjmp	.+8      	; 0x2818 <__do_global_dtors+0x10>
    2810:	fe 01       	movw	r30, r28
    2812:	0e 94 fe 13 	call	0x27fc	; 0x27fc <__tablejump2__>
    2816:	21 96       	adiw	r28, 0x01	; 1
    2818:	c0 34       	cpi	r28, 0x40	; 64
    281a:	d1 07       	cpc	r29, r17
    281c:	c9 f7       	brne	.-14     	; 0x2810 <__do_global_dtors+0x8>
    281e:	f8 94       	cli

00002820 <__stop_program>:
    2820:	ff cf       	rjmp	.-2      	; 0x2820 <__stop_program>
